ARM GAS  C:\Users\akita\AppData\Local\Temp\ccdft4rf.s 			page 1


   1              		.cpu cortex-m0
   2              		.fpu softvfp
   3              		.eabi_attribute 20, 1
   4              		.eabi_attribute 21, 1
   5              		.eabi_attribute 23, 3
   6              		.eabi_attribute 24, 1
   7              		.eabi_attribute 25, 1
   8              		.eabi_attribute 26, 1
   9              		.eabi_attribute 30, 6
  10              		.eabi_attribute 34, 0
  11              		.eabi_attribute 18, 4
  12              		.code	16
  13              		.file	"bas.c"
  14              		.text
  15              	.Ltext0:
  16              		.cfi_sections	.debug_frame
  17              		.comm	Ton,4,4
  18              		.section	.text.BasCallBack,"ax",%progbits
  19              		.align	2
  20              		.global	BasCallBack
  21              		.code	16
  22              		.thumb_func
  23              		.type	BasCallBack, %function
  24              	BasCallBack:
  25              	.LFB37:
  26              		.file 1 "bas.c"
   1:bas.c         **** /*******************************************************************************
   2:bas.c         **** * File Name: bas.c
   3:bas.c         **** *
   4:bas.c         **** * Version: 1.0
   5:bas.c         **** *
   6:bas.c         **** * Description:
   7:bas.c         **** *  This file contains BAS callback handler function.
   8:bas.c         **** *
   9:bas.c         **** * Hardware Dependency:
  10:bas.c         **** *  CY8CKIT-042 BLE
  11:bas.c         **** * 
  12:bas.c         **** ********************************************************************************
  13:bas.c         **** * Copyright 2015, Cypress Semiconductor Corporation.  All rights reserved.
  14:bas.c         **** * You may use this file only in accordance with the license, terms, conditions,
  15:bas.c         **** * disclaimers, and limitations in the end user license agreement accompanying
  16:bas.c         **** * the software package with which this file was provided.
  17:bas.c         **** *******************************************************************************/
  18:bas.c         **** 
  19:bas.c         **** #include "common.h"
  20:bas.c         **** #include "bas.h"
  21:bas.c         **** 
  22:bas.c         **** #if (BAS_SIMULATE_ENABLE != 0)
  23:bas.c         **** uint16 batterySimulationNotify = 0u;
  24:bas.c         **** #endif /* (BAS_SIMULATE_ENABLE != 0) */
  25:bas.c         **** 
  26:bas.c         **** #if (BAS_MEASURE_ENABLE != 0)
  27:bas.c         **** uint16 batteryMeasureNotify = 0u;
  28:bas.c         **** #endif /* (BAS_MEASURE_ENABLE != 0) */
  29:bas.c         **** 
  30:bas.c         **** 
  31:bas.c         **** /*******************************************************************************
ARM GAS  C:\Users\akita\AppData\Local\Temp\ccdft4rf.s 			page 2


  32:bas.c         **** * Function Name: BasCallBack()
  33:bas.c         **** ********************************************************************************
  34:bas.c         **** *
  35:bas.c         **** * Summary:
  36:bas.c         **** *   This is an event callback function to receive service specific events from 
  37:bas.c         **** *   Battery Service.
  38:bas.c         **** *
  39:bas.c         **** * Parameters:
  40:bas.c         **** *  event - the event code
  41:bas.c         **** *  *eventParam - the event parameters
  42:bas.c         **** *
  43:bas.c         **** * Return:
  44:bas.c         **** *  None.
  45:bas.c         **** *
  46:bas.c         **** *******************************************************************************/
  47:bas.c         **** void BasCallBack(uint32 event, void *eventParam)
  48:bas.c         **** {
  27              		.loc 1 48 0
  28              		.cfi_startproc
  29 0000 80B5     		push	{r7, lr}
  30              		.cfi_def_cfa_offset 8
  31              		.cfi_offset 7, -8
  32              		.cfi_offset 14, -4
  33 0002 84B0     		sub	sp, sp, #16
  34              		.cfi_def_cfa_offset 24
  35 0004 00AF     		add	r7, sp, #0
  36              		.cfi_def_cfa_register 7
  37 0006 7860     		str	r0, [r7, #4]
  38 0008 3960     		str	r1, [r7]
  49:bas.c         ****     uint8 locServiceIndex;
  50:bas.c         ****     
  51:bas.c         ****     locServiceIndex = ((CYBLE_BAS_CHAR_VALUE_T *)eventParam)->serviceIndex;
  39              		.loc 1 51 0
  40 000a 0F23     		mov	r3, #15
  41 000c FB18     		add	r3, r7, r3
  42 000e 3A68     		ldr	r2, [r7]
  43 0010 9278     		ldrb	r2, [r2, #2]
  44 0012 1A70     		strb	r2, [r3]
  52:bas.c         ****     DBG_PRINTF("BAS event: %lx, ", event);
  53:bas.c         ****     
  54:bas.c         ****     switch(event)
  45              		.loc 1 54 0
  46 0014 7B68     		ldr	r3, [r7, #4]
  47 0016 233B     		sub	r3, r3, #35
  48 0018 FF3B     		sub	r3, r3, #255
  49 001a 052B     		cmp	r3, #5
  50 001c 04D8     		bhi	.L11
  51 001e 9A00     		lsl	r2, r3, #2
  52 0020 044B     		ldr	r3, .L13
  53 0022 D318     		add	r3, r2, r3
  54 0024 1B68     		ldr	r3, [r3]
  55 0026 9F46     		mov	pc, r3
  56              		.section	.rodata
  57              		.align	2
  58              	.L4:
  59 0000 2C000000 		.word	.L12
  60 0004 2C000000 		.word	.L12
ARM GAS  C:\Users\akita\AppData\Local\Temp\ccdft4rf.s 			page 3


  61 0008 2C000000 		.word	.L12
  62 000c 2C000000 		.word	.L12
  63 0010 2C000000 		.word	.L12
  64 0014 2C000000 		.word	.L12
  65              		.section	.text.BasCallBack
  66              	.L11:
  55:bas.c         ****     {
  56:bas.c         ****         case CYBLE_EVT_BASS_NOTIFICATION_ENABLED:
  57:bas.c         ****             DBG_PRINTF("CYBLE_EVT_BASS_NOTIFICATION_ENABLED: %x \r\n", locServiceIndex);
  58:bas.c         ****         #if (BAS_SIMULATE_ENABLE != 0)
  59:bas.c         ****             if(BAS_SERVICE_SIMULATE == locServiceIndex)
  60:bas.c         ****             {
  61:bas.c         ****                 batterySimulationNotify = ENABLED;
  62:bas.c         ****             }
  63:bas.c         ****         #endif /*  (BAS_SIMULATE_ENABLE != 0) */        
  64:bas.c         ****         #if (BAS_MEASURE_ENABLE != 0)
  65:bas.c         ****             if(BAS_SERVICE_MEASURE == locServiceIndex)
  66:bas.c         ****             {
  67:bas.c         ****                 batteryMeasureNotify = ENABLED;
  68:bas.c         ****             }
  69:bas.c         ****         #endif /*  (BAS_MEASURE_ENABLE != 0) */     
  70:bas.c         ****             break;
  71:bas.c         ****         case CYBLE_EVT_BASS_NOTIFICATION_DISABLED:
  72:bas.c         ****             DBG_PRINTF("CYBLE_EVT_BASS_NOTIFICATION_DISABLED: %x \r\n", locServiceIndex);
  73:bas.c         ****         #if (BAS_SIMULATE_ENABLE != 0)
  74:bas.c         ****             if(BAS_SERVICE_SIMULATE == locServiceIndex)
  75:bas.c         ****             {
  76:bas.c         ****                 batterySimulationNotify = DISABLED;
  77:bas.c         ****             }
  78:bas.c         ****         #endif /*  (BAS_SIMULATE_ENABLE != 0) */        
  79:bas.c         ****         #if (BAS_MEASURE_ENABLE != 0)
  80:bas.c         ****             if(BAS_SERVICE_MEASURE == locServiceIndex)
  81:bas.c         ****             {
  82:bas.c         ****                 batteryMeasureNotify = DISABLED;
  83:bas.c         ****             }
  84:bas.c         ****         #endif /*  (BAS_MEASURE_ENABLE != 0) */     
  85:bas.c         ****             break;
  86:bas.c         ****         case CYBLE_EVT_BASC_NOTIFICATION:
  87:bas.c         ****             break;
  88:bas.c         ****         case CYBLE_EVT_BASC_READ_CHAR_RESPONSE:
  89:bas.c         ****             break;
  90:bas.c         ****         case CYBLE_EVT_BASC_READ_DESCR_RESPONSE:
  91:bas.c         ****             break;
  92:bas.c         ****         case CYBLE_EVT_BASC_WRITE_DESCR_RESPONSE:
  93:bas.c         ****             break;
  94:bas.c         **** 		default:
  95:bas.c         ****             DBG_PRINTF("Not supported event\r\n");
  96:bas.c         **** 			break;
  67              		.loc 1 96 0
  68 0028 C046     		mov	r8, r8
  69 002a 00E0     		b	.L1
  70              	.L12:
  93:bas.c         **** 		default:
  71              		.loc 1 93 0
  72 002c C046     		mov	r8, r8
  73              	.L1:
  97:bas.c         ****     }
ARM GAS  C:\Users\akita\AppData\Local\Temp\ccdft4rf.s 			page 4


  98:bas.c         **** }
  74              		.loc 1 98 0
  75 002e BD46     		mov	sp, r7
  76 0030 04B0     		add	sp, sp, #16
  77              		@ sp needed
  78 0032 80BD     		pop	{r7, pc}
  79              	.L14:
  80              		.align	2
  81              	.L13:
  82 0034 00000000 		.word	.L4
  83              		.cfi_endproc
  84              	.LFE37:
  85              		.size	BasCallBack, .-BasCallBack
  86              		.section	.text.BasInit,"ax",%progbits
  87              		.align	2
  88              		.global	BasInit
  89              		.code	16
  90              		.thumb_func
  91              		.type	BasInit, %function
  92              	BasInit:
  93              	.LFB38:
  99:bas.c         **** 
 100:bas.c         **** 
 101:bas.c         **** /*******************************************************************************
 102:bas.c         **** * Function Name: BasInit()
 103:bas.c         **** ********************************************************************************
 104:bas.c         **** *
 105:bas.c         **** * Summary:
 106:bas.c         **** *   Initializes the battery service.
 107:bas.c         **** *
 108:bas.c         **** *******************************************************************************/
 109:bas.c         **** void BasInit(void)
 110:bas.c         **** {
  94              		.loc 1 110 0
  95              		.cfi_startproc
  96 0000 80B5     		push	{r7, lr}
  97              		.cfi_def_cfa_offset 8
  98              		.cfi_offset 7, -8
  99              		.cfi_offset 14, -4
 100 0002 00AF     		add	r7, sp, #0
 101              		.cfi_def_cfa_register 7
 111:bas.c         ****     CYBLE_API_RESULT_T apiResult;
 112:bas.c         ****     uint16 cccdValue;
 113:bas.c         ****     
 114:bas.c         ****     /* Register service specific callback function */
 115:bas.c         ****     CyBle_BasRegisterAttrCallback(BasCallBack);
 102              		.loc 1 115 0
 103 0004 024B     		ldr	r3, .L16
 104 0006 181C     		mov	r0, r3
 105 0008 FFF7FEFF 		bl	CyBle_BasRegisterAttrCallback
 116:bas.c         **** 
 117:bas.c         ****     /* Read CCCD configurations from flash */
 118:bas.c         **** #if (BAS_SIMULATE_ENABLE != 0)
 119:bas.c         ****     apiResult = CyBle_BassGetCharacteristicDescriptor(BAS_SERVICE_SIMULATE, CYBLE_BAS_BATTERY_LEVEL
 120:bas.c         ****         CYBLE_BAS_BATTERY_LEVEL_CCCD, CYBLE_CCCD_LEN, (uint8 *)&cccdValue);
 121:bas.c         ****     if((apiResult == CYBLE_ERROR_OK) && (cccdValue != 0u))
 122:bas.c         ****     {
ARM GAS  C:\Users\akita\AppData\Local\Temp\ccdft4rf.s 			page 5


 123:bas.c         ****         batterySimulationNotify |= ENABLED;
 124:bas.c         ****     }
 125:bas.c         **** #endif /* (BAS_SIMULATE_ENABLE != 0) */
 126:bas.c         **** #if (BAS_MEASURE_ENABLE != 0)
 127:bas.c         ****     apiResult = CyBle_BassGetCharacteristicDescriptor(BAS_SERVICE_MEASURE, CYBLE_BAS_BATTERY_LEVEL,
 128:bas.c         ****         CYBLE_BAS_BATTERY_LEVEL_CCCD, CYBLE_CCCD_LEN, (uint8 *)&cccdValue);
 129:bas.c         ****     if((apiResult == CYBLE_ERROR_OK) && (cccdValue != 0u))
 130:bas.c         ****     {
 131:bas.c         ****         batteryMeasureNotify |= ENABLED;
 132:bas.c         ****     }
 133:bas.c         **** #endif /* (BAS_MEASURE_ENABLE != 0) */
 134:bas.c         **** }
 106              		.loc 1 134 0
 107 000c BD46     		mov	sp, r7
 108              		@ sp needed
 109 000e 80BD     		pop	{r7, pc}
 110              	.L17:
 111              		.align	2
 112              	.L16:
 113 0010 00000000 		.word	BasCallBack
 114              		.cfi_endproc
 115              	.LFE38:
 116              		.size	BasInit, .-BasInit
 117              		.text
 118              	.Letext0:
 119              		.file 2 "Generated_Source\\PSoC4/cytypes.h"
 120              		.file 3 "Generated_Source\\PSoC4/BLE_Stack.h"
 121              		.file 4 "Generated_Source\\PSoC4/BLE_StackGatt.h"
 122              		.file 5 "Generated_Source\\PSoC4/BLE_bas.h"
 123              		.file 6 "Generated_Source\\PSoC4/BLE_dis.h"
 124              		.file 7 "Generated_Source\\PSoC4/BLE_eventHandler.h"
 125              		.file 8 "common.h"