ARM GAS  C:\Users\akita\AppData\Local\Temp\ccUBY6iq.s 			page 1


   1              		.cpu cortex-m0
   2              		.fpu softvfp
   3              		.eabi_attribute 20, 1
   4              		.eabi_attribute 21, 1
   5              		.eabi_attribute 23, 3
   6              		.eabi_attribute 24, 1
   7              		.eabi_attribute 25, 1
   8              		.eabi_attribute 26, 1
   9              		.eabi_attribute 30, 6
  10              		.eabi_attribute 34, 0
  11              		.eabi_attribute 18, 4
  12              		.code	16
  13              		.file	"BLE_dis.c"
  14              		.text
  15              	.Ltext0:
  16              		.cfi_sections	.debug_frame
  17              		.global	cyBle_diss
  18              		.section	.rodata
  19              		.align	2
  20              		.type	cyBle_diss, %object
  21              		.size	cyBle_diss, 20
  22              	cyBle_diss:
  23 0000 2100     		.short	33
  24 0002 2300     		.short	35
  25 0004 0000     		.short	0
  26 0006 0000     		.short	0
  27 0008 0000     		.short	0
  28 000a 2500     		.short	37
  29 000c 0000     		.short	0
  30 000e 0000     		.short	0
  31 0010 0000     		.short	0
  32 0012 2700     		.short	39
  33              		.section	.text.CyBle_DisInit,"ax",%progbits
  34              		.align	2
  35              		.global	CyBle_DisInit
  36              		.code	16
  37              		.thumb_func
  38              		.type	CyBle_DisInit, %function
  39              	CyBle_DisInit:
  40              	.LFB2:
  41              		.file 1 "Generated_Source\\PSoC4\\BLE_dis.c"
   1:Generated_Source\PSoC4/BLE_dis.c **** /***************************************************************************//**
   2:Generated_Source\PSoC4/BLE_dis.c **** * \file CYBLE_dis.c
   3:Generated_Source\PSoC4/BLE_dis.c **** * \version 3.20
   4:Generated_Source\PSoC4/BLE_dis.c **** * 
   5:Generated_Source\PSoC4/BLE_dis.c **** * \brief
   6:Generated_Source\PSoC4/BLE_dis.c **** *  Contains the source code for the Device Information Service.
   7:Generated_Source\PSoC4/BLE_dis.c **** * 
   8:Generated_Source\PSoC4/BLE_dis.c **** ********************************************************************************
   9:Generated_Source\PSoC4/BLE_dis.c **** * \copyright
  10:Generated_Source\PSoC4/BLE_dis.c **** * Copyright 2014-2016, Cypress Semiconductor Corporation.  All rights reserved.
  11:Generated_Source\PSoC4/BLE_dis.c **** * You may use this file only in accordance with the license, terms, conditions,
  12:Generated_Source\PSoC4/BLE_dis.c **** * disclaimers, and limitations in the end user license agreement accompanying
  13:Generated_Source\PSoC4/BLE_dis.c **** * the software package with which this file was provided.
  14:Generated_Source\PSoC4/BLE_dis.c **** *******************************************************************************/
  15:Generated_Source\PSoC4/BLE_dis.c **** 
  16:Generated_Source\PSoC4/BLE_dis.c **** 
ARM GAS  C:\Users\akita\AppData\Local\Temp\ccUBY6iq.s 			page 2


  17:Generated_Source\PSoC4/BLE_dis.c **** #include "BLE_eventHandler.h"
  18:Generated_Source\PSoC4/BLE_dis.c **** 
  19:Generated_Source\PSoC4/BLE_dis.c **** #ifdef CYBLE_DIS_SERVER
  20:Generated_Source\PSoC4/BLE_dis.c **** 
  21:Generated_Source\PSoC4/BLE_dis.c **** const CYBLE_DISS_T cyBle_diss =
  22:Generated_Source\PSoC4/BLE_dis.c **** {
  23:Generated_Source\PSoC4/BLE_dis.c ****     0x0021u,    /* Handle of the DIS service */
  24:Generated_Source\PSoC4/BLE_dis.c ****     {
  25:Generated_Source\PSoC4/BLE_dis.c ****         0x0023u, /* Handle of the Manufacturer Name String characteristic */ 
  26:Generated_Source\PSoC4/BLE_dis.c ****         CYBLE_GATT_INVALID_ATTR_HANDLE_VALUE, /* Handle of the Model Number String characteristic *
  27:Generated_Source\PSoC4/BLE_dis.c ****         CYBLE_GATT_INVALID_ATTR_HANDLE_VALUE, /* Handle of the Serial Number String characteristic 
  28:Generated_Source\PSoC4/BLE_dis.c ****         CYBLE_GATT_INVALID_ATTR_HANDLE_VALUE, /* Handle of the Hardware Revision String characteris
  29:Generated_Source\PSoC4/BLE_dis.c ****         0x0025u, /* Handle of the Firmware Revision String characteristic */ 
  30:Generated_Source\PSoC4/BLE_dis.c ****         CYBLE_GATT_INVALID_ATTR_HANDLE_VALUE, /* Handle of the Software Revision String characteris
  31:Generated_Source\PSoC4/BLE_dis.c ****         CYBLE_GATT_INVALID_ATTR_HANDLE_VALUE, /* Handle of the System ID characteristic */ 
  32:Generated_Source\PSoC4/BLE_dis.c ****         CYBLE_GATT_INVALID_ATTR_HANDLE_VALUE, /* Handle of the IEEE 11073-20601 Regulatory Certific
  33:Generated_Source\PSoC4/BLE_dis.c ****         0x0027u, /* Handle of the PnP ID characteristic */ 
  34:Generated_Source\PSoC4/BLE_dis.c ****     },
  35:Generated_Source\PSoC4/BLE_dis.c **** };
  36:Generated_Source\PSoC4/BLE_dis.c **** 
  37:Generated_Source\PSoC4/BLE_dis.c **** #endif /* CYBLE_DIS_SERVER */
  38:Generated_Source\PSoC4/BLE_dis.c **** 
  39:Generated_Source\PSoC4/BLE_dis.c **** #ifdef CYBLE_DIS_CLIENT
  40:Generated_Source\PSoC4/BLE_dis.c **** 
  41:Generated_Source\PSoC4/BLE_dis.c **** CYBLE_DISC_T cyBle_disc;
  42:Generated_Source\PSoC4/BLE_dis.c **** static CYBLE_GATT_DB_ATTR_HANDLE_T cyBle_discReqHandle;
  43:Generated_Source\PSoC4/BLE_dis.c **** static CYBLE_CALLBACK_T CyBle_DisApplCallback = NULL;
  44:Generated_Source\PSoC4/BLE_dis.c **** 
  45:Generated_Source\PSoC4/BLE_dis.c **** #endif /* (CYBLE_DIS_CLIENT) */
  46:Generated_Source\PSoC4/BLE_dis.c **** 
  47:Generated_Source\PSoC4/BLE_dis.c **** 
  48:Generated_Source\PSoC4/BLE_dis.c **** /****************************************************************************** 
  49:Generated_Source\PSoC4/BLE_dis.c **** * Function Name: CyBle_DisInit
  50:Generated_Source\PSoC4/BLE_dis.c **** ***************************************************************************//**
  51:Generated_Source\PSoC4/BLE_dis.c **** * 
  52:Generated_Source\PSoC4/BLE_dis.c **** *  This function initializes the DIS service.
  53:Generated_Source\PSoC4/BLE_dis.c **** *  
  54:Generated_Source\PSoC4/BLE_dis.c **** ******************************************************************************/
  55:Generated_Source\PSoC4/BLE_dis.c **** void CyBle_DisInit(void)
  56:Generated_Source\PSoC4/BLE_dis.c **** {
  42              		.loc 1 56 0
  43              		.cfi_startproc
  44 0000 80B5     		push	{r7, lr}
  45              		.cfi_def_cfa_offset 8
  46              		.cfi_offset 7, -8
  47              		.cfi_offset 14, -4
  48 0002 00AF     		add	r7, sp, #0
  49              		.cfi_def_cfa_register 7
  57:Generated_Source\PSoC4/BLE_dis.c **** 
  58:Generated_Source\PSoC4/BLE_dis.c **** #ifdef CYBLE_DIS_CLIENT
  59:Generated_Source\PSoC4/BLE_dis.c **** 
  60:Generated_Source\PSoC4/BLE_dis.c ****     if(cyBle_serverInfo[CYBLE_SRVI_DIS].range.startHandle == CYBLE_GATT_INVALID_ATTR_HANDLE_VALUE)
  61:Generated_Source\PSoC4/BLE_dis.c ****     {
  62:Generated_Source\PSoC4/BLE_dis.c ****         (void)memset(&cyBle_disc, 0, sizeof(cyBle_disc));
  63:Generated_Source\PSoC4/BLE_dis.c ****     }
  64:Generated_Source\PSoC4/BLE_dis.c ****     cyBle_discReqHandle = CYBLE_GATT_INVALID_ATTR_HANDLE_VALUE;
  65:Generated_Source\PSoC4/BLE_dis.c **** 
ARM GAS  C:\Users\akita\AppData\Local\Temp\ccUBY6iq.s 			page 3


  66:Generated_Source\PSoC4/BLE_dis.c **** #endif /* CYBLE_DIS_CLIENT */
  67:Generated_Source\PSoC4/BLE_dis.c **** 
  68:Generated_Source\PSoC4/BLE_dis.c **** }
  50              		.loc 1 68 0
  51 0004 BD46     		mov	sp, r7
  52              		@ sp needed
  53 0006 80BD     		pop	{r7, pc}
  54              		.cfi_endproc
  55              	.LFE2:
  56              		.size	CyBle_DisInit, .-CyBle_DisInit
  57              		.section	.text.CyBle_DisRegisterAttrCallback,"ax",%progbits
  58              		.align	2
  59              		.global	CyBle_DisRegisterAttrCallback
  60              		.code	16
  61              		.thumb_func
  62              		.type	CyBle_DisRegisterAttrCallback, %function
  63              	CyBle_DisRegisterAttrCallback:
  64              	.LFB3:
  69:Generated_Source\PSoC4/BLE_dis.c **** 
  70:Generated_Source\PSoC4/BLE_dis.c **** 
  71:Generated_Source\PSoC4/BLE_dis.c **** /****************************************************************************** 
  72:Generated_Source\PSoC4/BLE_dis.c **** * Function Name: CyBle_DisRegisterAttrCallback
  73:Generated_Source\PSoC4/BLE_dis.c **** ***************************************************************************//**
  74:Generated_Source\PSoC4/BLE_dis.c **** * 
  75:Generated_Source\PSoC4/BLE_dis.c **** *  Registers a callback function for service specific attribute operations.
  76:Generated_Source\PSoC4/BLE_dis.c **** *  Callback doesn't have events in server role.
  77:Generated_Source\PSoC4/BLE_dis.c **** * 
  78:Generated_Source\PSoC4/BLE_dis.c **** *  \param callbackFunc: An application layer event callback function to receive 
  79:Generated_Source\PSoC4/BLE_dis.c **** *                    events from the BLE Component. The definition of 
  80:Generated_Source\PSoC4/BLE_dis.c **** *                    CYBLE_CALLBACK_T for Device Information Service is:\n
  81:Generated_Source\PSoC4/BLE_dis.c **** *                    typedef void (* CYBLE_CALLBACK_T) (uint32 eventCode, 
  82:Generated_Source\PSoC4/BLE_dis.c **** *                                                       void *eventParam)
  83:Generated_Source\PSoC4/BLE_dis.c **** *                    * eventCode indicates the event that triggered this 
  84:Generated_Source\PSoC4/BLE_dis.c **** *                      callback.
  85:Generated_Source\PSoC4/BLE_dis.c **** *                    * eventParam contains the parameters corresponding to the 
  86:Generated_Source\PSoC4/BLE_dis.c **** *                      current event.
  87:Generated_Source\PSoC4/BLE_dis.c **** * 
  88:Generated_Source\PSoC4/BLE_dis.c **** ******************************************************************************/
  89:Generated_Source\PSoC4/BLE_dis.c **** void CyBle_DisRegisterAttrCallback(CYBLE_CALLBACK_T callbackFunc)
  90:Generated_Source\PSoC4/BLE_dis.c **** {
  65              		.loc 1 90 0
  66              		.cfi_startproc
  67 0000 80B5     		push	{r7, lr}
  68              		.cfi_def_cfa_offset 8
  69              		.cfi_offset 7, -8
  70              		.cfi_offset 14, -4
  71 0002 82B0     		sub	sp, sp, #8
  72              		.cfi_def_cfa_offset 16
  73 0004 00AF     		add	r7, sp, #0
  74              		.cfi_def_cfa_register 7
  75 0006 7860     		str	r0, [r7, #4]
  91:Generated_Source\PSoC4/BLE_dis.c ****     
  92:Generated_Source\PSoC4/BLE_dis.c **** #ifdef CYBLE_DIS_CLIENT
  93:Generated_Source\PSoC4/BLE_dis.c ****     CyBle_DisApplCallback = callbackFunc;
  94:Generated_Source\PSoC4/BLE_dis.c **** #else
  95:Generated_Source\PSoC4/BLE_dis.c ****     if(callbackFunc != NULL) /* Callback doesn't have events in server role */
  96:Generated_Source\PSoC4/BLE_dis.c ****     {
ARM GAS  C:\Users\akita\AppData\Local\Temp\ccUBY6iq.s 			page 4


  97:Generated_Source\PSoC4/BLE_dis.c ****     }
  98:Generated_Source\PSoC4/BLE_dis.c **** #endif /* CYBLE_DIS_CLIENT */
  99:Generated_Source\PSoC4/BLE_dis.c ****     
 100:Generated_Source\PSoC4/BLE_dis.c **** }
  76              		.loc 1 100 0
  77 0008 BD46     		mov	sp, r7
  78 000a 02B0     		add	sp, sp, #8
  79              		@ sp needed
  80 000c 80BD     		pop	{r7, pc}
  81              		.cfi_endproc
  82              	.LFE3:
  83              		.size	CyBle_DisRegisterAttrCallback, .-CyBle_DisRegisterAttrCallback
  84 000e C046     		.section	.text.CyBle_DissSetCharacteristicValue,"ax",%progbits
  85              		.align	2
  86              		.global	CyBle_DissSetCharacteristicValue
  87              		.code	16
  88              		.thumb_func
  89              		.type	CyBle_DissSetCharacteristicValue, %function
  90              	CyBle_DissSetCharacteristicValue:
  91              	.LFB4:
 101:Generated_Source\PSoC4/BLE_dis.c **** 
 102:Generated_Source\PSoC4/BLE_dis.c **** #ifdef CYBLE_DIS_SERVER
 103:Generated_Source\PSoC4/BLE_dis.c **** 
 104:Generated_Source\PSoC4/BLE_dis.c **** 
 105:Generated_Source\PSoC4/BLE_dis.c **** /******************************************************************************
 106:Generated_Source\PSoC4/BLE_dis.c **** * Function Name: CyBle_DissSetCharacteristicValue
 107:Generated_Source\PSoC4/BLE_dis.c **** ***************************************************************************//**
 108:Generated_Source\PSoC4/BLE_dis.c **** * 
 109:Generated_Source\PSoC4/BLE_dis.c **** *  Sets a characteristic value of the service, which is identified by charIndex,
 110:Generated_Source\PSoC4/BLE_dis.c **** *  to the local database.
 111:Generated_Source\PSoC4/BLE_dis.c **** * 
 112:Generated_Source\PSoC4/BLE_dis.c **** * 
 113:Generated_Source\PSoC4/BLE_dis.c **** *  \param charIndex: The index of a service characteristic.
 114:Generated_Source\PSoC4/BLE_dis.c **** *  \param attrSize: The size of the characteristic value attribute.
 115:Generated_Source\PSoC4/BLE_dis.c **** *  \param *attrValue: The pointer to the characteristic value data that should be
 116:Generated_Source\PSoC4/BLE_dis.c **** *                   stored to the GATT database.
 117:Generated_Source\PSoC4/BLE_dis.c **** * 
 118:Generated_Source\PSoC4/BLE_dis.c **** * \return
 119:Generated_Source\PSoC4/BLE_dis.c **** *  Return value is of type CYBLE_API_RESULT_T.
 120:Generated_Source\PSoC4/BLE_dis.c **** *  * CYBLE_ERROR_OK - The request handled successfully
 121:Generated_Source\PSoC4/BLE_dis.c **** *  * CYBLE_ERROR_INVALID_PARAMETER - Validation of the input parameter failed
 122:Generated_Source\PSoC4/BLE_dis.c **** *
 123:Generated_Source\PSoC4/BLE_dis.c **** ******************************************************************************/
 124:Generated_Source\PSoC4/BLE_dis.c **** CYBLE_API_RESULT_T CyBle_DissSetCharacteristicValue(CYBLE_DIS_CHAR_INDEX_T charIndex, uint8 attrSiz
 125:Generated_Source\PSoC4/BLE_dis.c **** {
  92              		.loc 1 125 0
  93              		.cfi_startproc
  94 0000 80B5     		push	{r7, lr}
  95              		.cfi_def_cfa_offset 8
  96              		.cfi_offset 7, -8
  97              		.cfi_offset 14, -4
  98 0002 86B0     		sub	sp, sp, #24
  99              		.cfi_def_cfa_offset 32
 100 0004 00AF     		add	r7, sp, #0
 101              		.cfi_def_cfa_register 7
 102 0006 3A60     		str	r2, [r7]
 103 0008 FB1D     		add	r3, r7, #7
ARM GAS  C:\Users\akita\AppData\Local\Temp\ccUBY6iq.s 			page 5


 104 000a 021C     		add	r2, r0, #0
 105 000c 1A70     		strb	r2, [r3]
 106 000e BB1D     		add	r3, r7, #6
 107 0010 0A1C     		add	r2, r1, #0
 108 0012 1A70     		strb	r2, [r3]
 126:Generated_Source\PSoC4/BLE_dis.c ****     CYBLE_API_RESULT_T apiResult = CYBLE_ERROR_OK;
 109              		.loc 1 126 0
 110 0014 1623     		mov	r3, #22
 111 0016 FB18     		add	r3, r7, r3
 112 0018 0022     		mov	r2, #0
 113 001a 1A80     		strh	r2, [r3]
 127:Generated_Source\PSoC4/BLE_dis.c ****     CYBLE_GATT_HANDLE_VALUE_PAIR_T locHandleValuePair;
 128:Generated_Source\PSoC4/BLE_dis.c **** 
 129:Generated_Source\PSoC4/BLE_dis.c ****     if(charIndex >= CYBLE_DIS_CHAR_COUNT)
 114              		.loc 1 129 0
 115 001c FB1D     		add	r3, r7, #7
 116 001e 1B78     		ldrb	r3, [r3]
 117 0020 082B     		cmp	r3, #8
 118 0022 04D9     		bls	.L4
 130:Generated_Source\PSoC4/BLE_dis.c ****     {
 131:Generated_Source\PSoC4/BLE_dis.c ****         apiResult = CYBLE_ERROR_INVALID_PARAMETER;
 119              		.loc 1 131 0
 120 0024 1623     		mov	r3, #22
 121 0026 FB18     		add	r3, r7, r3
 122 0028 0122     		mov	r2, #1
 123 002a 1A80     		strh	r2, [r3]
 124 002c 20E0     		b	.L5
 125              	.L4:
 132:Generated_Source\PSoC4/BLE_dis.c ****     }
 133:Generated_Source\PSoC4/BLE_dis.c ****     else
 134:Generated_Source\PSoC4/BLE_dis.c ****     {
 135:Generated_Source\PSoC4/BLE_dis.c ****         /* Store data in database */
 136:Generated_Source\PSoC4/BLE_dis.c ****         locHandleValuePair.attrHandle = cyBle_diss.charHandle[charIndex];
 126              		.loc 1 136 0
 127 002e FB1D     		add	r3, r7, #7
 128 0030 1B78     		ldrb	r3, [r3]
 129 0032 134A     		ldr	r2, .L7
 130 0034 5B00     		lsl	r3, r3, #1
 131 0036 D318     		add	r3, r2, r3
 132 0038 5A88     		ldrh	r2, [r3, #2]
 133 003a 0823     		mov	r3, #8
 134 003c FB18     		add	r3, r7, r3
 135 003e 1A81     		strh	r2, [r3, #8]
 137:Generated_Source\PSoC4/BLE_dis.c ****         locHandleValuePair.value.len = attrSize;
 136              		.loc 1 137 0
 137 0040 BB1D     		add	r3, r7, #6
 138 0042 1B78     		ldrb	r3, [r3]
 139 0044 9AB2     		uxth	r2, r3
 140 0046 0823     		mov	r3, #8
 141 0048 FB18     		add	r3, r7, r3
 142 004a 9A80     		strh	r2, [r3, #4]
 138:Generated_Source\PSoC4/BLE_dis.c ****         locHandleValuePair.value.val = attrValue;
 143              		.loc 1 138 0
 144 004c 0823     		mov	r3, #8
 145 004e FB18     		add	r3, r7, r3
 146 0050 3A68     		ldr	r2, [r7]
 147 0052 1A60     		str	r2, [r3]
ARM GAS  C:\Users\akita\AppData\Local\Temp\ccUBY6iq.s 			page 6


 139:Generated_Source\PSoC4/BLE_dis.c ****         if(CYBLE_GATT_ERR_NONE !=
 140:Generated_Source\PSoC4/BLE_dis.c ****             CyBle_GattsWriteAttributeValue(&locHandleValuePair, 0u, NULL, CYBLE_GATT_DB_LOCALLY_INI
 148              		.loc 1 140 0
 149 0054 0823     		mov	r3, #8
 150 0056 FB18     		add	r3, r7, r3
 151 0058 181C     		mov	r0, r3
 152 005a 0021     		mov	r1, #0
 153 005c 0022     		mov	r2, #0
 154 005e 0023     		mov	r3, #0
 155 0060 FFF7FEFF 		bl	CyBle_GattsWriteAttributeValue
 156 0064 031E     		sub	r3, r0, #0
 139:Generated_Source\PSoC4/BLE_dis.c ****         if(CYBLE_GATT_ERR_NONE !=
 157              		.loc 1 139 0
 158 0066 03D0     		beq	.L5
 141:Generated_Source\PSoC4/BLE_dis.c ****         {
 142:Generated_Source\PSoC4/BLE_dis.c ****             apiResult = CYBLE_ERROR_INVALID_PARAMETER;
 159              		.loc 1 142 0
 160 0068 1623     		mov	r3, #22
 161 006a FB18     		add	r3, r7, r3
 162 006c 0122     		mov	r2, #1
 163 006e 1A80     		strh	r2, [r3]
 164              	.L5:
 143:Generated_Source\PSoC4/BLE_dis.c ****         }
 144:Generated_Source\PSoC4/BLE_dis.c ****     }
 145:Generated_Source\PSoC4/BLE_dis.c ****     return (apiResult);
 165              		.loc 1 145 0
 166 0070 1623     		mov	r3, #22
 167 0072 FB18     		add	r3, r7, r3
 168 0074 1B88     		ldrh	r3, [r3]
 146:Generated_Source\PSoC4/BLE_dis.c **** }
 169              		.loc 1 146 0
 170 0076 181C     		mov	r0, r3
 171 0078 BD46     		mov	sp, r7
 172 007a 06B0     		add	sp, sp, #24
 173              		@ sp needed
 174 007c 80BD     		pop	{r7, pc}
 175              	.L8:
 176 007e C046     		.align	2
 177              	.L7:
 178 0080 00000000 		.word	cyBle_diss
 179              		.cfi_endproc
 180              	.LFE4:
 181              		.size	CyBle_DissSetCharacteristicValue, .-CyBle_DissSetCharacteristicValue
 182              		.section	.text.CyBle_DissGetCharacteristicValue,"ax",%progbits
 183              		.align	2
 184              		.global	CyBle_DissGetCharacteristicValue
 185              		.code	16
 186              		.thumb_func
 187              		.type	CyBle_DissGetCharacteristicValue, %function
 188              	CyBle_DissGetCharacteristicValue:
 189              	.LFB5:
 147:Generated_Source\PSoC4/BLE_dis.c **** 
 148:Generated_Source\PSoC4/BLE_dis.c **** 
 149:Generated_Source\PSoC4/BLE_dis.c **** /******************************************************************************
 150:Generated_Source\PSoC4/BLE_dis.c **** * Function Name: CyBle_DissGetCharacteristicValue
 151:Generated_Source\PSoC4/BLE_dis.c **** ***************************************************************************//**
 152:Generated_Source\PSoC4/BLE_dis.c **** * 
ARM GAS  C:\Users\akita\AppData\Local\Temp\ccUBY6iq.s 			page 7


 153:Generated_Source\PSoC4/BLE_dis.c **** *  Gets a characteristic value of the service, which is identified by charIndex,
 154:Generated_Source\PSoC4/BLE_dis.c **** *  from the GATT database.
 155:Generated_Source\PSoC4/BLE_dis.c **** * 
 156:Generated_Source\PSoC4/BLE_dis.c **** *  \param charIndex: The index of a service characteristic.
 157:Generated_Source\PSoC4/BLE_dis.c **** *  \param attrSize: The size of the characteristic value attribute.
 158:Generated_Source\PSoC4/BLE_dis.c **** *  \param *attrValue: The pointer to the location where characteristic value data
 159:Generated_Source\PSoC4/BLE_dis.c **** *               should be stored.
 160:Generated_Source\PSoC4/BLE_dis.c **** * 
 161:Generated_Source\PSoC4/BLE_dis.c **** * \return
 162:Generated_Source\PSoC4/BLE_dis.c **** *  Return value is of type CYBLE_API_RESULT_T.
 163:Generated_Source\PSoC4/BLE_dis.c **** *  Return value is of type CYBLE_API_RESULT_T.
 164:Generated_Source\PSoC4/BLE_dis.c **** *  * CYBLE_ERROR_OK - The request handled successfully
 165:Generated_Source\PSoC4/BLE_dis.c **** *  * CYBLE_ERROR_INVALID_PARAMETER - Validation of the input parameter failed
 166:Generated_Source\PSoC4/BLE_dis.c **** *
 167:Generated_Source\PSoC4/BLE_dis.c **** ******************************************************************************/
 168:Generated_Source\PSoC4/BLE_dis.c **** CYBLE_API_RESULT_T CyBle_DissGetCharacteristicValue(CYBLE_DIS_CHAR_INDEX_T charIndex, uint8 attrSiz
 169:Generated_Source\PSoC4/BLE_dis.c **** {
 190              		.loc 1 169 0
 191              		.cfi_startproc
 192 0000 80B5     		push	{r7, lr}
 193              		.cfi_def_cfa_offset 8
 194              		.cfi_offset 7, -8
 195              		.cfi_offset 14, -4
 196 0002 86B0     		sub	sp, sp, #24
 197              		.cfi_def_cfa_offset 32
 198 0004 00AF     		add	r7, sp, #0
 199              		.cfi_def_cfa_register 7
 200 0006 3A60     		str	r2, [r7]
 201 0008 FB1D     		add	r3, r7, #7
 202 000a 021C     		add	r2, r0, #0
 203 000c 1A70     		strb	r2, [r3]
 204 000e BB1D     		add	r3, r7, #6
 205 0010 0A1C     		add	r2, r1, #0
 206 0012 1A70     		strb	r2, [r3]
 170:Generated_Source\PSoC4/BLE_dis.c ****     CYBLE_API_RESULT_T apiResult = CYBLE_ERROR_OK;
 207              		.loc 1 170 0
 208 0014 1623     		mov	r3, #22
 209 0016 FB18     		add	r3, r7, r3
 210 0018 0022     		mov	r2, #0
 211 001a 1A80     		strh	r2, [r3]
 171:Generated_Source\PSoC4/BLE_dis.c ****     CYBLE_GATT_HANDLE_VALUE_PAIR_T locHandleValuePair;
 172:Generated_Source\PSoC4/BLE_dis.c **** 
 173:Generated_Source\PSoC4/BLE_dis.c ****     if(charIndex >= CYBLE_DIS_CHAR_COUNT)
 212              		.loc 1 173 0
 213 001c FB1D     		add	r3, r7, #7
 214 001e 1B78     		ldrb	r3, [r3]
 215 0020 082B     		cmp	r3, #8
 216 0022 04D9     		bls	.L10
 174:Generated_Source\PSoC4/BLE_dis.c ****     {
 175:Generated_Source\PSoC4/BLE_dis.c ****         apiResult = CYBLE_ERROR_INVALID_PARAMETER;
 217              		.loc 1 175 0
 218 0024 1623     		mov	r3, #22
 219 0026 FB18     		add	r3, r7, r3
 220 0028 0122     		mov	r2, #1
 221 002a 1A80     		strh	r2, [r3]
 222 002c 1FE0     		b	.L11
 223              	.L10:
ARM GAS  C:\Users\akita\AppData\Local\Temp\ccUBY6iq.s 			page 8


 176:Generated_Source\PSoC4/BLE_dis.c ****     }
 177:Generated_Source\PSoC4/BLE_dis.c ****     else
 178:Generated_Source\PSoC4/BLE_dis.c ****     {
 179:Generated_Source\PSoC4/BLE_dis.c ****         /* Read characteristic value from database */
 180:Generated_Source\PSoC4/BLE_dis.c ****         locHandleValuePair.attrHandle = cyBle_diss.charHandle[charIndex];
 224              		.loc 1 180 0
 225 002e FB1D     		add	r3, r7, #7
 226 0030 1B78     		ldrb	r3, [r3]
 227 0032 124A     		ldr	r2, .L13
 228 0034 5B00     		lsl	r3, r3, #1
 229 0036 D318     		add	r3, r2, r3
 230 0038 5A88     		ldrh	r2, [r3, #2]
 231 003a 0823     		mov	r3, #8
 232 003c FB18     		add	r3, r7, r3
 233 003e 1A81     		strh	r2, [r3, #8]
 181:Generated_Source\PSoC4/BLE_dis.c ****         locHandleValuePair.value.len = attrSize;
 234              		.loc 1 181 0
 235 0040 BB1D     		add	r3, r7, #6
 236 0042 1B78     		ldrb	r3, [r3]
 237 0044 9AB2     		uxth	r2, r3
 238 0046 0823     		mov	r3, #8
 239 0048 FB18     		add	r3, r7, r3
 240 004a 9A80     		strh	r2, [r3, #4]
 182:Generated_Source\PSoC4/BLE_dis.c ****         locHandleValuePair.value.val = attrValue;
 241              		.loc 1 182 0
 242 004c 0823     		mov	r3, #8
 243 004e FB18     		add	r3, r7, r3
 244 0050 3A68     		ldr	r2, [r7]
 245 0052 1A60     		str	r2, [r3]
 183:Generated_Source\PSoC4/BLE_dis.c ****         if(CYBLE_GATT_ERR_NONE !=
 184:Generated_Source\PSoC4/BLE_dis.c ****             CyBle_GattsReadAttributeValue(&locHandleValuePair, NULL, CYBLE_GATT_DB_LOCALLY_INITIATE
 246              		.loc 1 184 0
 247 0054 0823     		mov	r3, #8
 248 0056 FB18     		add	r3, r7, r3
 249 0058 181C     		mov	r0, r3
 250 005a 0021     		mov	r1, #0
 251 005c 0022     		mov	r2, #0
 252 005e FFF7FEFF 		bl	CyBle_GattsReadAttributeValue
 253 0062 031E     		sub	r3, r0, #0
 183:Generated_Source\PSoC4/BLE_dis.c ****         if(CYBLE_GATT_ERR_NONE !=
 254              		.loc 1 183 0
 255 0064 03D0     		beq	.L11
 185:Generated_Source\PSoC4/BLE_dis.c ****         {
 186:Generated_Source\PSoC4/BLE_dis.c ****             apiResult = CYBLE_ERROR_INVALID_PARAMETER;
 256              		.loc 1 186 0
 257 0066 1623     		mov	r3, #22
 258 0068 FB18     		add	r3, r7, r3
 259 006a 0122     		mov	r2, #1
 260 006c 1A80     		strh	r2, [r3]
 261              	.L11:
 187:Generated_Source\PSoC4/BLE_dis.c ****         }
 188:Generated_Source\PSoC4/BLE_dis.c ****     }
 189:Generated_Source\PSoC4/BLE_dis.c ****     return (apiResult);
 262              		.loc 1 189 0
 263 006e 1623     		mov	r3, #22
 264 0070 FB18     		add	r3, r7, r3
 265 0072 1B88     		ldrh	r3, [r3]
ARM GAS  C:\Users\akita\AppData\Local\Temp\ccUBY6iq.s 			page 9


 190:Generated_Source\PSoC4/BLE_dis.c **** }
 266              		.loc 1 190 0
 267 0074 181C     		mov	r0, r3
 268 0076 BD46     		mov	sp, r7
 269 0078 06B0     		add	sp, sp, #24
 270              		@ sp needed
 271 007a 80BD     		pop	{r7, pc}
 272              	.L14:
 273              		.align	2
 274              	.L13:
 275 007c 00000000 		.word	cyBle_diss
 276              		.cfi_endproc
 277              	.LFE5:
 278              		.size	CyBle_DissGetCharacteristicValue, .-CyBle_DissGetCharacteristicValue
 279              		.text
 280              	.Letext0:
 281              		.file 2 "Generated_Source\\PSoC4\\cytypes.h"
 282              		.file 3 "Generated_Source\\PSoC4\\BLE_Stack.h"
 283              		.file 4 "Generated_Source\\PSoC4\\BLE_StackGatt.h"
 284              		.file 5 "Generated_Source\\PSoC4\\BLE.h"
 285              		.file 6 "Generated_Source\\PSoC4\\BLE_dis.h"