ARM GAS  C:\Users\akita\AppData\Local\Temp\ccsDjq1x.s 			page 1


   1              		.cpu cortex-m0
   2              		.fpu softvfp
   3              		.eabi_attribute 20, 1
   4              		.eabi_attribute 21, 1
   5              		.eabi_attribute 23, 3
   6              		.eabi_attribute 24, 1
   7              		.eabi_attribute 25, 1
   8              		.eabi_attribute 26, 1
   9              		.eabi_attribute 30, 6
  10              		.eabi_attribute 34, 0
  11              		.eabi_attribute 18, 4
  12              		.code	16
  13              		.file	"BLE_scps.c"
  14              		.text
  15              	.Ltext0:
  16              		.cfi_sections	.debug_frame
  17              		.bss
  18              		.align	2
  19              	CyBle_ScpsApplCallback:
  20 0000 00000000 		.space	4
  21              		.global	cyBle_scpss
  22              		.section	.rodata
  23              		.align	2
  24              		.type	cyBle_scpss, %object
  25              		.size	cyBle_scpss, 8
  26              	cyBle_scpss:
  27 0000 2D00     		.short	45
  28 0002 2F00     		.short	47
  29 0004 3100     		.short	49
  30 0006 3200     		.short	50
  31              		.section	.text.CyBle_ScpsInit,"ax",%progbits
  32              		.align	2
  33              		.global	CyBle_ScpsInit
  34              		.code	16
  35              		.thumb_func
  36              		.type	CyBle_ScpsInit, %function
  37              	CyBle_ScpsInit:
  38              	.LFB2:
  39              		.file 1 "Generated_Source\\PSoC4\\BLE_scps.c"
   1:Generated_Source\PSoC4/BLE_scps.c **** /***************************************************************************//**
   2:Generated_Source\PSoC4/BLE_scps.c **** * \file CYBLE_scps.c
   3:Generated_Source\PSoC4/BLE_scps.c **** * \version 3.20
   4:Generated_Source\PSoC4/BLE_scps.c **** * 
   5:Generated_Source\PSoC4/BLE_scps.c **** * \brief
   6:Generated_Source\PSoC4/BLE_scps.c **** *  Contains the source code for the Scan Parameter service.
   7:Generated_Source\PSoC4/BLE_scps.c **** * 
   8:Generated_Source\PSoC4/BLE_scps.c **** ********************************************************************************
   9:Generated_Source\PSoC4/BLE_scps.c **** * \copyright
  10:Generated_Source\PSoC4/BLE_scps.c **** * Copyright 2014-2016, Cypress Semiconductor Corporation.  All rights reserved.
  11:Generated_Source\PSoC4/BLE_scps.c **** * You may use this file only in accordance with the license, terms, conditions,
  12:Generated_Source\PSoC4/BLE_scps.c **** * disclaimers, and limitations in the end user license agreement accompanying
  13:Generated_Source\PSoC4/BLE_scps.c **** * the software package with which this file was provided.
  14:Generated_Source\PSoC4/BLE_scps.c **** *******************************************************************************/
  15:Generated_Source\PSoC4/BLE_scps.c **** 
  16:Generated_Source\PSoC4/BLE_scps.c **** 
  17:Generated_Source\PSoC4/BLE_scps.c **** #include "BLE_eventHandler.h"
  18:Generated_Source\PSoC4/BLE_scps.c **** 
ARM GAS  C:\Users\akita\AppData\Local\Temp\ccsDjq1x.s 			page 2


  19:Generated_Source\PSoC4/BLE_scps.c **** static CYBLE_CALLBACK_T CyBle_ScpsApplCallback = NULL;
  20:Generated_Source\PSoC4/BLE_scps.c **** 
  21:Generated_Source\PSoC4/BLE_scps.c **** #ifdef CYBLE_SCPS_SERVER
  22:Generated_Source\PSoC4/BLE_scps.c **** 
  23:Generated_Source\PSoC4/BLE_scps.c **** const CYBLE_SCPSS_T cyBle_scpss =
  24:Generated_Source\PSoC4/BLE_scps.c **** {
  25:Generated_Source\PSoC4/BLE_scps.c ****     0x002Du,    /* Handle of the SCPS service */
  26:Generated_Source\PSoC4/BLE_scps.c ****     0x002Fu,    /* Handle of the Scan Interval Window  characteristic */
  27:Generated_Source\PSoC4/BLE_scps.c ****     0x0031u,    /* Handle of the Scan Refresh characteristic */
  28:Generated_Source\PSoC4/BLE_scps.c ****     0x0032u,    /* Handle of the Client Characteristic Configuration descriptor */
  29:Generated_Source\PSoC4/BLE_scps.c **** };
  30:Generated_Source\PSoC4/BLE_scps.c **** 
  31:Generated_Source\PSoC4/BLE_scps.c **** #endif /* CYBLE_SCPS_SERVER */
  32:Generated_Source\PSoC4/BLE_scps.c **** 
  33:Generated_Source\PSoC4/BLE_scps.c **** #ifdef CYBLE_SCPS_CLIENT
  34:Generated_Source\PSoC4/BLE_scps.c **** 
  35:Generated_Source\PSoC4/BLE_scps.c **** CYBLE_SCPSC_T cyBle_scpsc;
  36:Generated_Source\PSoC4/BLE_scps.c **** static CYBLE_GATT_DB_ATTR_HANDLE_T cyBle_scpscReqHandle;
  37:Generated_Source\PSoC4/BLE_scps.c **** 
  38:Generated_Source\PSoC4/BLE_scps.c **** #endif /* CYBLE_SCPS_SERVER */
  39:Generated_Source\PSoC4/BLE_scps.c **** 
  40:Generated_Source\PSoC4/BLE_scps.c **** /******************************************************************************
  41:Generated_Source\PSoC4/BLE_scps.c **** * Function Name: CyBle_ScpsInit
  42:Generated_Source\PSoC4/BLE_scps.c **** ***************************************************************************//**
  43:Generated_Source\PSoC4/BLE_scps.c **** * 
  44:Generated_Source\PSoC4/BLE_scps.c **** *  This function initializes the SCPS Service.
  45:Generated_Source\PSoC4/BLE_scps.c **** *  
  46:Generated_Source\PSoC4/BLE_scps.c **** ******************************************************************************/
  47:Generated_Source\PSoC4/BLE_scps.c **** void CyBle_ScpsInit(void)
  48:Generated_Source\PSoC4/BLE_scps.c **** {
  40              		.loc 1 48 0
  41              		.cfi_startproc
  42 0000 80B5     		push	{r7, lr}
  43              		.cfi_def_cfa_offset 8
  44              		.cfi_offset 7, -8
  45              		.cfi_offset 14, -4
  46 0002 00AF     		add	r7, sp, #0
  47              		.cfi_def_cfa_register 7
  49:Generated_Source\PSoC4/BLE_scps.c **** 
  50:Generated_Source\PSoC4/BLE_scps.c **** #ifdef CYBLE_SCPS_CLIENT
  51:Generated_Source\PSoC4/BLE_scps.c ****     if(cyBle_serverInfo[CYBLE_SRVI_SCPS].range.startHandle == CYBLE_GATT_INVALID_ATTR_HANDLE_VALUE)
  52:Generated_Source\PSoC4/BLE_scps.c ****     {
  53:Generated_Source\PSoC4/BLE_scps.c ****         (void)memset(&cyBle_scpsc, 0, sizeof(cyBle_scpsc));
  54:Generated_Source\PSoC4/BLE_scps.c ****     }
  55:Generated_Source\PSoC4/BLE_scps.c ****     cyBle_scpscReqHandle = CYBLE_GATT_INVALID_ATTR_HANDLE_VALUE;
  56:Generated_Source\PSoC4/BLE_scps.c **** #endif /* CYBLE_SCPS_CLIENT */
  57:Generated_Source\PSoC4/BLE_scps.c **** }
  48              		.loc 1 57 0
  49 0004 BD46     		mov	sp, r7
  50              		@ sp needed
  51 0006 80BD     		pop	{r7, pc}
  52              		.cfi_endproc
  53              	.LFE2:
  54              		.size	CyBle_ScpsInit, .-CyBle_ScpsInit
  55              		.section	.text.CyBle_ScpsRegisterAttrCallback,"ax",%progbits
  56              		.align	2
  57              		.global	CyBle_ScpsRegisterAttrCallback
ARM GAS  C:\Users\akita\AppData\Local\Temp\ccsDjq1x.s 			page 3


  58              		.code	16
  59              		.thumb_func
  60              		.type	CyBle_ScpsRegisterAttrCallback, %function
  61              	CyBle_ScpsRegisterAttrCallback:
  62              	.LFB3:
  58:Generated_Source\PSoC4/BLE_scps.c **** 
  59:Generated_Source\PSoC4/BLE_scps.c **** 
  60:Generated_Source\PSoC4/BLE_scps.c **** /******************************************************************************
  61:Generated_Source\PSoC4/BLE_scps.c **** * Function Name: CyBle_ScpsRegisterAttrCallback
  62:Generated_Source\PSoC4/BLE_scps.c **** ***************************************************************************//**
  63:Generated_Source\PSoC4/BLE_scps.c **** * 
  64:Generated_Source\PSoC4/BLE_scps.c **** *  Registers a callback function for service specific attribute operations.
  65:Generated_Source\PSoC4/BLE_scps.c **** *  Service specific write requests from peer device will not be handled with
  66:Generated_Source\PSoC4/BLE_scps.c **** *  unregistered callback function.
  67:Generated_Source\PSoC4/BLE_scps.c **** * 
  68:Generated_Source\PSoC4/BLE_scps.c **** *  \param callbackFunc:  An application layer event callback function to receive 
  69:Generated_Source\PSoC4/BLE_scps.c **** *                     events from the BLE Component. The definition of 
  70:Generated_Source\PSoC4/BLE_scps.c **** *                     CYBLE_CALLBACK_T for ScPS is: \n
  71:Generated_Source\PSoC4/BLE_scps.c **** *                     typedef void (* CYBLE_CALLBACK_T) (uint32 eventCode, 
  72:Generated_Source\PSoC4/BLE_scps.c **** *                                                       void *eventParam)
  73:Generated_Source\PSoC4/BLE_scps.c **** *                     * eventCode indicates the event that triggered this 
  74:Generated_Source\PSoC4/BLE_scps.c **** *                       callback.
  75:Generated_Source\PSoC4/BLE_scps.c **** *                     * eventParam contains the parameters corresponding to the 
  76:Generated_Source\PSoC4/BLE_scps.c **** *                       current event.
  77:Generated_Source\PSoC4/BLE_scps.c **** * 
  78:Generated_Source\PSoC4/BLE_scps.c **** ******************************************************************************/
  79:Generated_Source\PSoC4/BLE_scps.c **** void CyBle_ScpsRegisterAttrCallback(CYBLE_CALLBACK_T callbackFunc)
  80:Generated_Source\PSoC4/BLE_scps.c **** {
  63              		.loc 1 80 0
  64              		.cfi_startproc
  65 0000 80B5     		push	{r7, lr}
  66              		.cfi_def_cfa_offset 8
  67              		.cfi_offset 7, -8
  68              		.cfi_offset 14, -4
  69 0002 82B0     		sub	sp, sp, #8
  70              		.cfi_def_cfa_offset 16
  71 0004 00AF     		add	r7, sp, #0
  72              		.cfi_def_cfa_register 7
  73 0006 7860     		str	r0, [r7, #4]
  81:Generated_Source\PSoC4/BLE_scps.c ****     CyBle_ScpsApplCallback = callbackFunc;
  74              		.loc 1 81 0
  75 0008 024B     		ldr	r3, .L3
  76 000a 7A68     		ldr	r2, [r7, #4]
  77 000c 1A60     		str	r2, [r3]
  82:Generated_Source\PSoC4/BLE_scps.c **** }
  78              		.loc 1 82 0
  79 000e BD46     		mov	sp, r7
  80 0010 02B0     		add	sp, sp, #8
  81              		@ sp needed
  82 0012 80BD     		pop	{r7, pc}
  83              	.L4:
  84              		.align	2
  85              	.L3:
  86 0014 00000000 		.word	CyBle_ScpsApplCallback
  87              		.cfi_endproc
  88              	.LFE3:
  89              		.size	CyBle_ScpsRegisterAttrCallback, .-CyBle_ScpsRegisterAttrCallback
ARM GAS  C:\Users\akita\AppData\Local\Temp\ccsDjq1x.s 			page 4


  90              		.section	.text.CyBle_ScpssSetCharacteristicValue,"ax",%progbits
  91              		.align	2
  92              		.global	CyBle_ScpssSetCharacteristicValue
  93              		.code	16
  94              		.thumb_func
  95              		.type	CyBle_ScpssSetCharacteristicValue, %function
  96              	CyBle_ScpssSetCharacteristicValue:
  97              	.LFB4:
  83:Generated_Source\PSoC4/BLE_scps.c **** 
  84:Generated_Source\PSoC4/BLE_scps.c **** #ifdef CYBLE_SCPS_SERVER
  85:Generated_Source\PSoC4/BLE_scps.c **** 
  86:Generated_Source\PSoC4/BLE_scps.c **** 
  87:Generated_Source\PSoC4/BLE_scps.c **** /******************************************************************************
  88:Generated_Source\PSoC4/BLE_scps.c **** * Function Name: CyBle_ScpssSetCharacteristicValue
  89:Generated_Source\PSoC4/BLE_scps.c **** ***************************************************************************//**
  90:Generated_Source\PSoC4/BLE_scps.c **** * 
  91:Generated_Source\PSoC4/BLE_scps.c **** *  Sets a characteristic value of the Scan Parameters service, which is 
  92:Generated_Source\PSoC4/BLE_scps.c **** *  identified by charIndex.
  93:Generated_Source\PSoC4/BLE_scps.c **** * 
  94:Generated_Source\PSoC4/BLE_scps.c **** *  \param charIndex: The index of the service characteristic.
  95:Generated_Source\PSoC4/BLE_scps.c **** *              * CYBLE_SCPS_SCAN_INT_WIN - The Scan Interval Window characteristic index
  96:Generated_Source\PSoC4/BLE_scps.c **** *              * CYBLE_SCPS_SCAN_REFRESH - The Scan Refresh characteristic index
  97:Generated_Source\PSoC4/BLE_scps.c **** * 
  98:Generated_Source\PSoC4/BLE_scps.c **** *  \param attrSize: The size of the characteristic value attribute.
  99:Generated_Source\PSoC4/BLE_scps.c **** * 
 100:Generated_Source\PSoC4/BLE_scps.c **** *  \param attrValue: The pointer to the characteristic value data that should be 
 101:Generated_Source\PSoC4/BLE_scps.c **** *               stored to the GATT database.
 102:Generated_Source\PSoC4/BLE_scps.c **** * 
 103:Generated_Source\PSoC4/BLE_scps.c **** * \return
 104:Generated_Source\PSoC4/BLE_scps.c **** *  Return value is of type CYBLE_API_RESULT_T.
 105:Generated_Source\PSoC4/BLE_scps.c **** *   * CYBLE_ERROR_OK - The request handled successfully
 106:Generated_Source\PSoC4/BLE_scps.c **** *   * CYBLE_ERROR_INVALID_PARAMETER - Validation of the input parameter failed
 107:Generated_Source\PSoC4/BLE_scps.c **** *   * CYBLE_ERROR_GATT_DB_INVALID_ATTR_HANDLE - An optional characteristic is absent
 108:Generated_Source\PSoC4/BLE_scps.c **** *
 109:Generated_Source\PSoC4/BLE_scps.c **** ******************************************************************************/
 110:Generated_Source\PSoC4/BLE_scps.c **** CYBLE_API_RESULT_T CyBle_ScpssSetCharacteristicValue(CYBLE_SCPS_CHAR_INDEX_T charIndex,
 111:Generated_Source\PSoC4/BLE_scps.c ****     uint8 attrSize, uint8 *attrValue)
 112:Generated_Source\PSoC4/BLE_scps.c **** {
  98              		.loc 1 112 0
  99              		.cfi_startproc
 100 0000 90B5     		push	{r4, r7, lr}
 101              		.cfi_def_cfa_offset 12
 102              		.cfi_offset 4, -12
 103              		.cfi_offset 7, -8
 104              		.cfi_offset 14, -4
 105 0002 89B0     		sub	sp, sp, #36
 106              		.cfi_def_cfa_offset 48
 107 0004 00AF     		add	r7, sp, #0
 108              		.cfi_def_cfa_register 7
 109 0006 3A60     		str	r2, [r7]
 110 0008 FB1D     		add	r3, r7, #7
 111 000a 021C     		add	r2, r0, #0
 112 000c 1A70     		strb	r2, [r3]
 113 000e BB1D     		add	r3, r7, #6
 114 0010 0A1C     		add	r2, r1, #0
 115 0012 1A70     		strb	r2, [r3]
 113:Generated_Source\PSoC4/BLE_scps.c ****     CYBLE_API_RESULT_T apiResult = CYBLE_ERROR_OK;
ARM GAS  C:\Users\akita\AppData\Local\Temp\ccsDjq1x.s 			page 5


 116              		.loc 1 113 0
 117 0014 1E23     		mov	r3, #30
 118 0016 FB18     		add	r3, r7, r3
 119 0018 0022     		mov	r2, #0
 120 001a 1A80     		strh	r2, [r3]
 114:Generated_Source\PSoC4/BLE_scps.c ****     CYBLE_GATT_DB_ATTR_HANDLE_T charValueHandle;
 115:Generated_Source\PSoC4/BLE_scps.c ****     CYBLE_GATT_HANDLE_VALUE_PAIR_T locHandleValuePair;
 116:Generated_Source\PSoC4/BLE_scps.c ****     uint16 scanInterval;
 117:Generated_Source\PSoC4/BLE_scps.c ****     uint16 locScanWindow;
 118:Generated_Source\PSoC4/BLE_scps.c **** 
 119:Generated_Source\PSoC4/BLE_scps.c ****     if(charIndex >= CYBLE_SCPS_CHAR_COUNT)
 121              		.loc 1 119 0
 122 001c FB1D     		add	r3, r7, #7
 123 001e 1B78     		ldrb	r3, [r3]
 124 0020 012B     		cmp	r3, #1
 125 0022 04D9     		bls	.L6
 120:Generated_Source\PSoC4/BLE_scps.c ****     {
 121:Generated_Source\PSoC4/BLE_scps.c ****         apiResult = CYBLE_ERROR_INVALID_PARAMETER;
 126              		.loc 1 121 0
 127 0024 1E23     		mov	r3, #30
 128 0026 FB18     		add	r3, r7, r3
 129 0028 0122     		mov	r2, #1
 130 002a 1A80     		strh	r2, [r3]
 131 002c 48E0     		b	.L7
 132              	.L6:
 122:Generated_Source\PSoC4/BLE_scps.c ****     }
 123:Generated_Source\PSoC4/BLE_scps.c ****     else
 124:Generated_Source\PSoC4/BLE_scps.c ****     {
 125:Generated_Source\PSoC4/BLE_scps.c ****         if(charIndex == CYBLE_SCPS_SCAN_INT_WIN)
 133              		.loc 1 125 0
 134 002e FB1D     		add	r3, r7, #7
 135 0030 1B78     		ldrb	r3, [r3]
 136 0032 002B     		cmp	r3, #0
 137 0034 37D1     		bne	.L8
 126:Generated_Source\PSoC4/BLE_scps.c ****         {
 127:Generated_Source\PSoC4/BLE_scps.c ****             scanInterval = CyBle_Get16ByPtr(attrValue);
 138              		.loc 1 127 0
 139 0036 1A23     		mov	r3, #26
 140 0038 FC18     		add	r4, r7, r3
 141 003a 3B68     		ldr	r3, [r7]
 142 003c 181C     		mov	r0, r3
 143 003e FFF7FEFF 		bl	CyBle_Get16ByPtr
 144 0042 031C     		mov	r3, r0
 145 0044 2380     		strh	r3, [r4]
 128:Generated_Source\PSoC4/BLE_scps.c ****             locScanWindow = CyBle_Get16ByPtr(attrValue + sizeof(scanInterval));
 146              		.loc 1 128 0
 147 0046 3B68     		ldr	r3, [r7]
 148 0048 0233     		add	r3, r3, #2
 149 004a 1822     		mov	r2, #24
 150 004c BC18     		add	r4, r7, r2
 151 004e 181C     		mov	r0, r3
 152 0050 FFF7FEFF 		bl	CyBle_Get16ByPtr
 153 0054 031C     		mov	r3, r0
 154 0056 2380     		strh	r3, [r4]
 129:Generated_Source\PSoC4/BLE_scps.c ****             if( (scanInterval < CYBLE_SCAN_INTERVAL_WINDOW_MIN) ||
 155              		.loc 1 129 0
 156 0058 1A23     		mov	r3, #26
ARM GAS  C:\Users\akita\AppData\Local\Temp\ccsDjq1x.s 			page 6


 157 005a FB18     		add	r3, r7, r3
 158 005c 1B88     		ldrh	r3, [r3]
 159 005e 032B     		cmp	r3, #3
 160 0060 17D9     		bls	.L9
 161              		.loc 1 129 0 is_stmt 0 discriminator 1
 162 0062 1A23     		mov	r3, #26
 163 0064 FB18     		add	r3, r7, r3
 164 0066 1A88     		ldrh	r2, [r3]
 165 0068 8023     		mov	r3, #128
 166 006a DB01     		lsl	r3, r3, #7
 167 006c 9A42     		cmp	r2, r3
 168 006e 10D8     		bhi	.L9
 130:Generated_Source\PSoC4/BLE_scps.c ****                 (scanInterval > CYBLE_SCAN_INTERVAL_WINDOW_MAX) ||
 169              		.loc 1 130 0 is_stmt 1
 170 0070 1823     		mov	r3, #24
 171 0072 FB18     		add	r3, r7, r3
 172 0074 1B88     		ldrh	r3, [r3]
 173 0076 032B     		cmp	r3, #3
 174 0078 0BD9     		bls	.L9
 131:Generated_Source\PSoC4/BLE_scps.c ****                 (locScanWindow < CYBLE_SCAN_INTERVAL_WINDOW_MIN) || (locScanWindow > scanInterval) 
 175              		.loc 1 131 0
 176 007a 1823     		mov	r3, #24
 177 007c FA18     		add	r2, r7, r3
 178 007e 1A23     		mov	r3, #26
 179 0080 FB18     		add	r3, r7, r3
 180 0082 1288     		ldrh	r2, [r2]
 181 0084 1B88     		ldrh	r3, [r3]
 182 0086 9A42     		cmp	r2, r3
 183 0088 03D8     		bhi	.L9
 184              		.loc 1 131 0 is_stmt 0 discriminator 1
 185 008a BB1D     		add	r3, r7, #6
 186 008c 1B78     		ldrb	r3, [r3]
 187 008e 042B     		cmp	r3, #4
 188 0090 04D9     		bls	.L10
 189              	.L9:
 132:Generated_Source\PSoC4/BLE_scps.c ****                 (attrSize > CYBLE_INTERVAL_WINDOW_CHAR_LEN) )
 133:Generated_Source\PSoC4/BLE_scps.c ****             {
 134:Generated_Source\PSoC4/BLE_scps.c ****                 apiResult = CYBLE_ERROR_INVALID_PARAMETER;
 190              		.loc 1 134 0 is_stmt 1
 191 0092 1E23     		mov	r3, #30
 192 0094 FB18     		add	r3, r7, r3
 193 0096 0122     		mov	r2, #1
 194 0098 1A80     		strh	r2, [r3]
 195 009a 11E0     		b	.L7
 196              	.L10:
 135:Generated_Source\PSoC4/BLE_scps.c ****             }
 136:Generated_Source\PSoC4/BLE_scps.c ****             else
 137:Generated_Source\PSoC4/BLE_scps.c ****             {
 138:Generated_Source\PSoC4/BLE_scps.c ****                 charValueHandle = cyBle_scpss.intervalWindowCharHandle;
 197              		.loc 1 138 0
 198 009c 1C23     		mov	r3, #28
 199 009e FB18     		add	r3, r7, r3
 200 00a0 2F22     		mov	r2, #47
 201 00a2 1A80     		strh	r2, [r3]
 202 00a4 0CE0     		b	.L7
 203              	.L8:
 139:Generated_Source\PSoC4/BLE_scps.c ****             }
ARM GAS  C:\Users\akita\AppData\Local\Temp\ccsDjq1x.s 			page 7


 140:Generated_Source\PSoC4/BLE_scps.c ****         }
 141:Generated_Source\PSoC4/BLE_scps.c ****         else    /* Scan Refresh characteristic */
 142:Generated_Source\PSoC4/BLE_scps.c ****         {
 143:Generated_Source\PSoC4/BLE_scps.c ****             if(attrSize > CYBLE_REFRESH_CHAR_LEN)
 204              		.loc 1 143 0
 205 00a6 BB1D     		add	r3, r7, #6
 206 00a8 1B78     		ldrb	r3, [r3]
 207 00aa 012B     		cmp	r3, #1
 208 00ac 04D9     		bls	.L12
 144:Generated_Source\PSoC4/BLE_scps.c ****             {
 145:Generated_Source\PSoC4/BLE_scps.c ****                 apiResult = CYBLE_ERROR_INVALID_PARAMETER;
 209              		.loc 1 145 0
 210 00ae 1E23     		mov	r3, #30
 211 00b0 FB18     		add	r3, r7, r3
 212 00b2 0122     		mov	r2, #1
 213 00b4 1A80     		strh	r2, [r3]
 214 00b6 03E0     		b	.L7
 215              	.L12:
 146:Generated_Source\PSoC4/BLE_scps.c ****             }
 147:Generated_Source\PSoC4/BLE_scps.c ****             else
 148:Generated_Source\PSoC4/BLE_scps.c ****             {
 149:Generated_Source\PSoC4/BLE_scps.c ****                 charValueHandle = cyBle_scpss.refreshCharHandle;
 216              		.loc 1 149 0
 217 00b8 1C23     		mov	r3, #28
 218 00ba FB18     		add	r3, r7, r3
 219 00bc 3122     		mov	r2, #49
 220 00be 1A80     		strh	r2, [r3]
 221              	.L7:
 150:Generated_Source\PSoC4/BLE_scps.c ****             }
 151:Generated_Source\PSoC4/BLE_scps.c ****         }
 152:Generated_Source\PSoC4/BLE_scps.c ****     }
 153:Generated_Source\PSoC4/BLE_scps.c ****     if(apiResult == CYBLE_ERROR_OK)
 222              		.loc 1 153 0
 223 00c0 1E23     		mov	r3, #30
 224 00c2 FB18     		add	r3, r7, r3
 225 00c4 1B88     		ldrh	r3, [r3]
 226 00c6 002B     		cmp	r3, #0
 227 00c8 27D1     		bne	.L13
 154:Generated_Source\PSoC4/BLE_scps.c ****     {
 155:Generated_Source\PSoC4/BLE_scps.c ****         if(charValueHandle == CYBLE_GATT_INVALID_ATTR_HANDLE_VALUE)
 228              		.loc 1 155 0
 229 00ca 1C23     		mov	r3, #28
 230 00cc FB18     		add	r3, r7, r3
 231 00ce 1B88     		ldrh	r3, [r3]
 232 00d0 002B     		cmp	r3, #0
 233 00d2 04D1     		bne	.L14
 156:Generated_Source\PSoC4/BLE_scps.c ****         {
 157:Generated_Source\PSoC4/BLE_scps.c ****             apiResult = CYBLE_ERROR_GATT_DB_INVALID_ATTR_HANDLE;
 234              		.loc 1 157 0
 235 00d4 1E23     		mov	r3, #30
 236 00d6 FB18     		add	r3, r7, r3
 237 00d8 1322     		mov	r2, #19
 238 00da 1A80     		strh	r2, [r3]
 239 00dc 1DE0     		b	.L13
 240              	.L14:
 158:Generated_Source\PSoC4/BLE_scps.c ****         }
 159:Generated_Source\PSoC4/BLE_scps.c ****         else
ARM GAS  C:\Users\akita\AppData\Local\Temp\ccsDjq1x.s 			page 8


 160:Generated_Source\PSoC4/BLE_scps.c ****         {
 161:Generated_Source\PSoC4/BLE_scps.c ****             /* Store data in database */
 162:Generated_Source\PSoC4/BLE_scps.c ****             locHandleValuePair.attrHandle = charValueHandle;
 241              		.loc 1 162 0
 242 00de 0C23     		mov	r3, #12
 243 00e0 FB18     		add	r3, r7, r3
 244 00e2 1C22     		mov	r2, #28
 245 00e4 BA18     		add	r2, r7, r2
 246 00e6 1288     		ldrh	r2, [r2]
 247 00e8 1A81     		strh	r2, [r3, #8]
 163:Generated_Source\PSoC4/BLE_scps.c ****             locHandleValuePair.value.len = attrSize;
 248              		.loc 1 163 0
 249 00ea BB1D     		add	r3, r7, #6
 250 00ec 1B78     		ldrb	r3, [r3]
 251 00ee 9AB2     		uxth	r2, r3
 252 00f0 0C23     		mov	r3, #12
 253 00f2 FB18     		add	r3, r7, r3
 254 00f4 9A80     		strh	r2, [r3, #4]
 164:Generated_Source\PSoC4/BLE_scps.c ****             locHandleValuePair.value.val = attrValue;
 255              		.loc 1 164 0
 256 00f6 0C23     		mov	r3, #12
 257 00f8 FB18     		add	r3, r7, r3
 258 00fa 3A68     		ldr	r2, [r7]
 259 00fc 1A60     		str	r2, [r3]
 165:Generated_Source\PSoC4/BLE_scps.c ****             if(CYBLE_GATT_ERR_NONE !=
 166:Generated_Source\PSoC4/BLE_scps.c ****                 CyBle_GattsWriteAttributeValue(&locHandleValuePair, 0u, NULL, CYBLE_GATT_DB_LOCALLY
 260              		.loc 1 166 0
 261 00fe 0C23     		mov	r3, #12
 262 0100 FB18     		add	r3, r7, r3
 263 0102 181C     		mov	r0, r3
 264 0104 0021     		mov	r1, #0
 265 0106 0022     		mov	r2, #0
 266 0108 0023     		mov	r3, #0
 267 010a FFF7FEFF 		bl	CyBle_GattsWriteAttributeValue
 268 010e 031E     		sub	r3, r0, #0
 165:Generated_Source\PSoC4/BLE_scps.c ****             if(CYBLE_GATT_ERR_NONE !=
 269              		.loc 1 165 0
 270 0110 03D0     		beq	.L13
 167:Generated_Source\PSoC4/BLE_scps.c ****             {
 168:Generated_Source\PSoC4/BLE_scps.c ****                 apiResult = CYBLE_ERROR_INVALID_PARAMETER;
 271              		.loc 1 168 0
 272 0112 1E23     		mov	r3, #30
 273 0114 FB18     		add	r3, r7, r3
 274 0116 0122     		mov	r2, #1
 275 0118 1A80     		strh	r2, [r3]
 276              	.L13:
 169:Generated_Source\PSoC4/BLE_scps.c ****             }
 170:Generated_Source\PSoC4/BLE_scps.c ****         }
 171:Generated_Source\PSoC4/BLE_scps.c ****     }
 172:Generated_Source\PSoC4/BLE_scps.c ****     return (apiResult);
 277              		.loc 1 172 0
 278 011a 1E23     		mov	r3, #30
 279 011c FB18     		add	r3, r7, r3
 280 011e 1B88     		ldrh	r3, [r3]
 173:Generated_Source\PSoC4/BLE_scps.c **** }
 281              		.loc 1 173 0
 282 0120 181C     		mov	r0, r3
ARM GAS  C:\Users\akita\AppData\Local\Temp\ccsDjq1x.s 			page 9


 283 0122 BD46     		mov	sp, r7
 284 0124 09B0     		add	sp, sp, #36
 285              		@ sp needed
 286 0126 90BD     		pop	{r4, r7, pc}
 287              		.cfi_endproc
 288              	.LFE4:
 289              		.size	CyBle_ScpssSetCharacteristicValue, .-CyBle_ScpssSetCharacteristicValue
 290              		.section	.text.CyBle_ScpssGetCharacteristicValue,"ax",%progbits
 291              		.align	2
 292              		.global	CyBle_ScpssGetCharacteristicValue
 293              		.code	16
 294              		.thumb_func
 295              		.type	CyBle_ScpssGetCharacteristicValue, %function
 296              	CyBle_ScpssGetCharacteristicValue:
 297              	.LFB5:
 174:Generated_Source\PSoC4/BLE_scps.c **** 
 175:Generated_Source\PSoC4/BLE_scps.c **** 
 176:Generated_Source\PSoC4/BLE_scps.c **** /*******************************************************************************
 177:Generated_Source\PSoC4/BLE_scps.c **** * Function Name: CyBle_ScpssGetCharacteristicValue
 178:Generated_Source\PSoC4/BLE_scps.c **** ****************************************************************************//**
 179:Generated_Source\PSoC4/BLE_scps.c **** * 
 180:Generated_Source\PSoC4/BLE_scps.c **** *  Gets a characteristic value of the Scan Parameters service, which is identified
 181:Generated_Source\PSoC4/BLE_scps.c **** *  by charIndex.
 182:Generated_Source\PSoC4/BLE_scps.c **** * 
 183:Generated_Source\PSoC4/BLE_scps.c **** *  \param charIndex: The index of the service characteristic.
 184:Generated_Source\PSoC4/BLE_scps.c **** *             * CYBLE_SCPS_SCAN_INT_WIN - The Scan Interval Window characteristic index
 185:Generated_Source\PSoC4/BLE_scps.c **** *             * CYBLE_SCPS_SCAN_REFRESH - The Scan Refresh characteristic index
 186:Generated_Source\PSoC4/BLE_scps.c **** * 
 187:Generated_Source\PSoC4/BLE_scps.c **** *  \param attrSize: The size of the characteristic value attribute.
 188:Generated_Source\PSoC4/BLE_scps.c **** * 
 189:Generated_Source\PSoC4/BLE_scps.c **** *  \param attrValue: The pointer to the location where characteristic value data 
 190:Generated_Source\PSoC4/BLE_scps.c **** *               should be stored.
 191:Generated_Source\PSoC4/BLE_scps.c **** * 
 192:Generated_Source\PSoC4/BLE_scps.c **** * \return
 193:Generated_Source\PSoC4/BLE_scps.c **** *  Return value is of type CYBLE_API_RESULT_T.
 194:Generated_Source\PSoC4/BLE_scps.c **** *  * CYBLE_ERROR_OK - The request handled successfully
 195:Generated_Source\PSoC4/BLE_scps.c **** *  * CYBLE_ERROR_INVALID_PARAMETER - Validation of the input parameter failed
 196:Generated_Source\PSoC4/BLE_scps.c **** *  * CYBLE_ERROR_GATT_DB_INVALID_ATTR_HANDLE - Optional characteristic is absent
 197:Generated_Source\PSoC4/BLE_scps.c **** *
 198:Generated_Source\PSoC4/BLE_scps.c **** *
 199:Generated_Source\PSoC4/BLE_scps.c **** *******************************************************************************/
 200:Generated_Source\PSoC4/BLE_scps.c **** CYBLE_API_RESULT_T CyBle_ScpssGetCharacteristicValue(CYBLE_SCPS_CHAR_INDEX_T charIndex,
 201:Generated_Source\PSoC4/BLE_scps.c ****     uint8 attrSize, uint8 *attrValue)
 202:Generated_Source\PSoC4/BLE_scps.c **** {
 298              		.loc 1 202 0
 299              		.cfi_startproc
 300 0000 80B5     		push	{r7, lr}
 301              		.cfi_def_cfa_offset 8
 302              		.cfi_offset 7, -8
 303              		.cfi_offset 14, -4
 304 0002 86B0     		sub	sp, sp, #24
 305              		.cfi_def_cfa_offset 32
 306 0004 00AF     		add	r7, sp, #0
 307              		.cfi_def_cfa_register 7
 308 0006 3A60     		str	r2, [r7]
 309 0008 FB1D     		add	r3, r7, #7
 310 000a 021C     		add	r2, r0, #0
ARM GAS  C:\Users\akita\AppData\Local\Temp\ccsDjq1x.s 			page 10


 311 000c 1A70     		strb	r2, [r3]
 312 000e BB1D     		add	r3, r7, #6
 313 0010 0A1C     		add	r2, r1, #0
 314 0012 1A70     		strb	r2, [r3]
 203:Generated_Source\PSoC4/BLE_scps.c ****     CYBLE_API_RESULT_T apiResult = CYBLE_ERROR_OK;
 315              		.loc 1 203 0
 316 0014 1623     		mov	r3, #22
 317 0016 FB18     		add	r3, r7, r3
 318 0018 0022     		mov	r2, #0
 319 001a 1A80     		strh	r2, [r3]
 204:Generated_Source\PSoC4/BLE_scps.c ****     CYBLE_GATT_DB_ATTR_HANDLE_T charValueHandle;
 205:Generated_Source\PSoC4/BLE_scps.c ****     CYBLE_GATT_HANDLE_VALUE_PAIR_T locHandleValuePair;
 206:Generated_Source\PSoC4/BLE_scps.c **** 
 207:Generated_Source\PSoC4/BLE_scps.c ****     if(charIndex >= CYBLE_SCPS_CHAR_COUNT)
 320              		.loc 1 207 0
 321 001c FB1D     		add	r3, r7, #7
 322 001e 1B78     		ldrb	r3, [r3]
 323 0020 012B     		cmp	r3, #1
 324 0022 04D9     		bls	.L17
 208:Generated_Source\PSoC4/BLE_scps.c ****     {
 209:Generated_Source\PSoC4/BLE_scps.c ****         apiResult = CYBLE_ERROR_INVALID_PARAMETER;
 325              		.loc 1 209 0
 326 0024 1623     		mov	r3, #22
 327 0026 FB18     		add	r3, r7, r3
 328 0028 0122     		mov	r2, #1
 329 002a 1A80     		strh	r2, [r3]
 330 002c 1EE0     		b	.L18
 331              	.L17:
 210:Generated_Source\PSoC4/BLE_scps.c ****     }
 211:Generated_Source\PSoC4/BLE_scps.c ****     else
 212:Generated_Source\PSoC4/BLE_scps.c ****     {
 213:Generated_Source\PSoC4/BLE_scps.c ****         if(charIndex == CYBLE_SCPS_SCAN_INT_WIN)
 332              		.loc 1 213 0
 333 002e FB1D     		add	r3, r7, #7
 334 0030 1B78     		ldrb	r3, [r3]
 335 0032 002B     		cmp	r3, #0
 336 0034 0DD1     		bne	.L19
 214:Generated_Source\PSoC4/BLE_scps.c ****         {
 215:Generated_Source\PSoC4/BLE_scps.c ****             if(attrSize > CYBLE_INTERVAL_WINDOW_CHAR_LEN)
 337              		.loc 1 215 0
 338 0036 BB1D     		add	r3, r7, #6
 339 0038 1B78     		ldrb	r3, [r3]
 340 003a 042B     		cmp	r3, #4
 341 003c 04D9     		bls	.L20
 216:Generated_Source\PSoC4/BLE_scps.c ****             {
 217:Generated_Source\PSoC4/BLE_scps.c ****                 apiResult = CYBLE_ERROR_INVALID_PARAMETER;
 342              		.loc 1 217 0
 343 003e 1623     		mov	r3, #22
 344 0040 FB18     		add	r3, r7, r3
 345 0042 0122     		mov	r2, #1
 346 0044 1A80     		strh	r2, [r3]
 347 0046 11E0     		b	.L18
 348              	.L20:
 218:Generated_Source\PSoC4/BLE_scps.c ****             }
 219:Generated_Source\PSoC4/BLE_scps.c ****             else
 220:Generated_Source\PSoC4/BLE_scps.c ****             {
 221:Generated_Source\PSoC4/BLE_scps.c ****                 charValueHandle = cyBle_scpss.intervalWindowCharHandle;
ARM GAS  C:\Users\akita\AppData\Local\Temp\ccsDjq1x.s 			page 11


 349              		.loc 1 221 0
 350 0048 1423     		mov	r3, #20
 351 004a FB18     		add	r3, r7, r3
 352 004c 2F22     		mov	r2, #47
 353 004e 1A80     		strh	r2, [r3]
 354 0050 0CE0     		b	.L18
 355              	.L19:
 222:Generated_Source\PSoC4/BLE_scps.c ****             }
 223:Generated_Source\PSoC4/BLE_scps.c ****         }
 224:Generated_Source\PSoC4/BLE_scps.c ****         else    /* Scan Refresh characteristic */
 225:Generated_Source\PSoC4/BLE_scps.c ****         {
 226:Generated_Source\PSoC4/BLE_scps.c ****             if(attrSize > CYBLE_REFRESH_CHAR_LEN)
 356              		.loc 1 226 0
 357 0052 BB1D     		add	r3, r7, #6
 358 0054 1B78     		ldrb	r3, [r3]
 359 0056 012B     		cmp	r3, #1
 360 0058 04D9     		bls	.L22
 227:Generated_Source\PSoC4/BLE_scps.c ****             {
 228:Generated_Source\PSoC4/BLE_scps.c ****                 apiResult = CYBLE_ERROR_INVALID_PARAMETER;
 361              		.loc 1 228 0
 362 005a 1623     		mov	r3, #22
 363 005c FB18     		add	r3, r7, r3
 364 005e 0122     		mov	r2, #1
 365 0060 1A80     		strh	r2, [r3]
 366 0062 03E0     		b	.L18
 367              	.L22:
 229:Generated_Source\PSoC4/BLE_scps.c ****             }
 230:Generated_Source\PSoC4/BLE_scps.c ****             else
 231:Generated_Source\PSoC4/BLE_scps.c ****             {
 232:Generated_Source\PSoC4/BLE_scps.c ****                 charValueHandle = cyBle_scpss.refreshCharHandle;
 368              		.loc 1 232 0
 369 0064 1423     		mov	r3, #20
 370 0066 FB18     		add	r3, r7, r3
 371 0068 3122     		mov	r2, #49
 372 006a 1A80     		strh	r2, [r3]
 373              	.L18:
 233:Generated_Source\PSoC4/BLE_scps.c ****             }
 234:Generated_Source\PSoC4/BLE_scps.c ****         }
 235:Generated_Source\PSoC4/BLE_scps.c ****     }
 236:Generated_Source\PSoC4/BLE_scps.c ****     if(apiResult == CYBLE_ERROR_OK)
 374              		.loc 1 236 0
 375 006c 1623     		mov	r3, #22
 376 006e FB18     		add	r3, r7, r3
 377 0070 1B88     		ldrh	r3, [r3]
 378 0072 002B     		cmp	r3, #0
 379 0074 26D1     		bne	.L23
 237:Generated_Source\PSoC4/BLE_scps.c ****     {
 238:Generated_Source\PSoC4/BLE_scps.c ****         if(charValueHandle == CYBLE_GATT_INVALID_ATTR_HANDLE_VALUE)
 380              		.loc 1 238 0
 381 0076 1423     		mov	r3, #20
 382 0078 FB18     		add	r3, r7, r3
 383 007a 1B88     		ldrh	r3, [r3]
 384 007c 002B     		cmp	r3, #0
 385 007e 04D1     		bne	.L24
 239:Generated_Source\PSoC4/BLE_scps.c ****         {
 240:Generated_Source\PSoC4/BLE_scps.c ****             apiResult = CYBLE_ERROR_GATT_DB_INVALID_ATTR_HANDLE;
 386              		.loc 1 240 0
ARM GAS  C:\Users\akita\AppData\Local\Temp\ccsDjq1x.s 			page 12


 387 0080 1623     		mov	r3, #22
 388 0082 FB18     		add	r3, r7, r3
 389 0084 1322     		mov	r2, #19
 390 0086 1A80     		strh	r2, [r3]
 391 0088 1CE0     		b	.L23
 392              	.L24:
 241:Generated_Source\PSoC4/BLE_scps.c ****         }
 242:Generated_Source\PSoC4/BLE_scps.c ****         else
 243:Generated_Source\PSoC4/BLE_scps.c ****         {
 244:Generated_Source\PSoC4/BLE_scps.c ****             /* Read characteristic value from database */
 245:Generated_Source\PSoC4/BLE_scps.c ****             locHandleValuePair.attrHandle = charValueHandle;
 393              		.loc 1 245 0
 394 008a 0823     		mov	r3, #8
 395 008c FB18     		add	r3, r7, r3
 396 008e 1422     		mov	r2, #20
 397 0090 BA18     		add	r2, r7, r2
 398 0092 1288     		ldrh	r2, [r2]
 399 0094 1A81     		strh	r2, [r3, #8]
 246:Generated_Source\PSoC4/BLE_scps.c ****             locHandleValuePair.value.len = attrSize;
 400              		.loc 1 246 0
 401 0096 BB1D     		add	r3, r7, #6
 402 0098 1B78     		ldrb	r3, [r3]
 403 009a 9AB2     		uxth	r2, r3
 404 009c 0823     		mov	r3, #8
 405 009e FB18     		add	r3, r7, r3
 406 00a0 9A80     		strh	r2, [r3, #4]
 247:Generated_Source\PSoC4/BLE_scps.c ****             locHandleValuePair.value.val = attrValue;
 407              		.loc 1 247 0
 408 00a2 0823     		mov	r3, #8
 409 00a4 FB18     		add	r3, r7, r3
 410 00a6 3A68     		ldr	r2, [r7]
 411 00a8 1A60     		str	r2, [r3]
 248:Generated_Source\PSoC4/BLE_scps.c ****             if(CYBLE_GATT_ERR_NONE !=
 249:Generated_Source\PSoC4/BLE_scps.c ****                 CyBle_GattsReadAttributeValue(&locHandleValuePair, NULL, CYBLE_GATT_DB_LOCALLY_INIT
 412              		.loc 1 249 0
 413 00aa 0823     		mov	r3, #8
 414 00ac FB18     		add	r3, r7, r3
 415 00ae 181C     		mov	r0, r3
 416 00b0 0021     		mov	r1, #0
 417 00b2 0022     		mov	r2, #0
 418 00b4 FFF7FEFF 		bl	CyBle_GattsReadAttributeValue
 419 00b8 031E     		sub	r3, r0, #0
 248:Generated_Source\PSoC4/BLE_scps.c ****             if(CYBLE_GATT_ERR_NONE !=
 420              		.loc 1 248 0
 421 00ba 03D0     		beq	.L23
 250:Generated_Source\PSoC4/BLE_scps.c ****             {
 251:Generated_Source\PSoC4/BLE_scps.c ****                 apiResult = CYBLE_ERROR_INVALID_PARAMETER;
 422              		.loc 1 251 0
 423 00bc 1623     		mov	r3, #22
 424 00be FB18     		add	r3, r7, r3
 425 00c0 0122     		mov	r2, #1
 426 00c2 1A80     		strh	r2, [r3]
 427              	.L23:
 252:Generated_Source\PSoC4/BLE_scps.c ****             }
 253:Generated_Source\PSoC4/BLE_scps.c ****         }
 254:Generated_Source\PSoC4/BLE_scps.c ****     }
 255:Generated_Source\PSoC4/BLE_scps.c ****     return (apiResult);
ARM GAS  C:\Users\akita\AppData\Local\Temp\ccsDjq1x.s 			page 13


 428              		.loc 1 255 0
 429 00c4 1623     		mov	r3, #22
 430 00c6 FB18     		add	r3, r7, r3
 431 00c8 1B88     		ldrh	r3, [r3]
 256:Generated_Source\PSoC4/BLE_scps.c **** }
 432              		.loc 1 256 0
 433 00ca 181C     		mov	r0, r3
 434 00cc BD46     		mov	sp, r7
 435 00ce 06B0     		add	sp, sp, #24
 436              		@ sp needed
 437 00d0 80BD     		pop	{r7, pc}
 438              		.cfi_endproc
 439              	.LFE5:
 440              		.size	CyBle_ScpssGetCharacteristicValue, .-CyBle_ScpssGetCharacteristicValue
 441              		.section	.text.CyBle_ScpssGetCharacteristicDescriptor,"ax",%progbits
 442              		.align	2
 443              		.global	CyBle_ScpssGetCharacteristicDescriptor
 444              		.code	16
 445              		.thumb_func
 446              		.type	CyBle_ScpssGetCharacteristicDescriptor, %function
 447              	CyBle_ScpssGetCharacteristicDescriptor:
 448              	.LFB6:
 257:Generated_Source\PSoC4/BLE_scps.c **** 
 258:Generated_Source\PSoC4/BLE_scps.c **** 
 259:Generated_Source\PSoC4/BLE_scps.c **** /*******************************************************************************
 260:Generated_Source\PSoC4/BLE_scps.c **** * Function Name: CyBle_ScpssGetCharacteristicDescriptor
 261:Generated_Source\PSoC4/BLE_scps.c **** ****************************************************************************//**
 262:Generated_Source\PSoC4/BLE_scps.c **** * 
 263:Generated_Source\PSoC4/BLE_scps.c **** *  Gets a characteristic descriptor of the specified characteristic of the 
 264:Generated_Source\PSoC4/BLE_scps.c **** *  Scan Parameters service.
 265:Generated_Source\PSoC4/BLE_scps.c **** * 
 266:Generated_Source\PSoC4/BLE_scps.c **** *  \param charIndex: The index of the characteristic.
 267:Generated_Source\PSoC4/BLE_scps.c **** *             * CYBLE_SCPS_SCAN_REFRESH - The Scan Refresh characteristic index
 268:Generated_Source\PSoC4/BLE_scps.c **** * 
 269:Generated_Source\PSoC4/BLE_scps.c **** *  \param descrIndex: The index of the descriptor.
 270:Generated_Source\PSoC4/BLE_scps.c **** *             * CYBLE_SCPS_SCAN_REFRESH_CCCD - The Client Characteristic 
 271:Generated_Source\PSoC4/BLE_scps.c **** *                Configuration descriptor index of the Scan Refresh characteristic
 272:Generated_Source\PSoC4/BLE_scps.c **** * 
 273:Generated_Source\PSoC4/BLE_scps.c **** *  \param attrSize: The size of the characteristic value attribute.
 274:Generated_Source\PSoC4/BLE_scps.c **** * 
 275:Generated_Source\PSoC4/BLE_scps.c **** *  \param attrValue: The pointer to the location where the characteristic descriptor
 276:Generated_Source\PSoC4/BLE_scps.c **** *               value data should be stored.
 277:Generated_Source\PSoC4/BLE_scps.c **** * 
 278:Generated_Source\PSoC4/BLE_scps.c **** * \return
 279:Generated_Source\PSoC4/BLE_scps.c **** *  Return value is of type CYBLE_API_RESULT_T.
 280:Generated_Source\PSoC4/BLE_scps.c **** *  * CYBLE_ERROR_OK - The request handled successfully
 281:Generated_Source\PSoC4/BLE_scps.c **** *  * CYBLE_ERROR_INVALID_PARAMETER - Validation of the input parameter failed
 282:Generated_Source\PSoC4/BLE_scps.c **** *  * CYBLE_ERROR_GATT_DB_INVALID_ATTR_HANDLE - Optional descriptor is absent
 283:Generated_Source\PSoC4/BLE_scps.c **** *
 284:Generated_Source\PSoC4/BLE_scps.c **** *******************************************************************************/
 285:Generated_Source\PSoC4/BLE_scps.c **** CYBLE_API_RESULT_T CyBle_ScpssGetCharacteristicDescriptor(CYBLE_SCPS_CHAR_INDEX_T charIndex,
 286:Generated_Source\PSoC4/BLE_scps.c ****     CYBLE_SCPS_DESCR_INDEX_T descrIndex, uint8 attrSize, uint8 *attrValue)
 287:Generated_Source\PSoC4/BLE_scps.c **** {
 449              		.loc 1 287 0
 450              		.cfi_startproc
 451 0000 90B5     		push	{r4, r7, lr}
 452              		.cfi_def_cfa_offset 12
ARM GAS  C:\Users\akita\AppData\Local\Temp\ccsDjq1x.s 			page 14


 453              		.cfi_offset 4, -12
 454              		.cfi_offset 7, -8
 455              		.cfi_offset 14, -4
 456 0002 87B0     		sub	sp, sp, #28
 457              		.cfi_def_cfa_offset 40
 458 0004 00AF     		add	r7, sp, #0
 459              		.cfi_def_cfa_register 7
 460 0006 041C     		mov	r4, r0
 461 0008 081C     		mov	r0, r1
 462 000a 111C     		mov	r1, r2
 463 000c 3B60     		str	r3, [r7]
 464 000e FB1D     		add	r3, r7, #7
 465 0010 221C     		add	r2, r4, #0
 466 0012 1A70     		strb	r2, [r3]
 467 0014 BB1D     		add	r3, r7, #6
 468 0016 021C     		add	r2, r0, #0
 469 0018 1A70     		strb	r2, [r3]
 470 001a 7B1D     		add	r3, r7, #5
 471 001c 0A1C     		add	r2, r1, #0
 472 001e 1A70     		strb	r2, [r3]
 288:Generated_Source\PSoC4/BLE_scps.c ****     CYBLE_API_RESULT_T apiResult = CYBLE_ERROR_OK;
 473              		.loc 1 288 0
 474 0020 1623     		mov	r3, #22
 475 0022 FB18     		add	r3, r7, r3
 476 0024 0022     		mov	r2, #0
 477 0026 1A80     		strh	r2, [r3]
 289:Generated_Source\PSoC4/BLE_scps.c ****     CYBLE_GATT_HANDLE_VALUE_PAIR_T locHandleValuePair;
 290:Generated_Source\PSoC4/BLE_scps.c **** 
 291:Generated_Source\PSoC4/BLE_scps.c ****     if((charIndex != CYBLE_SCPS_SCAN_REFRESH) || (descrIndex >= CYBLE_SCPS_DESCR_COUNT))
 478              		.loc 1 291 0
 479 0028 FB1D     		add	r3, r7, #7
 480 002a 1B78     		ldrb	r3, [r3]
 481 002c 012B     		cmp	r3, #1
 482 002e 03D1     		bne	.L27
 483              		.loc 1 291 0 is_stmt 0 discriminator 1
 484 0030 BB1D     		add	r3, r7, #6
 485 0032 1B78     		ldrb	r3, [r3]
 486 0034 002B     		cmp	r3, #0
 487 0036 04D0     		beq	.L28
 488              	.L27:
 292:Generated_Source\PSoC4/BLE_scps.c ****     {
 293:Generated_Source\PSoC4/BLE_scps.c ****         apiResult = CYBLE_ERROR_INVALID_PARAMETER;
 489              		.loc 1 293 0 is_stmt 1
 490 0038 1623     		mov	r3, #22
 491 003a FB18     		add	r3, r7, r3
 492 003c 0122     		mov	r2, #1
 493 003e 1A80     		strh	r2, [r3]
 494 0040 22E0     		b	.L29
 495              	.L28:
 294:Generated_Source\PSoC4/BLE_scps.c ****     }
 295:Generated_Source\PSoC4/BLE_scps.c ****     else
 296:Generated_Source\PSoC4/BLE_scps.c ****     {
 297:Generated_Source\PSoC4/BLE_scps.c ****         if(cyBle_scpss.refreshCccdHandle == CYBLE_GATT_INVALID_ATTR_HANDLE_VALUE)
 496              		.loc 1 297 0
 497 0042 3223     		mov	r3, #50
 498 0044 002B     		cmp	r3, #0
 499 0046 04D1     		bne	.L30
ARM GAS  C:\Users\akita\AppData\Local\Temp\ccsDjq1x.s 			page 15


 298:Generated_Source\PSoC4/BLE_scps.c ****         {
 299:Generated_Source\PSoC4/BLE_scps.c ****             apiResult = CYBLE_ERROR_GATT_DB_INVALID_ATTR_HANDLE;
 500              		.loc 1 299 0
 501 0048 1623     		mov	r3, #22
 502 004a FB18     		add	r3, r7, r3
 503 004c 1322     		mov	r2, #19
 504 004e 1A80     		strh	r2, [r3]
 505 0050 1AE0     		b	.L29
 506              	.L30:
 300:Generated_Source\PSoC4/BLE_scps.c ****         }
 301:Generated_Source\PSoC4/BLE_scps.c ****         else
 302:Generated_Source\PSoC4/BLE_scps.c ****         {
 303:Generated_Source\PSoC4/BLE_scps.c ****             /* Get data from database */
 304:Generated_Source\PSoC4/BLE_scps.c ****             locHandleValuePair.attrHandle = cyBle_scpss.refreshCccdHandle;
 507              		.loc 1 304 0
 508 0052 3222     		mov	r2, #50
 509 0054 0823     		mov	r3, #8
 510 0056 FB18     		add	r3, r7, r3
 511 0058 1A81     		strh	r2, [r3, #8]
 305:Generated_Source\PSoC4/BLE_scps.c ****             locHandleValuePair.value.len = attrSize;
 512              		.loc 1 305 0
 513 005a 7B1D     		add	r3, r7, #5
 514 005c 1B78     		ldrb	r3, [r3]
 515 005e 9AB2     		uxth	r2, r3
 516 0060 0823     		mov	r3, #8
 517 0062 FB18     		add	r3, r7, r3
 518 0064 9A80     		strh	r2, [r3, #4]
 306:Generated_Source\PSoC4/BLE_scps.c ****             locHandleValuePair.value.val = attrValue;
 519              		.loc 1 306 0
 520 0066 0823     		mov	r3, #8
 521 0068 FB18     		add	r3, r7, r3
 522 006a 3A68     		ldr	r2, [r7]
 523 006c 1A60     		str	r2, [r3]
 307:Generated_Source\PSoC4/BLE_scps.c ****             if(CYBLE_GATT_ERR_NONE !=
 308:Generated_Source\PSoC4/BLE_scps.c ****                 CyBle_GattsReadAttributeValue(&locHandleValuePair, NULL, CYBLE_GATT_DB_LOCALLY_INIT
 524              		.loc 1 308 0
 525 006e 0823     		mov	r3, #8
 526 0070 FB18     		add	r3, r7, r3
 527 0072 181C     		mov	r0, r3
 528 0074 0021     		mov	r1, #0
 529 0076 0022     		mov	r2, #0
 530 0078 FFF7FEFF 		bl	CyBle_GattsReadAttributeValue
 531 007c 031E     		sub	r3, r0, #0
 307:Generated_Source\PSoC4/BLE_scps.c ****             if(CYBLE_GATT_ERR_NONE !=
 532              		.loc 1 307 0
 533 007e 03D0     		beq	.L29
 309:Generated_Source\PSoC4/BLE_scps.c ****             {
 310:Generated_Source\PSoC4/BLE_scps.c ****                 apiResult = CYBLE_ERROR_INVALID_PARAMETER;
 534              		.loc 1 310 0
 535 0080 1623     		mov	r3, #22
 536 0082 FB18     		add	r3, r7, r3
 537 0084 0122     		mov	r2, #1
 538 0086 1A80     		strh	r2, [r3]
 539              	.L29:
 311:Generated_Source\PSoC4/BLE_scps.c ****             }
 312:Generated_Source\PSoC4/BLE_scps.c ****         }
 313:Generated_Source\PSoC4/BLE_scps.c ****     }
ARM GAS  C:\Users\akita\AppData\Local\Temp\ccsDjq1x.s 			page 16


 314:Generated_Source\PSoC4/BLE_scps.c ****     return (apiResult);
 540              		.loc 1 314 0
 541 0088 1623     		mov	r3, #22
 542 008a FB18     		add	r3, r7, r3
 543 008c 1B88     		ldrh	r3, [r3]
 315:Generated_Source\PSoC4/BLE_scps.c **** }
 544              		.loc 1 315 0
 545 008e 181C     		mov	r0, r3
 546 0090 BD46     		mov	sp, r7
 547 0092 07B0     		add	sp, sp, #28
 548              		@ sp needed
 549 0094 90BD     		pop	{r4, r7, pc}
 550              		.cfi_endproc
 551              	.LFE6:
 552              		.size	CyBle_ScpssGetCharacteristicDescriptor, .-CyBle_ScpssGetCharacteristicDescriptor
 553 0096 C046     		.section	.text.CyBle_ScpssWriteEventHandler,"ax",%progbits
 554              		.align	2
 555              		.global	CyBle_ScpssWriteEventHandler
 556              		.code	16
 557              		.thumb_func
 558              		.type	CyBle_ScpssWriteEventHandler, %function
 559              	CyBle_ScpssWriteEventHandler:
 560              	.LFB7:
 316:Generated_Source\PSoC4/BLE_scps.c **** 
 317:Generated_Source\PSoC4/BLE_scps.c **** 
 318:Generated_Source\PSoC4/BLE_scps.c **** /*******************************************************************************
 319:Generated_Source\PSoC4/BLE_scps.c **** * Function Name: CyBle_ScpssWriteEventHandler
 320:Generated_Source\PSoC4/BLE_scps.c **** ****************************************************************************//**
 321:Generated_Source\PSoC4/BLE_scps.c **** * 
 322:Generated_Source\PSoC4/BLE_scps.c **** *  Handles the Write Request Event for the service.
 323:Generated_Source\PSoC4/BLE_scps.c **** * 
 324:Generated_Source\PSoC4/BLE_scps.c **** *  \param eventParam: The pointer to the data structure specified by the event.
 325:Generated_Source\PSoC4/BLE_scps.c **** * 
 326:Generated_Source\PSoC4/BLE_scps.c **** * \return
 327:Generated_Source\PSoC4/BLE_scps.c **** *  Return value is of type CYBLE_GATT_ERR_CODE_T.
 328:Generated_Source\PSoC4/BLE_scps.c **** *   * CYBLE_GATT_ERR_NONE - Write request handled successfully.
 329:Generated_Source\PSoC4/BLE_scps.c **** *   * CYBLE_GATT_ERR_UNLIKELY_ERROR - Internal error while writing attribute value
 330:Generated_Source\PSoC4/BLE_scps.c **** * 
 331:Generated_Source\PSoC4/BLE_scps.c **** *******************************************************************************/
 332:Generated_Source\PSoC4/BLE_scps.c **** CYBLE_GATT_ERR_CODE_T CyBle_ScpssWriteEventHandler(CYBLE_GATTS_WRITE_REQ_PARAM_T *eventParam)
 333:Generated_Source\PSoC4/BLE_scps.c **** {
 561              		.loc 1 333 0
 562              		.cfi_startproc
 563 0000 90B5     		push	{r4, r7, lr}
 564              		.cfi_def_cfa_offset 12
 565              		.cfi_offset 4, -12
 566              		.cfi_offset 7, -8
 567              		.cfi_offset 14, -4
 568 0002 87B0     		sub	sp, sp, #28
 569              		.cfi_def_cfa_offset 40
 570 0004 00AF     		add	r7, sp, #0
 571              		.cfi_def_cfa_register 7
 572 0006 7860     		str	r0, [r7, #4]
 334:Generated_Source\PSoC4/BLE_scps.c ****     CYBLE_GATT_ERR_CODE_T gattErr = CYBLE_GATT_ERR_NONE;
 573              		.loc 1 334 0
 574 0008 1723     		mov	r3, #23
 575 000a FB18     		add	r3, r7, r3
ARM GAS  C:\Users\akita\AppData\Local\Temp\ccsDjq1x.s 			page 17


 576 000c 0022     		mov	r2, #0
 577 000e 1A70     		strb	r2, [r3]
 335:Generated_Source\PSoC4/BLE_scps.c ****     CYBLE_SCPS_CHAR_VALUE_T locChar;
 336:Generated_Source\PSoC4/BLE_scps.c **** 
 337:Generated_Source\PSoC4/BLE_scps.c ****     if(CyBle_ScpsApplCallback != NULL)
 578              		.loc 1 337 0
 579 0010 3D4B     		ldr	r3, .L41
 580 0012 1B68     		ldr	r3, [r3]
 581 0014 002B     		cmp	r3, #0
 582 0016 00D1     		bne	.LCB497
 583 0018 6FE0     		b	.L33	@long jump
 584              	.LCB497:
 338:Generated_Source\PSoC4/BLE_scps.c ****     {
 339:Generated_Source\PSoC4/BLE_scps.c ****         if((eventParam->handleValPair.attrHandle == cyBle_scpss.refreshCccdHandle) ||
 585              		.loc 1 339 0
 586 001a 7B68     		ldr	r3, [r7, #4]
 587 001c 9B89     		ldrh	r3, [r3, #12]
 588 001e 3222     		mov	r2, #50
 589 0020 9342     		cmp	r3, r2
 590 0022 04D0     		beq	.L34
 340:Generated_Source\PSoC4/BLE_scps.c ****            (eventParam->handleValPair.attrHandle == cyBle_scpss.intervalWindowCharHandle))
 591              		.loc 1 340 0 discriminator 1
 592 0024 7B68     		ldr	r3, [r7, #4]
 593 0026 9B89     		ldrh	r3, [r3, #12]
 594 0028 2F22     		mov	r2, #47
 339:Generated_Source\PSoC4/BLE_scps.c ****            (eventParam->handleValPair.attrHandle == cyBle_scpss.intervalWindowCharHandle))
 595              		.loc 1 339 0 discriminator 1
 596 002a 9342     		cmp	r3, r2
 597 002c 65D1     		bne	.L33
 598              	.L34:
 341:Generated_Source\PSoC4/BLE_scps.c ****         {
 342:Generated_Source\PSoC4/BLE_scps.c ****             locChar.connHandle = eventParam->connHandle;
 599              		.loc 1 342 0
 600 002e 0823     		mov	r3, #8
 601 0030 FB18     		add	r3, r7, r3
 602 0032 7A68     		ldr	r2, [r7, #4]
 603 0034 1288     		ldrh	r2, [r2]
 604 0036 1A80     		strh	r2, [r3]
 343:Generated_Source\PSoC4/BLE_scps.c ****             
 344:Generated_Source\PSoC4/BLE_scps.c ****             /* Store value to database */
 345:Generated_Source\PSoC4/BLE_scps.c ****             gattErr = CyBle_GattsWriteAttributeValue(&eventParam->handleValPair, 0u,
 605              		.loc 1 345 0
 606 0038 7B68     		ldr	r3, [r7, #4]
 607 003a 1A1D     		add	r2, r3, #4
 608 003c 7B68     		ldr	r3, [r7, #4]
 609 003e 1721     		mov	r1, #23
 610 0040 7C18     		add	r4, r7, r1
 611 0042 101C     		mov	r0, r2
 612 0044 0021     		mov	r1, #0
 613 0046 1A1C     		mov	r2, r3
 614 0048 4023     		mov	r3, #64
 615 004a FFF7FEFF 		bl	CyBle_GattsWriteAttributeValue
 616 004e 031C     		mov	r3, r0
 617 0050 2370     		strb	r3, [r4]
 346:Generated_Source\PSoC4/BLE_scps.c ****                         &eventParam->connHandle, CYBLE_GATT_DB_PEER_INITIATED);
 347:Generated_Source\PSoC4/BLE_scps.c ****             if(gattErr == CYBLE_GATT_ERR_NONE)
 618              		.loc 1 347 0
ARM GAS  C:\Users\akita\AppData\Local\Temp\ccsDjq1x.s 			page 18


 619 0052 1723     		mov	r3, #23
 620 0054 FB18     		add	r3, r7, r3
 621 0056 1B78     		ldrb	r3, [r3]
 622 0058 002B     		cmp	r3, #0
 623 005a 46D1     		bne	.L35
 348:Generated_Source\PSoC4/BLE_scps.c ****             {
 349:Generated_Source\PSoC4/BLE_scps.c ****                 /* Client Characteristic Configuration descriptor write request */
 350:Generated_Source\PSoC4/BLE_scps.c ****                 if(eventParam->handleValPair.attrHandle == cyBle_scpss.refreshCccdHandle)
 624              		.loc 1 350 0
 625 005c 7B68     		ldr	r3, [r7, #4]
 626 005e 9B89     		ldrh	r3, [r3, #12]
 627 0060 3222     		mov	r2, #50
 628 0062 9342     		cmp	r3, r2
 629 0064 2FD1     		bne	.L36
 630              	.LBB2:
 351:Generated_Source\PSoC4/BLE_scps.c ****                 {
 352:Generated_Source\PSoC4/BLE_scps.c ****                     uint32 eventCode;
 353:Generated_Source\PSoC4/BLE_scps.c ****                     locChar.charIndex = CYBLE_SCPS_SCAN_REFRESH;
 631              		.loc 1 353 0
 632 0066 0823     		mov	r3, #8
 633 0068 FB18     		add	r3, r7, r3
 634 006a 0122     		mov	r2, #1
 635 006c 9A70     		strb	r2, [r3, #2]
 354:Generated_Source\PSoC4/BLE_scps.c ****                     locChar.value = NULL;
 636              		.loc 1 354 0
 637 006e 0823     		mov	r3, #8
 638 0070 FB18     		add	r3, r7, r3
 639 0072 0022     		mov	r2, #0
 640 0074 5A60     		str	r2, [r3, #4]
 355:Generated_Source\PSoC4/BLE_scps.c ****                     
 356:Generated_Source\PSoC4/BLE_scps.c ****                     if(CYBLE_IS_NOTIFICATION_ENABLED_IN_PTR(eventParam->handleValPair.value.val))
 641              		.loc 1 356 0
 642 0076 7B68     		ldr	r3, [r7, #4]
 643 0078 5B68     		ldr	r3, [r3, #4]
 644 007a 181C     		mov	r0, r3
 645 007c FFF7FEFF 		bl	CyBle_Get16ByPtr
 646 0080 031C     		mov	r3, r0
 647 0082 1A1C     		mov	r2, r3
 648 0084 0123     		mov	r3, #1
 649 0086 1340     		and	r3, r2
 650 0088 9BB2     		uxth	r3, r3
 651 008a 002B     		cmp	r3, #0
 652 008c 03D0     		beq	.L37
 357:Generated_Source\PSoC4/BLE_scps.c ****                     {
 358:Generated_Source\PSoC4/BLE_scps.c ****                         eventCode = (uint32)CYBLE_EVT_SCPSS_NOTIFICATION_ENABLED;
 653              		.loc 1 358 0
 654 008e F423     		mov	r3, #244
 655 0090 5B00     		lsl	r3, r3, #1
 656 0092 3B61     		str	r3, [r7, #16]
 657 0094 02E0     		b	.L38
 658              	.L37:
 359:Generated_Source\PSoC4/BLE_scps.c ****                     }
 360:Generated_Source\PSoC4/BLE_scps.c ****                     else
 361:Generated_Source\PSoC4/BLE_scps.c ****                     {
 362:Generated_Source\PSoC4/BLE_scps.c ****                         eventCode = (uint32)CYBLE_EVT_SCPSS_NOTIFICATION_DISABLED;
 659              		.loc 1 362 0
 660 0096 EA23     		mov	r3, #234
ARM GAS  C:\Users\akita\AppData\Local\Temp\ccsDjq1x.s 			page 19


 661 0098 FF33     		add	r3, r3, #255
 662 009a 3B61     		str	r3, [r7, #16]
 663              	.L38:
 363:Generated_Source\PSoC4/BLE_scps.c ****                     }
 364:Generated_Source\PSoC4/BLE_scps.c ****                     CyBle_ScpsApplCallback(eventCode, &locChar);
 664              		.loc 1 364 0
 665 009c 1A4B     		ldr	r3, .L41
 666 009e 1B68     		ldr	r3, [r3]
 667 00a0 3969     		ldr	r1, [r7, #16]
 668 00a2 0822     		mov	r2, #8
 669 00a4 BA18     		add	r2, r7, r2
 670 00a6 081C     		mov	r0, r1
 671 00a8 111C     		mov	r1, r2
 672 00aa 9847     		blx	r3
 365:Generated_Source\PSoC4/BLE_scps.c ****                     
 366:Generated_Source\PSoC4/BLE_scps.c ****                 #if((CYBLE_GAP_ROLE_PERIPHERAL || CYBLE_GAP_ROLE_CENTRAL) && (CYBLE_BONDING_REQUIRE
 367:Generated_Source\PSoC4/BLE_scps.c ****                     /* Set flag to store bonding data to flash */
 368:Generated_Source\PSoC4/BLE_scps.c ****                     if(cyBle_peerBonding == CYBLE_GAP_BONDING)
 673              		.loc 1 368 0
 674 00ac 174B     		ldr	r3, .L41+4
 675 00ae 1B78     		ldrb	r3, [r3]
 676 00b0 012B     		cmp	r3, #1
 677 00b2 07D1     		bne	.L39
 369:Generated_Source\PSoC4/BLE_scps.c ****                     {
 370:Generated_Source\PSoC4/BLE_scps.c ****                         cyBle_pendingFlashWrite |= CYBLE_PENDING_CCCD_FLASH_WRITE_BIT;
 678              		.loc 1 370 0
 679 00b4 164B     		ldr	r3, .L41+8
 680 00b6 1B78     		ldrb	r3, [r3]
 681 00b8 0222     		mov	r2, #2
 682 00ba 1343     		orr	r3, r2
 683 00bc DAB2     		uxtb	r2, r3
 684 00be 144B     		ldr	r3, .L41+8
 685 00c0 1A70     		strb	r2, [r3]
 686              	.LBE2:
 687 00c2 12E0     		b	.L35
 688              	.L39:
 689 00c4 11E0     		b	.L35
 690              	.L36:
 371:Generated_Source\PSoC4/BLE_scps.c ****                     }
 372:Generated_Source\PSoC4/BLE_scps.c ****                 #endif /* (CYBLE_BONDING_REQUIREMENT == CYBLE_BONDING_YES) */
 373:Generated_Source\PSoC4/BLE_scps.c ****                     
 374:Generated_Source\PSoC4/BLE_scps.c ****                 }
 375:Generated_Source\PSoC4/BLE_scps.c ****                 else /* Scan Interval Window characteristic write without response request */
 376:Generated_Source\PSoC4/BLE_scps.c ****                 {
 377:Generated_Source\PSoC4/BLE_scps.c ****                     locChar.charIndex = CYBLE_SCPS_SCAN_INT_WIN;
 691              		.loc 1 377 0
 692 00c6 0823     		mov	r3, #8
 693 00c8 FB18     		add	r3, r7, r3
 694 00ca 0022     		mov	r2, #0
 695 00cc 9A70     		strb	r2, [r3, #2]
 378:Generated_Source\PSoC4/BLE_scps.c ****                     locChar.value = &eventParam->handleValPair.value;
 696              		.loc 1 378 0
 697 00ce 7B68     		ldr	r3, [r7, #4]
 698 00d0 1A1D     		add	r2, r3, #4
 699 00d2 0823     		mov	r3, #8
 700 00d4 FB18     		add	r3, r7, r3
 701 00d6 5A60     		str	r2, [r3, #4]
ARM GAS  C:\Users\akita\AppData\Local\Temp\ccsDjq1x.s 			page 20


 379:Generated_Source\PSoC4/BLE_scps.c ****                     CyBle_ScpsApplCallback((uint32)CYBLE_EVT_SCPSS_SCAN_INT_WIN_CHAR_WRITE, &locCha
 702              		.loc 1 379 0
 703 00d8 0B4B     		ldr	r3, .L41
 704 00da 1B68     		ldr	r3, [r3]
 705 00dc F522     		mov	r2, #245
 706 00de 5100     		lsl	r1, r2, #1
 707 00e0 0822     		mov	r2, #8
 708 00e2 BA18     		add	r2, r7, r2
 709 00e4 081C     		mov	r0, r1
 710 00e6 111C     		mov	r1, r2
 711 00e8 9847     		blx	r3
 712              	.L35:
 380:Generated_Source\PSoC4/BLE_scps.c ****                 }
 381:Generated_Source\PSoC4/BLE_scps.c ****             }
 382:Generated_Source\PSoC4/BLE_scps.c ****             cyBle_eventHandlerFlag &= (uint8)~CYBLE_CALLBACK;
 713              		.loc 1 382 0
 714 00ea 0A4B     		ldr	r3, .L41+12
 715 00ec 1B78     		ldrb	r3, [r3]
 716 00ee DBB2     		uxtb	r3, r3
 717 00f0 0122     		mov	r2, #1
 718 00f2 9343     		bic	r3, r2
 719 00f4 DAB2     		uxtb	r2, r3
 720 00f6 074B     		ldr	r3, .L41+12
 721 00f8 1A70     		strb	r2, [r3]
 722              	.L33:
 383:Generated_Source\PSoC4/BLE_scps.c ****         }
 384:Generated_Source\PSoC4/BLE_scps.c ****     }
 385:Generated_Source\PSoC4/BLE_scps.c ****     return (gattErr);
 723              		.loc 1 385 0
 724 00fa 1723     		mov	r3, #23
 725 00fc FB18     		add	r3, r7, r3
 726 00fe 1B78     		ldrb	r3, [r3]
 386:Generated_Source\PSoC4/BLE_scps.c **** }
 727              		.loc 1 386 0
 728 0100 181C     		mov	r0, r3
 729 0102 BD46     		mov	sp, r7
 730 0104 07B0     		add	sp, sp, #28
 731              		@ sp needed
 732 0106 90BD     		pop	{r4, r7, pc}
 733              	.L42:
 734              		.align	2
 735              	.L41:
 736 0108 00000000 		.word	CyBle_ScpsApplCallback
 737 010c 00000000 		.word	cyBle_peerBonding
 738 0110 00000000 		.word	cyBle_pendingFlashWrite
 739 0114 00000000 		.word	cyBle_eventHandlerFlag
 740              		.cfi_endproc
 741              	.LFE7:
 742              		.size	CyBle_ScpssWriteEventHandler, .-CyBle_ScpssWriteEventHandler
 743              		.section	.text.CyBle_ScpssSendNotification,"ax",%progbits
 744              		.align	2
 745              		.global	CyBle_ScpssSendNotification
 746              		.code	16
 747              		.thumb_func
 748              		.type	CyBle_ScpssSendNotification, %function
 749              	CyBle_ScpssSendNotification:
 750              	.LFB8:
ARM GAS  C:\Users\akita\AppData\Local\Temp\ccsDjq1x.s 			page 21


 387:Generated_Source\PSoC4/BLE_scps.c **** 
 388:Generated_Source\PSoC4/BLE_scps.c **** 
 389:Generated_Source\PSoC4/BLE_scps.c **** /*******************************************************************************
 390:Generated_Source\PSoC4/BLE_scps.c **** * Function Name: CyBle_ScpssSendNotification
 391:Generated_Source\PSoC4/BLE_scps.c **** ****************************************************************************//**
 392:Generated_Source\PSoC4/BLE_scps.c **** * 
 393:Generated_Source\PSoC4/BLE_scps.c **** *  This function notifies the client that the server requires the Scan Interval
 394:Generated_Source\PSoC4/BLE_scps.c **** *  Window Characteristic to be written with the latest values upon notification.
 395:Generated_Source\PSoC4/BLE_scps.c **** *  
 396:Generated_Source\PSoC4/BLE_scps.c **** *  On enabling notification successfully for a service characteristic, if the GATT
 397:Generated_Source\PSoC4/BLE_scps.c **** *  server has an updated value to be notified to the GATT Client, it sends out a
 398:Generated_Source\PSoC4/BLE_scps.c **** *  'Handle Value Notification' which results in CYBLE_EVT_SCPSC_NOTIFICATION event
 399:Generated_Source\PSoC4/BLE_scps.c **** *  at the GATT Client's end.
 400:Generated_Source\PSoC4/BLE_scps.c **** * 
 401:Generated_Source\PSoC4/BLE_scps.c **** *  \param connHandle: The connection handle
 402:Generated_Source\PSoC4/BLE_scps.c **** * 
 403:Generated_Source\PSoC4/BLE_scps.c **** *  \param charIndex: The index of the characteristic.
 404:Generated_Source\PSoC4/BLE_scps.c **** * 			 * CYBLE_SCPS_SCAN_REFRESH - The Scan Refresh characteristic index
 405:Generated_Source\PSoC4/BLE_scps.c **** * 
 406:Generated_Source\PSoC4/BLE_scps.c **** *  \param attrSize: The size of the characteristic value attribute.
 407:Generated_Source\PSoC4/BLE_scps.c **** * 
 408:Generated_Source\PSoC4/BLE_scps.c **** *  \param attrValue: The pointer to the characteristic value data that should be 
 409:Generated_Source\PSoC4/BLE_scps.c **** *               sent to the Client device.
 410:Generated_Source\PSoC4/BLE_scps.c **** * 
 411:Generated_Source\PSoC4/BLE_scps.c **** * \return
 412:Generated_Source\PSoC4/BLE_scps.c **** *  Return value is of type CYBLE_API_RESULT_T.
 413:Generated_Source\PSoC4/BLE_scps.c **** *   * CYBLE_ERROR_OK - The request handled successfully
 414:Generated_Source\PSoC4/BLE_scps.c **** *   * CYBLE_ERROR_INVALID_PARAMETER - Validation of the input parameter failed
 415:Generated_Source\PSoC4/BLE_scps.c **** *   * CYBLE_ERROR_INVALID_OPERATION - This operation is not permitted
 416:Generated_Source\PSoC4/BLE_scps.c **** *   * CYBLE_ERROR_INVALID_STATE - Connection with the client is not established
 417:Generated_Source\PSoC4/BLE_scps.c **** *   * CYBLE_ERROR_MEMORY_ALLOCATION_FAILED - Memory allocation failed. 
 418:Generated_Source\PSoC4/BLE_scps.c **** *   * CYBLE_ERROR_NTF_DISABLED - Notification is not enabled by the client.
 419:Generated_Source\PSoC4/BLE_scps.c **** *
 420:Generated_Source\PSoC4/BLE_scps.c **** *
 421:Generated_Source\PSoC4/BLE_scps.c **** *******************************************************************************/
 422:Generated_Source\PSoC4/BLE_scps.c **** CYBLE_API_RESULT_T CyBle_ScpssSendNotification(CYBLE_CONN_HANDLE_T connHandle,
 423:Generated_Source\PSoC4/BLE_scps.c ****     CYBLE_SCPS_CHAR_INDEX_T charIndex, uint8 attrSize, uint8 *attrValue)
 424:Generated_Source\PSoC4/BLE_scps.c **** {
 751              		.loc 1 424 0
 752              		.cfi_startproc
 753 0000 90B5     		push	{r4, r7, lr}
 754              		.cfi_def_cfa_offset 12
 755              		.cfi_offset 4, -12
 756              		.cfi_offset 7, -8
 757              		.cfi_offset 14, -4
 758 0002 89B0     		sub	sp, sp, #36
 759              		.cfi_def_cfa_offset 48
 760 0004 00AF     		add	r7, sp, #0
 761              		.cfi_def_cfa_register 7
 762 0006 0C24     		mov	r4, #12
 763 0008 3C19     		add	r4, r7, r4
 764 000a 2080     		strh	r0, [r4]
 765 000c 081C     		mov	r0, r1
 766 000e 111C     		mov	r1, r2
 767 0010 7B60     		str	r3, [r7, #4]
 768 0012 0B23     		mov	r3, #11
 769 0014 FB18     		add	r3, r7, r3
ARM GAS  C:\Users\akita\AppData\Local\Temp\ccsDjq1x.s 			page 22


 770 0016 021C     		add	r2, r0, #0
 771 0018 1A70     		strb	r2, [r3]
 772 001a 0A23     		mov	r3, #10
 773 001c FB18     		add	r3, r7, r3
 774 001e 0A1C     		add	r2, r1, #0
 775 0020 1A70     		strb	r2, [r3]
 425:Generated_Source\PSoC4/BLE_scps.c ****     CYBLE_API_RESULT_T apiResult = CYBLE_ERROR_OK;
 776              		.loc 1 425 0
 777 0022 1E23     		mov	r3, #30
 778 0024 FB18     		add	r3, r7, r3
 779 0026 0022     		mov	r2, #0
 780 0028 1A80     		strh	r2, [r3]
 426:Generated_Source\PSoC4/BLE_scps.c ****     CYBLE_GATTS_HANDLE_VALUE_NTF_T ntfReqParam;
 427:Generated_Source\PSoC4/BLE_scps.c **** 
 428:Generated_Source\PSoC4/BLE_scps.c ****     if((charIndex != CYBLE_SCPS_SCAN_REFRESH) || (attrSize != CYBLE_REFRESH_CHAR_LEN))
 781              		.loc 1 428 0
 782 002a 0B23     		mov	r3, #11
 783 002c FB18     		add	r3, r7, r3
 784 002e 1B78     		ldrb	r3, [r3]
 785 0030 012B     		cmp	r3, #1
 786 0032 04D1     		bne	.L44
 787              		.loc 1 428 0 is_stmt 0 discriminator 1
 788 0034 0A23     		mov	r3, #10
 789 0036 FB18     		add	r3, r7, r3
 790 0038 1B78     		ldrb	r3, [r3]
 791 003a 012B     		cmp	r3, #1
 792 003c 04D0     		beq	.L45
 793              	.L44:
 429:Generated_Source\PSoC4/BLE_scps.c ****     {
 430:Generated_Source\PSoC4/BLE_scps.c ****         apiResult = CYBLE_ERROR_INVALID_PARAMETER;
 794              		.loc 1 430 0 is_stmt 1
 795 003e 1E23     		mov	r3, #30
 796 0040 FB18     		add	r3, r7, r3
 797 0042 0122     		mov	r2, #1
 798 0044 1A80     		strh	r2, [r3]
 799 0046 42E0     		b	.L46
 800              	.L45:
 431:Generated_Source\PSoC4/BLE_scps.c ****     }
 432:Generated_Source\PSoC4/BLE_scps.c ****     else
 433:Generated_Source\PSoC4/BLE_scps.c ****     {
 434:Generated_Source\PSoC4/BLE_scps.c ****         /* Send Notification if it is enabled and connected */
 435:Generated_Source\PSoC4/BLE_scps.c ****         if( (cyBle_scpss.refreshCccdHandle == CYBLE_GATT_INVALID_ATTR_HANDLE_VALUE)
 801              		.loc 1 435 0
 802 0048 3223     		mov	r3, #50
 803 004a 002B     		cmp	r3, #0
 804 004c 14D0     		beq	.L47
 436:Generated_Source\PSoC4/BLE_scps.c ****             || (!CYBLE_IS_NOTIFICATION_ENABLED(cyBle_scpss.refreshCccdHandle)))
 805              		.loc 1 436 0
 806 004e 3223     		mov	r3, #50
 807 0050 5A1E     		sub	r2, r3, #1
 808 0052 2249     		ldr	r1, .L51
 809 0054 131C     		mov	r3, r2
 810 0056 9B00     		lsl	r3, r3, #2
 811 0058 9B18     		add	r3, r3, r2
 812 005a 9B00     		lsl	r3, r3, #2
 813 005c CB18     		add	r3, r1, r3
 814 005e 0833     		add	r3, r3, #8
ARM GAS  C:\Users\akita\AppData\Local\Temp\ccsDjq1x.s 			page 23


 815 0060 9B68     		ldr	r3, [r3, #8]
 816 0062 5B68     		ldr	r3, [r3, #4]
 817 0064 181C     		mov	r0, r3
 818 0066 FFF7FEFF 		bl	CyBle_Get16ByPtr
 819 006a 031C     		mov	r3, r0
 820 006c 1A1C     		mov	r2, r3
 821 006e 0123     		mov	r3, #1
 822 0070 1340     		and	r3, r2
 823 0072 9BB2     		uxth	r3, r3
 824 0074 002B     		cmp	r3, #0
 825 0076 05D1     		bne	.L48
 826              	.L47:
 437:Generated_Source\PSoC4/BLE_scps.c ****         {
 438:Generated_Source\PSoC4/BLE_scps.c ****             apiResult = CYBLE_ERROR_NTF_DISABLED;
 827              		.loc 1 438 0
 828 0078 1E23     		mov	r3, #30
 829 007a FB18     		add	r3, r7, r3
 830 007c 8022     		mov	r2, #128
 831 007e 5200     		lsl	r2, r2, #1
 832 0080 1A80     		strh	r2, [r3]
 833 0082 24E0     		b	.L46
 834              	.L48:
 439:Generated_Source\PSoC4/BLE_scps.c ****         }
 440:Generated_Source\PSoC4/BLE_scps.c ****         else
 441:Generated_Source\PSoC4/BLE_scps.c ****         {
 442:Generated_Source\PSoC4/BLE_scps.c ****             if(CyBle_GetState() == CYBLE_STATE_CONNECTED)
 835              		.loc 1 442 0
 836 0084 164B     		ldr	r3, .L51+4
 837 0086 1B78     		ldrb	r3, [r3]
 838 0088 022B     		cmp	r3, #2
 839 008a 1BD1     		bne	.L49
 443:Generated_Source\PSoC4/BLE_scps.c ****             {
 444:Generated_Source\PSoC4/BLE_scps.c ****                 /* Fill all fields of write request structure ... */
 445:Generated_Source\PSoC4/BLE_scps.c ****                 ntfReqParam.attrHandle = cyBle_scpss.refreshCharHandle;
 840              		.loc 1 445 0
 841 008c 3122     		mov	r2, #49
 842 008e 1023     		mov	r3, #16
 843 0090 FB18     		add	r3, r7, r3
 844 0092 1A81     		strh	r2, [r3, #8]
 446:Generated_Source\PSoC4/BLE_scps.c ****                 ntfReqParam.value.val = attrValue;
 845              		.loc 1 446 0
 846 0094 1023     		mov	r3, #16
 847 0096 FB18     		add	r3, r7, r3
 848 0098 7A68     		ldr	r2, [r7, #4]
 849 009a 1A60     		str	r2, [r3]
 447:Generated_Source\PSoC4/BLE_scps.c ****                 ntfReqParam.value.len = attrSize;
 850              		.loc 1 447 0
 851 009c 0A23     		mov	r3, #10
 852 009e FB18     		add	r3, r7, r3
 853 00a0 1B78     		ldrb	r3, [r3]
 854 00a2 9AB2     		uxth	r2, r3
 855 00a4 1023     		mov	r3, #16
 856 00a6 FB18     		add	r3, r7, r3
 857 00a8 9A80     		strh	r2, [r3, #4]
 448:Generated_Source\PSoC4/BLE_scps.c **** 
 449:Generated_Source\PSoC4/BLE_scps.c ****                 /* Send notification to client using previously filled structure */
 450:Generated_Source\PSoC4/BLE_scps.c ****                 apiResult = CyBle_GattsNotification(connHandle, &ntfReqParam);
ARM GAS  C:\Users\akita\AppData\Local\Temp\ccsDjq1x.s 			page 24


 858              		.loc 1 450 0
 859 00aa 1E23     		mov	r3, #30
 860 00ac FC18     		add	r4, r7, r3
 861 00ae 0C23     		mov	r3, #12
 862 00b0 FB18     		add	r3, r7, r3
 863 00b2 1022     		mov	r2, #16
 864 00b4 BA18     		add	r2, r7, r2
 865 00b6 1868     		ldr	r0, [r3]
 866 00b8 111C     		mov	r1, r2
 867 00ba FFF7FEFF 		bl	CyBle_GattsNotification
 868 00be 031C     		mov	r3, r0
 869 00c0 2380     		strh	r3, [r4]
 870 00c2 04E0     		b	.L46
 871              	.L49:
 451:Generated_Source\PSoC4/BLE_scps.c ****             }
 452:Generated_Source\PSoC4/BLE_scps.c ****             else
 453:Generated_Source\PSoC4/BLE_scps.c ****             {
 454:Generated_Source\PSoC4/BLE_scps.c ****                 apiResult = CYBLE_ERROR_INVALID_STATE;
 872              		.loc 1 454 0
 873 00c4 1E23     		mov	r3, #30
 874 00c6 FB18     		add	r3, r7, r3
 875 00c8 0422     		mov	r2, #4
 876 00ca FF32     		add	r2, r2, #255
 877 00cc 1A80     		strh	r2, [r3]
 878              	.L46:
 455:Generated_Source\PSoC4/BLE_scps.c ****             }
 456:Generated_Source\PSoC4/BLE_scps.c ****         }
 457:Generated_Source\PSoC4/BLE_scps.c ****     }
 458:Generated_Source\PSoC4/BLE_scps.c ****     return (apiResult);
 879              		.loc 1 458 0
 880 00ce 1E23     		mov	r3, #30
 881 00d0 FB18     		add	r3, r7, r3
 882 00d2 1B88     		ldrh	r3, [r3]
 459:Generated_Source\PSoC4/BLE_scps.c **** }
 883              		.loc 1 459 0
 884 00d4 181C     		mov	r0, r3
 885 00d6 BD46     		mov	sp, r7
 886 00d8 09B0     		add	sp, sp, #36
 887              		@ sp needed
 888 00da 90BD     		pop	{r4, r7, pc}
 889              	.L52:
 890              		.align	2
 891              	.L51:
 892 00dc 00000000 		.word	cyBle_gattDB
 893 00e0 00000000 		.word	cyBle_state
 894              		.cfi_endproc
 895              	.LFE8:
 896              		.size	CyBle_ScpssSendNotification, .-CyBle_ScpssSendNotification
 897              		.text
 898              	.Letext0:
 899              		.file 2 "Generated_Source\\PSoC4\\cytypes.h"
 900              		.file 3 "Generated_Source\\PSoC4\\BLE_Stack.h"
 901              		.file 4 "Generated_Source\\PSoC4\\BLE_StackGatt.h"
 902              		.file 5 "Generated_Source\\PSoC4\\BLE_StackGattServer.h"
 903              		.file 6 "Generated_Source\\PSoC4\\BLE_StackGattDb.h"
 904              		.file 7 "Generated_Source\\PSoC4\\BLE.h"
 905              		.file 8 "Generated_Source\\PSoC4\\BLE_dis.h"
ARM GAS  C:\Users\akita\AppData\Local\Temp\ccsDjq1x.s 			page 25


 906              		.file 9 "Generated_Source\\PSoC4\\BLE_scps.h"
 907              		.file 10 "Generated_Source\\PSoC4\\BLE_eventHandler.h"
 908              		.file 11 "Generated_Source\\PSoC4\\BLE_gatt.h"