ARM GAS  C:\Users\akita\AppData\Local\Temp\ccIEDY99.s 			page 1


   1              		.cpu cortex-m0
   2              		.fpu softvfp
   3              		.eabi_attribute 20, 1
   4              		.eabi_attribute 21, 1
   5              		.eabi_attribute 23, 3
   6              		.eabi_attribute 24, 1
   7              		.eabi_attribute 25, 1
   8              		.eabi_attribute 26, 1
   9              		.eabi_attribute 30, 6
  10              		.eabi_attribute 34, 0
  11              		.eabi_attribute 18, 4
  12              		.code	16
  13              		.file	"BLE_hids.c"
  14              		.text
  15              	.Ltext0:
  16              		.cfi_sections	.debug_frame
  17              		.bss
  18              		.align	2
  19              	CyBle_HidsApplCallback:
  20 0000 00000000 		.space	4
  21              		.section	.rodata
  22              		.align	2
  23              		.type	cyBle_hids1ReportArray, %object
  24              		.size	cyBle_hids1ReportArray, 12
  25              	cyBle_hids1ReportArray:
  26 0000 1000     		.short	16
  27 0002 1100     		.short	17
  28 0004 1200     		.short	18
  29 0006 1F00     		.short	31
  30 0008 0000     		.short	0
  31 000a 2000     		.short	32
  32              		.global	cyBle_hidss
  33              		.align	2
  34              		.type	cyBle_hidss, %object
  35              		.size	cyBle_hidss, 40
  36              	cyBle_hidss:
  37 000c 0C00     		.short	12
  38 000e 1800     		.short	24
  39 0010 02       		.byte	2
  40 0011 000000   		.space	3
  41 0014 00000000 		.word	cyBle_hids1ReportArray
  42 0018 1A00     		.short	26
  43 001a 1B00     		.short	27
  44 001c 0000     		.short	0
  45 001e 1D00     		.short	29
  46 0020 0000     		.short	0
  47 0022 0000     		.short	0
  48 0024 0000     		.short	0
  49 0026 0000     		.short	0
  50 0028 0000     		.short	0
  51 002a 0E00     		.short	14
  52 002c 0000     		.short	0
  53 002e 1400     		.short	20
  54 0030 1600     		.short	22
  55 0032 0000     		.space	2
  56              		.section	.text.CyBle_HidsInit,"ax",%progbits
  57              		.align	2
ARM GAS  C:\Users\akita\AppData\Local\Temp\ccIEDY99.s 			page 2


  58              		.global	CyBle_HidsInit
  59              		.code	16
  60              		.thumb_func
  61              		.type	CyBle_HidsInit, %function
  62              	CyBle_HidsInit:
  63              	.LFB2:
  64              		.file 1 "Generated_Source\\PSoC4\\BLE_hids.c"
   1:Generated_Source\PSoC4/BLE_hids.c **** /***************************************************************************//**
   2:Generated_Source\PSoC4/BLE_hids.c **** * \file CYBLE_hids.c
   3:Generated_Source\PSoC4/BLE_hids.c **** * \version 3.20
   4:Generated_Source\PSoC4/BLE_hids.c **** * 
   5:Generated_Source\PSoC4/BLE_hids.c **** * \brief
   6:Generated_Source\PSoC4/BLE_hids.c **** *  Contains the source code for the HID service.
   7:Generated_Source\PSoC4/BLE_hids.c **** * 
   8:Generated_Source\PSoC4/BLE_hids.c **** ********************************************************************************
   9:Generated_Source\PSoC4/BLE_hids.c **** * \copyright
  10:Generated_Source\PSoC4/BLE_hids.c **** * Copyright 2014-2016, Cypress Semiconductor Corporation.  All rights reserved.
  11:Generated_Source\PSoC4/BLE_hids.c **** * You may use this file only in accordance with the license, terms, conditions,
  12:Generated_Source\PSoC4/BLE_hids.c **** * disclaimers, and limitations in the end user license agreement accompanying
  13:Generated_Source\PSoC4/BLE_hids.c **** * the software package with which this file was provided.
  14:Generated_Source\PSoC4/BLE_hids.c **** *******************************************************************************/
  15:Generated_Source\PSoC4/BLE_hids.c **** 
  16:Generated_Source\PSoC4/BLE_hids.c **** #include "BLE_eventHandler.h"
  17:Generated_Source\PSoC4/BLE_hids.c **** 
  18:Generated_Source\PSoC4/BLE_hids.c **** static CYBLE_CALLBACK_T CyBle_HidsApplCallback;
  19:Generated_Source\PSoC4/BLE_hids.c **** 
  20:Generated_Source\PSoC4/BLE_hids.c **** #ifdef CYBLE_HIDS_SERVER
  21:Generated_Source\PSoC4/BLE_hids.c **** 
  22:Generated_Source\PSoC4/BLE_hids.c **** static const CYBLE_HIDSS_REPORT_T cyBle_hids1ReportArray[0x02u] = {
  23:Generated_Source\PSoC4/BLE_hids.c ****     {
  24:Generated_Source\PSoC4/BLE_hids.c ****         0x0010u, /* Handle of the Report characteristic value */ 
  25:Generated_Source\PSoC4/BLE_hids.c ****         0x0011u, /* Handle of the Client Characteristic Configuration descriptor */ 
  26:Generated_Source\PSoC4/BLE_hids.c ****         0x0012u, /* Handle of the Report Reference descriptor */ 
  27:Generated_Source\PSoC4/BLE_hids.c ****     },
  28:Generated_Source\PSoC4/BLE_hids.c ****     {
  29:Generated_Source\PSoC4/BLE_hids.c ****         0x001Fu, /* Handle of the Report characteristic value */ 
  30:Generated_Source\PSoC4/BLE_hids.c ****         CYBLE_GATT_INVALID_ATTR_HANDLE_VALUE, /* Handle of the Client Characteristic Configuration 
  31:Generated_Source\PSoC4/BLE_hids.c ****         0x0020u, /* Handle of the Report Reference descriptor */ 
  32:Generated_Source\PSoC4/BLE_hids.c ****     },
  33:Generated_Source\PSoC4/BLE_hids.c **** };
  34:Generated_Source\PSoC4/BLE_hids.c **** 
  35:Generated_Source\PSoC4/BLE_hids.c **** const CYBLE_HIDSS_T cyBle_hidss[0x01u] = {
  36:Generated_Source\PSoC4/BLE_hids.c ****     {
  37:Generated_Source\PSoC4/BLE_hids.c ****         0x000Cu, /* Handle of the HID service */ 
  38:Generated_Source\PSoC4/BLE_hids.c ****         0x0018u, /* Handle of the Protocol Mode characteristic */ 
  39:Generated_Source\PSoC4/BLE_hids.c ****         0x02u, /* Number of report characteristics */ 
  40:Generated_Source\PSoC4/BLE_hids.c ****         cyBle_hids1ReportArray, /* Information about report characteristics */ 
  41:Generated_Source\PSoC4/BLE_hids.c ****         {
  42:Generated_Source\PSoC4/BLE_hids.c ****             {
  43:Generated_Source\PSoC4/BLE_hids.c ****                 0x001Au, /* Handle of the Report characteristic value */ 
  44:Generated_Source\PSoC4/BLE_hids.c ****                 0x001Bu, /* Handle of the Client Characteristic Configuration descriptor */ 
  45:Generated_Source\PSoC4/BLE_hids.c ****                 CYBLE_GATT_INVALID_ATTR_HANDLE_VALUE, /* Handle of the Report Reference descriptor 
  46:Generated_Source\PSoC4/BLE_hids.c ****             },
  47:Generated_Source\PSoC4/BLE_hids.c ****             {
  48:Generated_Source\PSoC4/BLE_hids.c ****                 0x001Du, /* Handle of the Report characteristic value */ 
  49:Generated_Source\PSoC4/BLE_hids.c ****                 CYBLE_GATT_INVALID_ATTR_HANDLE_VALUE, /* Handle of the Client Characteristic Config
  50:Generated_Source\PSoC4/BLE_hids.c ****                 CYBLE_GATT_INVALID_ATTR_HANDLE_VALUE, /* Handle of the Report Reference descriptor 
ARM GAS  C:\Users\akita\AppData\Local\Temp\ccIEDY99.s 			page 3


  51:Generated_Source\PSoC4/BLE_hids.c ****             },
  52:Generated_Source\PSoC4/BLE_hids.c ****             {
  53:Generated_Source\PSoC4/BLE_hids.c ****                 CYBLE_GATT_INVALID_ATTR_HANDLE_VALUE, /* Handle of the Report characteristic value 
  54:Generated_Source\PSoC4/BLE_hids.c ****                 CYBLE_GATT_INVALID_ATTR_HANDLE_VALUE, /* Handle of the Client Characteristic Config
  55:Generated_Source\PSoC4/BLE_hids.c ****                 CYBLE_GATT_INVALID_ATTR_HANDLE_VALUE, /* Handle of the Report Reference descriptor 
  56:Generated_Source\PSoC4/BLE_hids.c ****             },
  57:Generated_Source\PSoC4/BLE_hids.c ****         }, /* Information about boot report characteristics */ 
  58:Generated_Source\PSoC4/BLE_hids.c ****         0x000Eu, /* Handle of the Report Map characteristic */ 
  59:Generated_Source\PSoC4/BLE_hids.c ****         CYBLE_GATT_INVALID_ATTR_HANDLE_VALUE, /* Handle of the Report Map External Report Reference
  60:Generated_Source\PSoC4/BLE_hids.c ****         0x0014u, /* Handle of the HID Information characteristic */ 
  61:Generated_Source\PSoC4/BLE_hids.c ****         0x0016u, /* Handle of the HID Control Point characteristic */ 
  62:Generated_Source\PSoC4/BLE_hids.c ****     },
  63:Generated_Source\PSoC4/BLE_hids.c **** };
  64:Generated_Source\PSoC4/BLE_hids.c **** 
  65:Generated_Source\PSoC4/BLE_hids.c **** /* Local function prototypes */
  66:Generated_Source\PSoC4/BLE_hids.c **** static uint32 CyBle_HidssCccdWriteEventHandler(uint8 serviceIndex, const CYBLE_GATTS_WRITE_REQ_PARA
  67:Generated_Source\PSoC4/BLE_hids.c **** 
  68:Generated_Source\PSoC4/BLE_hids.c **** #endif /* CYBLE_HIDS_SERVER */
  69:Generated_Source\PSoC4/BLE_hids.c **** 
  70:Generated_Source\PSoC4/BLE_hids.c **** #ifdef CYBLE_HIDS_CLIENT
  71:Generated_Source\PSoC4/BLE_hids.c **** 
  72:Generated_Source\PSoC4/BLE_hids.c ****     CYBLE_HIDSC_T cyBle_hidsc[CYBLE_HIDSC_SERVICE_COUNT];
  73:Generated_Source\PSoC4/BLE_hids.c ****     static CYBLE_GATT_DB_ATTR_HANDLE_T cyBle_hidscReqHandle;
  74:Generated_Source\PSoC4/BLE_hids.c ****     uint8 cyBle_hidscServiceCount;
  75:Generated_Source\PSoC4/BLE_hids.c **** 
  76:Generated_Source\PSoC4/BLE_hids.c **** #endif /* CYBLE_HIDS_CLIENT */
  77:Generated_Source\PSoC4/BLE_hids.c **** 
  78:Generated_Source\PSoC4/BLE_hids.c **** 
  79:Generated_Source\PSoC4/BLE_hids.c **** /****************************************************************************** 
  80:Generated_Source\PSoC4/BLE_hids.c **** * Function Name: CyBle_HidsInit
  81:Generated_Source\PSoC4/BLE_hids.c **** ***************************************************************************//**
  82:Generated_Source\PSoC4/BLE_hids.c **** * 
  83:Generated_Source\PSoC4/BLE_hids.c **** *  This function initializes the HID Service.
  84:Generated_Source\PSoC4/BLE_hids.c **** * 
  85:Generated_Source\PSoC4/BLE_hids.c **** * 
  86:Generated_Source\PSoC4/BLE_hids.c **** ******************************************************************************/
  87:Generated_Source\PSoC4/BLE_hids.c **** void CyBle_HidsInit(void)
  88:Generated_Source\PSoC4/BLE_hids.c **** {
  65              		.loc 1 88 0
  66              		.cfi_startproc
  67 0000 80B5     		push	{r7, lr}
  68              		.cfi_def_cfa_offset 8
  69              		.cfi_offset 7, -8
  70              		.cfi_offset 14, -4
  71 0002 00AF     		add	r7, sp, #0
  72              		.cfi_def_cfa_register 7
  89:Generated_Source\PSoC4/BLE_hids.c **** 
  90:Generated_Source\PSoC4/BLE_hids.c **** #ifdef CYBLE_HIDS_CLIENT
  91:Generated_Source\PSoC4/BLE_hids.c **** 
  92:Generated_Source\PSoC4/BLE_hids.c ****     uint8 locServIndex;
  93:Generated_Source\PSoC4/BLE_hids.c ****     for(locServIndex = 0u; locServIndex < CYBLE_HIDSC_SERVICE_COUNT; locServIndex++)
  94:Generated_Source\PSoC4/BLE_hids.c ****     {
  95:Generated_Source\PSoC4/BLE_hids.c ****         if(cyBle_serverInfo[CYBLE_SRVI_HIDS + locServIndex].range.startHandle == CYBLE_GATT_INVALID
  96:Generated_Source\PSoC4/BLE_hids.c ****         {
  97:Generated_Source\PSoC4/BLE_hids.c ****             (void)memset(&cyBle_hidsc[locServIndex], 0, sizeof(cyBle_hidsc[locServIndex]));
  98:Generated_Source\PSoC4/BLE_hids.c ****         }
  99:Generated_Source\PSoC4/BLE_hids.c ****     }
ARM GAS  C:\Users\akita\AppData\Local\Temp\ccIEDY99.s 			page 4


 100:Generated_Source\PSoC4/BLE_hids.c ****     cyBle_hidscReqHandle = CYBLE_GATT_INVALID_ATTR_HANDLE_VALUE;
 101:Generated_Source\PSoC4/BLE_hids.c ****     cyBle_hidscServiceCount = 0u;
 102:Generated_Source\PSoC4/BLE_hids.c **** 
 103:Generated_Source\PSoC4/BLE_hids.c **** #endif /* CYBLE_HIDS_CLIENT */
 104:Generated_Source\PSoC4/BLE_hids.c **** }
  73              		.loc 1 104 0
  74 0004 BD46     		mov	sp, r7
  75              		@ sp needed
  76 0006 80BD     		pop	{r7, pc}
  77              		.cfi_endproc
  78              	.LFE2:
  79              		.size	CyBle_HidsInit, .-CyBle_HidsInit
  80              		.section	.text.CyBle_HidsRegisterAttrCallback,"ax",%progbits
  81              		.align	2
  82              		.global	CyBle_HidsRegisterAttrCallback
  83              		.code	16
  84              		.thumb_func
  85              		.type	CyBle_HidsRegisterAttrCallback, %function
  86              	CyBle_HidsRegisterAttrCallback:
  87              	.LFB3:
 105:Generated_Source\PSoC4/BLE_hids.c **** 
 106:Generated_Source\PSoC4/BLE_hids.c **** 
 107:Generated_Source\PSoC4/BLE_hids.c **** /****************************************************************************** 
 108:Generated_Source\PSoC4/BLE_hids.c **** * Function Name: CyBle_HidsRegisterAttrCallback
 109:Generated_Source\PSoC4/BLE_hids.c **** ***************************************************************************//**
 110:Generated_Source\PSoC4/BLE_hids.c **** * 
 111:Generated_Source\PSoC4/BLE_hids.c **** *  Registers a callback function for service specific attribute operations.
 112:Generated_Source\PSoC4/BLE_hids.c **** *  Service specific write requests from peer device will not be handled with
 113:Generated_Source\PSoC4/BLE_hids.c **** *  unregistered callback function.
 114:Generated_Source\PSoC4/BLE_hids.c **** * 
 115:Generated_Source\PSoC4/BLE_hids.c **** *  \param callbackFunc: An application layer event callback function to receive 
 116:Generated_Source\PSoC4/BLE_hids.c **** *                    events from the BLE Component. The definition of 
 117:Generated_Source\PSoC4/BLE_hids.c **** *                    CYBLE_CALLBACK_T for HID Service is:\n
 118:Generated_Source\PSoC4/BLE_hids.c **** *                    typedef void (* CYBLE_CALLBACK_T) (uint32 eventCode, 
 119:Generated_Source\PSoC4/BLE_hids.c **** *                                                       void *eventParam)
 120:Generated_Source\PSoC4/BLE_hids.c **** *                    * eventCode indicates the event that triggered this 
 121:Generated_Source\PSoC4/BLE_hids.c **** *                      callback (e.g. CYBLE_EVT_HIDS_NOTIFICATION_ENABLED).
 122:Generated_Source\PSoC4/BLE_hids.c **** *                    * eventParam contains the parameters corresponding to the 
 123:Generated_Source\PSoC4/BLE_hids.c **** *                      current event. (e.g. pointer to CYBLE_HIDS_CHAR_VALUE_T
 124:Generated_Source\PSoC4/BLE_hids.c **** *                      structure that contains details of the characteristic for 
 125:Generated_Source\PSoC4/BLE_hids.c **** *                      which notification enabled event was triggered).
 126:Generated_Source\PSoC4/BLE_hids.c **** *
 127:Generated_Source\PSoC4/BLE_hids.c **** *
 128:Generated_Source\PSoC4/BLE_hids.c **** * \sideeffect The *eventParams in the callback function should not be used by 
 129:Generated_Source\PSoC4/BLE_hids.c **** *                the application once the callback function execution is finished.
 130:Generated_Source\PSoC4/BLE_hids.c **** *                Otherwise this data may become corrupted.
 131:Generated_Source\PSoC4/BLE_hids.c **** * 
 132:Generated_Source\PSoC4/BLE_hids.c **** ******************************************************************************/
 133:Generated_Source\PSoC4/BLE_hids.c **** void CyBle_HidsRegisterAttrCallback(CYBLE_CALLBACK_T callbackFunc)
 134:Generated_Source\PSoC4/BLE_hids.c **** {
  88              		.loc 1 134 0
  89              		.cfi_startproc
  90 0000 80B5     		push	{r7, lr}
  91              		.cfi_def_cfa_offset 8
  92              		.cfi_offset 7, -8
  93              		.cfi_offset 14, -4
  94 0002 82B0     		sub	sp, sp, #8
ARM GAS  C:\Users\akita\AppData\Local\Temp\ccIEDY99.s 			page 5


  95              		.cfi_def_cfa_offset 16
  96 0004 00AF     		add	r7, sp, #0
  97              		.cfi_def_cfa_register 7
  98 0006 7860     		str	r0, [r7, #4]
 135:Generated_Source\PSoC4/BLE_hids.c ****     CyBle_HidsApplCallback = callbackFunc;
  99              		.loc 1 135 0
 100 0008 024B     		ldr	r3, .L3
 101 000a 7A68     		ldr	r2, [r7, #4]
 102 000c 1A60     		str	r2, [r3]
 136:Generated_Source\PSoC4/BLE_hids.c **** }
 103              		.loc 1 136 0
 104 000e BD46     		mov	sp, r7
 105 0010 02B0     		add	sp, sp, #8
 106              		@ sp needed
 107 0012 80BD     		pop	{r7, pc}
 108              	.L4:
 109              		.align	2
 110              	.L3:
 111 0014 00000000 		.word	CyBle_HidsApplCallback
 112              		.cfi_endproc
 113              	.LFE3:
 114              		.size	CyBle_HidsRegisterAttrCallback, .-CyBle_HidsRegisterAttrCallback
 115              		.section	.text.CyBle_HidssSetCharacteristicValue,"ax",%progbits
 116              		.align	2
 117              		.global	CyBle_HidssSetCharacteristicValue
 118              		.code	16
 119              		.thumb_func
 120              		.type	CyBle_HidssSetCharacteristicValue, %function
 121              	CyBle_HidssSetCharacteristicValue:
 122              	.LFB4:
 137:Generated_Source\PSoC4/BLE_hids.c **** 
 138:Generated_Source\PSoC4/BLE_hids.c **** #ifdef CYBLE_HIDS_SERVER
 139:Generated_Source\PSoC4/BLE_hids.c **** 
 140:Generated_Source\PSoC4/BLE_hids.c **** 
 141:Generated_Source\PSoC4/BLE_hids.c **** /****************************************************************************** 
 142:Generated_Source\PSoC4/BLE_hids.c **** * Function Name: CyBle_HidssSetCharacteristicValue
 143:Generated_Source\PSoC4/BLE_hids.c **** ***************************************************************************//**
 144:Generated_Source\PSoC4/BLE_hids.c **** * 
 145:Generated_Source\PSoC4/BLE_hids.c **** *  Sets local characteristic value of the specified HID Service characteristics.
 146:Generated_Source\PSoC4/BLE_hids.c **** * 
 147:Generated_Source\PSoC4/BLE_hids.c **** *  \param serviceIndex: The index of the service instance. e.g. If two HID Services are 
 148:Generated_Source\PSoC4/BLE_hids.c **** *                 supported in your design, then first service will be identified
 149:Generated_Source\PSoC4/BLE_hids.c **** *                 by serviceIndex of 0 and the second by serviceIndex of 1.
 150:Generated_Source\PSoC4/BLE_hids.c **** *  \param charIndex: The index of a service characteristic.
 151:Generated_Source\PSoC4/BLE_hids.c **** *              * CYBLE_HIDS_PROTOCOL_MODE - Protocol Mode characteristic
 152:Generated_Source\PSoC4/BLE_hids.c **** *              * CYBLE_HIDS_REPORT_MAP - Report Map characteristic
 153:Generated_Source\PSoC4/BLE_hids.c **** *              * CYBLE_HIDS_INFORMATION - HID Information characteristic
 154:Generated_Source\PSoC4/BLE_hids.c **** *              * CYBLE_HIDS_CONTROL_POINT - HID Control Point characteristic
 155:Generated_Source\PSoC4/BLE_hids.c **** *              * CYBLE_HIDS_BOOT_KYBRD_IN_REP - Boot Keyboard Input Report Characteristic
 156:Generated_Source\PSoC4/BLE_hids.c **** *              * CYBLE_HIDS_BOOT_KYBRD_OUT_REP - Boot Keyboard Output Report Characteristic
 157:Generated_Source\PSoC4/BLE_hids.c **** *              * CYBLE_HIDS_BOOT_MOUSE_IN_REP - Boot Mouse Input Report Characteristic
 158:Generated_Source\PSoC4/BLE_hids.c **** *              * CYBLE_HIDS_REPORT - Report Characteristic
 159:Generated_Source\PSoC4/BLE_hids.c **** * 
 160:Generated_Source\PSoC4/BLE_hids.c **** *  \param attrSize: The size of the characteristic value attribute.
 161:Generated_Source\PSoC4/BLE_hids.c **** * 
 162:Generated_Source\PSoC4/BLE_hids.c **** *  \param attrValue: The pointer to the characteristic value data that should be 
 163:Generated_Source\PSoC4/BLE_hids.c **** *               stored in the GATT database.
ARM GAS  C:\Users\akita\AppData\Local\Temp\ccIEDY99.s 			page 6


 164:Generated_Source\PSoC4/BLE_hids.c **** * 
 165:Generated_Source\PSoC4/BLE_hids.c **** * \return
 166:Generated_Source\PSoC4/BLE_hids.c **** *  Return value is of type CYBLE_API_RESULT_T.
 167:Generated_Source\PSoC4/BLE_hids.c **** *  * CYBLE_ERROR_OK - The request handled successfully.
 168:Generated_Source\PSoC4/BLE_hids.c **** *  * CYBLE_ERROR_INVALID_PARAMETER - Validation of the input parameter failed.
 169:Generated_Source\PSoC4/BLE_hids.c **** *  * CYBLE_ERROR_GATT_DB_INVALID_ATTR_HANDLE - Optional characteristic is absent
 170:Generated_Source\PSoC4/BLE_hids.c **** *
 171:Generated_Source\PSoC4/BLE_hids.c **** *
 172:Generated_Source\PSoC4/BLE_hids.c **** ******************************************************************************/
 173:Generated_Source\PSoC4/BLE_hids.c **** CYBLE_API_RESULT_T CyBle_HidssSetCharacteristicValue(uint8 serviceIndex, CYBLE_HIDS_CHAR_INDEX_T ch
 174:Generated_Source\PSoC4/BLE_hids.c ****     uint8 attrSize, uint8 *attrValue)
 175:Generated_Source\PSoC4/BLE_hids.c **** {
 123              		.loc 1 175 0
 124              		.cfi_startproc
 125 0000 90B5     		push	{r4, r7, lr}
 126              		.cfi_def_cfa_offset 12
 127              		.cfi_offset 4, -12
 128              		.cfi_offset 7, -8
 129              		.cfi_offset 14, -4
 130 0002 87B0     		sub	sp, sp, #28
 131              		.cfi_def_cfa_offset 40
 132 0004 00AF     		add	r7, sp, #0
 133              		.cfi_def_cfa_register 7
 134 0006 041C     		mov	r4, r0
 135 0008 081C     		mov	r0, r1
 136 000a 111C     		mov	r1, r2
 137 000c 3B60     		str	r3, [r7]
 138 000e FB1D     		add	r3, r7, #7
 139 0010 221C     		add	r2, r4, #0
 140 0012 1A70     		strb	r2, [r3]
 141 0014 BB1D     		add	r3, r7, #6
 142 0016 021C     		add	r2, r0, #0
 143 0018 1A70     		strb	r2, [r3]
 144 001a 7B1D     		add	r3, r7, #5
 145 001c 0A1C     		add	r2, r1, #0
 146 001e 1A70     		strb	r2, [r3]
 176:Generated_Source\PSoC4/BLE_hids.c ****     CYBLE_API_RESULT_T apiResult = CYBLE_ERROR_OK;
 147              		.loc 1 176 0
 148 0020 1623     		mov	r3, #22
 149 0022 FB18     		add	r3, r7, r3
 150 0024 0022     		mov	r2, #0
 151 0026 1A80     		strh	r2, [r3]
 177:Generated_Source\PSoC4/BLE_hids.c ****     CYBLE_GATT_DB_ATTR_HANDLE_T charValueHandle;
 178:Generated_Source\PSoC4/BLE_hids.c ****     CYBLE_GATT_HANDLE_VALUE_PAIR_T locHandleValuePair;
 179:Generated_Source\PSoC4/BLE_hids.c **** 
 180:Generated_Source\PSoC4/BLE_hids.c ****     if((serviceIndex >= CYBLE_HIDSS_SERVICE_COUNT) || (charIndex >= CYBLE_HIDS_CHAR_COUNT))
 152              		.loc 1 180 0
 153 0028 FB1D     		add	r3, r7, #7
 154 002a 1B78     		ldrb	r3, [r3]
 155 002c 002B     		cmp	r3, #0
 156 002e 03D1     		bne	.L6
 157              		.loc 1 180 0 is_stmt 0 discriminator 1
 158 0030 BB1D     		add	r3, r7, #6
 159 0032 1B78     		ldrb	r3, [r3]
 160 0034 082B     		cmp	r3, #8
 161 0036 04D9     		bls	.L7
 162              	.L6:
ARM GAS  C:\Users\akita\AppData\Local\Temp\ccIEDY99.s 			page 7


 181:Generated_Source\PSoC4/BLE_hids.c ****     {
 182:Generated_Source\PSoC4/BLE_hids.c ****         apiResult = CYBLE_ERROR_INVALID_PARAMETER;
 163              		.loc 1 182 0 is_stmt 1
 164 0038 1623     		mov	r3, #22
 165 003a FB18     		add	r3, r7, r3
 166 003c 0122     		mov	r2, #1
 167 003e 1A80     		strh	r2, [r3]
 168 0040 BBE0     		b	.L8
 169              	.L7:
 183:Generated_Source\PSoC4/BLE_hids.c ****     }
 184:Generated_Source\PSoC4/BLE_hids.c ****     else
 185:Generated_Source\PSoC4/BLE_hids.c ****     {
 186:Generated_Source\PSoC4/BLE_hids.c ****         switch(charIndex)
 170              		.loc 1 186 0
 171 0042 BB1D     		add	r3, r7, #6
 172 0044 1B78     		ldrb	r3, [r3]
 173 0046 062B     		cmp	r3, #6
 174 0048 65D8     		bhi	.L9
 175 004a 9A00     		lsl	r2, r3, #2
 176 004c 5E4B     		ldr	r3, .L24
 177 004e D318     		add	r3, r2, r3
 178 0050 1B68     		ldr	r3, [r3]
 179 0052 9F46     		mov	pc, r3
 180              		.section	.rodata
 181              		.align	2
 182              	.L11:
 183 0034 54000000 		.word	.L10
 184 0038 8A000000 		.word	.L12
 185 003c A6000000 		.word	.L13
 186 0040 6E000000 		.word	.L14
 187 0044 C2000000 		.word	.L15
 188 0048 DE000000 		.word	.L16
 189 004c FA000000 		.word	.L17
 190              		.section	.text.CyBle_HidssSetCharacteristicValue
 191              	.L10:
 187:Generated_Source\PSoC4/BLE_hids.c ****         {
 188:Generated_Source\PSoC4/BLE_hids.c ****             case CYBLE_HIDS_PROTOCOL_MODE:
 189:Generated_Source\PSoC4/BLE_hids.c ****                 charValueHandle = cyBle_hidss[serviceIndex].protocolModeHandle;
 192              		.loc 1 189 0
 193 0054 FB1D     		add	r3, r7, #7
 194 0056 1A78     		ldrb	r2, [r3]
 195 0058 1423     		mov	r3, #20
 196 005a F918     		add	r1, r7, r3
 197 005c 5B48     		ldr	r0, .L24+4
 198 005e 131C     		mov	r3, r2
 199 0060 9B00     		lsl	r3, r3, #2
 200 0062 9B18     		add	r3, r3, r2
 201 0064 DB00     		lsl	r3, r3, #3
 202 0066 C318     		add	r3, r0, r3
 203 0068 5B88     		ldrh	r3, [r3, #2]
 204 006a 0B80     		strh	r3, [r1]
 190:Generated_Source\PSoC4/BLE_hids.c ****                 break;
 205              		.loc 1 190 0
 206 006c 7DE0     		b	.L18
 207              	.L14:
 191:Generated_Source\PSoC4/BLE_hids.c ****             case CYBLE_HIDS_REPORT_MAP:
 192:Generated_Source\PSoC4/BLE_hids.c ****                 charValueHandle = cyBle_hidss[serviceIndex].reportMapHandle;
ARM GAS  C:\Users\akita\AppData\Local\Temp\ccIEDY99.s 			page 8


 208              		.loc 1 192 0
 209 006e FB1D     		add	r3, r7, #7
 210 0070 1A78     		ldrb	r2, [r3]
 211 0072 1423     		mov	r3, #20
 212 0074 F918     		add	r1, r7, r3
 213 0076 5548     		ldr	r0, .L24+4
 214 0078 131C     		mov	r3, r2
 215 007a 9B00     		lsl	r3, r3, #2
 216 007c 9B18     		add	r3, r3, r2
 217 007e DB00     		lsl	r3, r3, #3
 218 0080 C318     		add	r3, r0, r3
 219 0082 1833     		add	r3, r3, #24
 220 0084 DB88     		ldrh	r3, [r3, #6]
 221 0086 0B80     		strh	r3, [r1]
 193:Generated_Source\PSoC4/BLE_hids.c ****                 break;
 222              		.loc 1 193 0
 223 0088 6FE0     		b	.L18
 224              	.L12:
 194:Generated_Source\PSoC4/BLE_hids.c ****             case CYBLE_HIDS_INFORMATION:
 195:Generated_Source\PSoC4/BLE_hids.c ****                 charValueHandle = cyBle_hidss[serviceIndex].informationHandle;
 225              		.loc 1 195 0
 226 008a FB1D     		add	r3, r7, #7
 227 008c 1A78     		ldrb	r2, [r3]
 228 008e 1423     		mov	r3, #20
 229 0090 F918     		add	r1, r7, r3
 230 0092 4E48     		ldr	r0, .L24+4
 231 0094 131C     		mov	r3, r2
 232 0096 9B00     		lsl	r3, r3, #2
 233 0098 9B18     		add	r3, r3, r2
 234 009a DB00     		lsl	r3, r3, #3
 235 009c C318     		add	r3, r0, r3
 236 009e 2033     		add	r3, r3, #32
 237 00a0 5B88     		ldrh	r3, [r3, #2]
 238 00a2 0B80     		strh	r3, [r1]
 196:Generated_Source\PSoC4/BLE_hids.c ****                 break;
 239              		.loc 1 196 0
 240 00a4 61E0     		b	.L18
 241              	.L13:
 197:Generated_Source\PSoC4/BLE_hids.c ****             case CYBLE_HIDS_CONTROL_POINT:
 198:Generated_Source\PSoC4/BLE_hids.c ****                 charValueHandle = cyBle_hidss[serviceIndex].controlPointHandle;
 242              		.loc 1 198 0
 243 00a6 FB1D     		add	r3, r7, #7
 244 00a8 1A78     		ldrb	r2, [r3]
 245 00aa 1423     		mov	r3, #20
 246 00ac F918     		add	r1, r7, r3
 247 00ae 4748     		ldr	r0, .L24+4
 248 00b0 131C     		mov	r3, r2
 249 00b2 9B00     		lsl	r3, r3, #2
 250 00b4 9B18     		add	r3, r3, r2
 251 00b6 DB00     		lsl	r3, r3, #3
 252 00b8 C318     		add	r3, r0, r3
 253 00ba 2033     		add	r3, r3, #32
 254 00bc 9B88     		ldrh	r3, [r3, #4]
 255 00be 0B80     		strh	r3, [r1]
 199:Generated_Source\PSoC4/BLE_hids.c ****                 break;
 256              		.loc 1 199 0
 257 00c0 53E0     		b	.L18
ARM GAS  C:\Users\akita\AppData\Local\Temp\ccIEDY99.s 			page 9


 258              	.L15:
 200:Generated_Source\PSoC4/BLE_hids.c ****             case CYBLE_HIDS_BOOT_KYBRD_IN_REP:
 201:Generated_Source\PSoC4/BLE_hids.c ****                 charValueHandle = cyBle_hidss[serviceIndex].bootReportArray[CYBLE_HIDS_BOOT_KYBRD_I
 259              		.loc 1 201 0
 260 00c2 FB1D     		add	r3, r7, #7
 261 00c4 1A78     		ldrb	r2, [r3]
 262 00c6 1423     		mov	r3, #20
 263 00c8 F918     		add	r1, r7, r3
 264 00ca 4048     		ldr	r0, .L24+4
 265 00cc 131C     		mov	r3, r2
 266 00ce 9B00     		lsl	r3, r3, #2
 267 00d0 9B18     		add	r3, r3, r2
 268 00d2 DB00     		lsl	r3, r3, #3
 269 00d4 C318     		add	r3, r0, r3
 270 00d6 0833     		add	r3, r3, #8
 271 00d8 9B88     		ldrh	r3, [r3, #4]
 272 00da 0B80     		strh	r3, [r1]
 202:Generated_Source\PSoC4/BLE_hids.c ****                     reportHandle;
 203:Generated_Source\PSoC4/BLE_hids.c ****                 break;
 273              		.loc 1 203 0
 274 00dc 45E0     		b	.L18
 275              	.L16:
 204:Generated_Source\PSoC4/BLE_hids.c ****             case CYBLE_HIDS_BOOT_KYBRD_OUT_REP:
 205:Generated_Source\PSoC4/BLE_hids.c ****                 charValueHandle = cyBle_hidss[serviceIndex].bootReportArray[CYBLE_HIDS_BOOT_KYBRD_O
 276              		.loc 1 205 0
 277 00de FB1D     		add	r3, r7, #7
 278 00e0 1A78     		ldrb	r2, [r3]
 279 00e2 1423     		mov	r3, #20
 280 00e4 F918     		add	r1, r7, r3
 281 00e6 3948     		ldr	r0, .L24+4
 282 00e8 131C     		mov	r3, r2
 283 00ea 9B00     		lsl	r3, r3, #2
 284 00ec 9B18     		add	r3, r3, r2
 285 00ee DB00     		lsl	r3, r3, #3
 286 00f0 C318     		add	r3, r0, r3
 287 00f2 0E33     		add	r3, r3, #14
 288 00f4 9B88     		ldrh	r3, [r3, #4]
 289 00f6 0B80     		strh	r3, [r1]
 206:Generated_Source\PSoC4/BLE_hids.c ****                     reportHandle;
 207:Generated_Source\PSoC4/BLE_hids.c ****                 break;
 290              		.loc 1 207 0
 291 00f8 37E0     		b	.L18
 292              	.L17:
 208:Generated_Source\PSoC4/BLE_hids.c ****             case CYBLE_HIDS_BOOT_MOUSE_IN_REP:
 209:Generated_Source\PSoC4/BLE_hids.c ****                 charValueHandle = cyBle_hidss[serviceIndex].bootReportArray[CYBLE_HIDS_BOOT_MOUSE_I
 293              		.loc 1 209 0
 294 00fa FB1D     		add	r3, r7, #7
 295 00fc 1A78     		ldrb	r2, [r3]
 296 00fe 1423     		mov	r3, #20
 297 0100 F918     		add	r1, r7, r3
 298 0102 3248     		ldr	r0, .L24+4
 299 0104 131C     		mov	r3, r2
 300 0106 9B00     		lsl	r3, r3, #2
 301 0108 9B18     		add	r3, r3, r2
 302 010a DB00     		lsl	r3, r3, #3
 303 010c C318     		add	r3, r0, r3
 304 010e 1433     		add	r3, r3, #20
ARM GAS  C:\Users\akita\AppData\Local\Temp\ccIEDY99.s 			page 10


 305 0110 9B88     		ldrh	r3, [r3, #4]
 306 0112 0B80     		strh	r3, [r1]
 210:Generated_Source\PSoC4/BLE_hids.c ****                     reportHandle;
 211:Generated_Source\PSoC4/BLE_hids.c ****                 break;
 307              		.loc 1 211 0
 308 0114 29E0     		b	.L18
 309              	.L9:
 212:Generated_Source\PSoC4/BLE_hids.c ****             default:                    /* Report characteristic */
 213:Generated_Source\PSoC4/BLE_hids.c ****                 /* Verify that requested report exists in particular service */
 214:Generated_Source\PSoC4/BLE_hids.c ****                 if((charIndex - CYBLE_HIDS_REPORT) < cyBle_hidss[serviceIndex].reportCount)
 310              		.loc 1 214 0
 311 0116 BB1D     		add	r3, r7, #6
 312 0118 1B78     		ldrb	r3, [r3]
 313 011a D91F     		sub	r1, r3, #7
 314 011c FB1D     		add	r3, r7, #7
 315 011e 1A78     		ldrb	r2, [r3]
 316 0120 2A48     		ldr	r0, .L24+4
 317 0122 131C     		mov	r3, r2
 318 0124 9B00     		lsl	r3, r3, #2
 319 0126 9B18     		add	r3, r3, r2
 320 0128 DB00     		lsl	r3, r3, #3
 321 012a C318     		add	r3, r0, r3
 322 012c 1B79     		ldrb	r3, [r3, #4]
 323 012e 9942     		cmp	r1, r3
 324 0130 16DA     		bge	.L19
 215:Generated_Source\PSoC4/BLE_hids.c ****                 {
 216:Generated_Source\PSoC4/BLE_hids.c ****                     charValueHandle = cyBle_hidss[serviceIndex].reportArray[charIndex - CYBLE_HIDS_
 325              		.loc 1 216 0
 326 0132 FB1D     		add	r3, r7, #7
 327 0134 1A78     		ldrb	r2, [r3]
 328 0136 2549     		ldr	r1, .L24+4
 329 0138 131C     		mov	r3, r2
 330 013a 9B00     		lsl	r3, r3, #2
 331 013c 9B18     		add	r3, r3, r2
 332 013e DB00     		lsl	r3, r3, #3
 333 0140 CB18     		add	r3, r1, r3
 334 0142 0833     		add	r3, r3, #8
 335 0144 1968     		ldr	r1, [r3]
 336 0146 BB1D     		add	r3, r7, #6
 337 0148 1A78     		ldrb	r2, [r3]
 338 014a 131C     		mov	r3, r2
 339 014c 5B00     		lsl	r3, r3, #1
 340 014e 9B18     		add	r3, r3, r2
 341 0150 5B00     		lsl	r3, r3, #1
 342 0152 2A3B     		sub	r3, r3, #42
 343 0154 CA18     		add	r2, r1, r3
 344 0156 1423     		mov	r3, #20
 345 0158 FB18     		add	r3, r7, r3
 346 015a 1288     		ldrh	r2, [r2]
 347 015c 1A80     		strh	r2, [r3]
 217:Generated_Source\PSoC4/BLE_hids.c ****                 }
 218:Generated_Source\PSoC4/BLE_hids.c ****                 else
 219:Generated_Source\PSoC4/BLE_hids.c ****                 {
 220:Generated_Source\PSoC4/BLE_hids.c ****                     charValueHandle = CYBLE_GATT_INVALID_ATTR_HANDLE_VALUE;
 221:Generated_Source\PSoC4/BLE_hids.c ****                 }
 222:Generated_Source\PSoC4/BLE_hids.c ****                 break;
 348              		.loc 1 222 0
ARM GAS  C:\Users\akita\AppData\Local\Temp\ccIEDY99.s 			page 11


 349 015e 03E0     		b	.L23
 350              	.L19:
 220:Generated_Source\PSoC4/BLE_hids.c ****                 }
 351              		.loc 1 220 0
 352 0160 1423     		mov	r3, #20
 353 0162 FB18     		add	r3, r7, r3
 354 0164 0022     		mov	r2, #0
 355 0166 1A80     		strh	r2, [r3]
 356              	.L23:
 357              		.loc 1 222 0
 358 0168 C046     		mov	r8, r8
 359              	.L18:
 223:Generated_Source\PSoC4/BLE_hids.c ****         }
 224:Generated_Source\PSoC4/BLE_hids.c ****         if(charValueHandle == CYBLE_GATT_INVALID_ATTR_HANDLE_VALUE)
 360              		.loc 1 224 0
 361 016a 1423     		mov	r3, #20
 362 016c FB18     		add	r3, r7, r3
 363 016e 1B88     		ldrh	r3, [r3]
 364 0170 002B     		cmp	r3, #0
 365 0172 04D1     		bne	.L21
 225:Generated_Source\PSoC4/BLE_hids.c ****         {
 226:Generated_Source\PSoC4/BLE_hids.c ****             apiResult = CYBLE_ERROR_GATT_DB_INVALID_ATTR_HANDLE;
 366              		.loc 1 226 0
 367 0174 1623     		mov	r3, #22
 368 0176 FB18     		add	r3, r7, r3
 369 0178 1322     		mov	r2, #19
 370 017a 1A80     		strh	r2, [r3]
 371 017c 1DE0     		b	.L8
 372              	.L21:
 227:Generated_Source\PSoC4/BLE_hids.c ****         }
 228:Generated_Source\PSoC4/BLE_hids.c ****         else
 229:Generated_Source\PSoC4/BLE_hids.c ****         {
 230:Generated_Source\PSoC4/BLE_hids.c ****             /* Store data in database */
 231:Generated_Source\PSoC4/BLE_hids.c ****             locHandleValuePair.attrHandle = charValueHandle;
 373              		.loc 1 231 0
 374 017e 0823     		mov	r3, #8
 375 0180 FB18     		add	r3, r7, r3
 376 0182 1422     		mov	r2, #20
 377 0184 BA18     		add	r2, r7, r2
 378 0186 1288     		ldrh	r2, [r2]
 379 0188 1A81     		strh	r2, [r3, #8]
 232:Generated_Source\PSoC4/BLE_hids.c ****             locHandleValuePair.value.len = attrSize;
 380              		.loc 1 232 0
 381 018a 7B1D     		add	r3, r7, #5
 382 018c 1B78     		ldrb	r3, [r3]
 383 018e 9AB2     		uxth	r2, r3
 384 0190 0823     		mov	r3, #8
 385 0192 FB18     		add	r3, r7, r3
 386 0194 9A80     		strh	r2, [r3, #4]
 233:Generated_Source\PSoC4/BLE_hids.c ****             locHandleValuePair.value.val = attrValue;
 387              		.loc 1 233 0
 388 0196 0823     		mov	r3, #8
 389 0198 FB18     		add	r3, r7, r3
 390 019a 3A68     		ldr	r2, [r7]
 391 019c 1A60     		str	r2, [r3]
 234:Generated_Source\PSoC4/BLE_hids.c **** 
 235:Generated_Source\PSoC4/BLE_hids.c ****             if(CYBLE_GATT_ERR_NONE !=
ARM GAS  C:\Users\akita\AppData\Local\Temp\ccIEDY99.s 			page 12


 236:Generated_Source\PSoC4/BLE_hids.c ****                 CyBle_GattsWriteAttributeValue(&locHandleValuePair, 0u, NULL, CYBLE_GATT_DB_LOCALLY
 392              		.loc 1 236 0
 393 019e 0823     		mov	r3, #8
 394 01a0 FB18     		add	r3, r7, r3
 395 01a2 181C     		mov	r0, r3
 396 01a4 0021     		mov	r1, #0
 397 01a6 0022     		mov	r2, #0
 398 01a8 0023     		mov	r3, #0
 399 01aa FFF7FEFF 		bl	CyBle_GattsWriteAttributeValue
 400 01ae 031E     		sub	r3, r0, #0
 235:Generated_Source\PSoC4/BLE_hids.c ****                 CyBle_GattsWriteAttributeValue(&locHandleValuePair, 0u, NULL, CYBLE_GATT_DB_LOCALLY
 401              		.loc 1 235 0
 402 01b0 03D0     		beq	.L8
 237:Generated_Source\PSoC4/BLE_hids.c ****             {
 238:Generated_Source\PSoC4/BLE_hids.c ****                 apiResult = CYBLE_ERROR_INVALID_PARAMETER;
 403              		.loc 1 238 0
 404 01b2 1623     		mov	r3, #22
 405 01b4 FB18     		add	r3, r7, r3
 406 01b6 0122     		mov	r2, #1
 407 01b8 1A80     		strh	r2, [r3]
 408              	.L8:
 239:Generated_Source\PSoC4/BLE_hids.c ****             }
 240:Generated_Source\PSoC4/BLE_hids.c ****         }
 241:Generated_Source\PSoC4/BLE_hids.c ****     }
 242:Generated_Source\PSoC4/BLE_hids.c ****     return (apiResult);
 409              		.loc 1 242 0
 410 01ba 1623     		mov	r3, #22
 411 01bc FB18     		add	r3, r7, r3
 412 01be 1B88     		ldrh	r3, [r3]
 243:Generated_Source\PSoC4/BLE_hids.c **** }
 413              		.loc 1 243 0
 414 01c0 181C     		mov	r0, r3
 415 01c2 BD46     		mov	sp, r7
 416 01c4 07B0     		add	sp, sp, #28
 417              		@ sp needed
 418 01c6 90BD     		pop	{r4, r7, pc}
 419              	.L25:
 420              		.align	2
 421              	.L24:
 422 01c8 34000000 		.word	.L11
 423 01cc 00000000 		.word	cyBle_hidss
 424              		.cfi_endproc
 425              	.LFE4:
 426              		.size	CyBle_HidssSetCharacteristicValue, .-CyBle_HidssSetCharacteristicValue
 427              		.section	.text.CyBle_HidssGetCharacteristicValue,"ax",%progbits
 428              		.align	2
 429              		.global	CyBle_HidssGetCharacteristicValue
 430              		.code	16
 431              		.thumb_func
 432              		.type	CyBle_HidssGetCharacteristicValue, %function
 433              	CyBle_HidssGetCharacteristicValue:
 434              	.LFB5:
 244:Generated_Source\PSoC4/BLE_hids.c **** 
 245:Generated_Source\PSoC4/BLE_hids.c **** 
 246:Generated_Source\PSoC4/BLE_hids.c **** /****************************************************************************** 
 247:Generated_Source\PSoC4/BLE_hids.c **** * Function Name: CyBle_HidssGetCharacteristicValue
 248:Generated_Source\PSoC4/BLE_hids.c **** ***************************************************************************//**
ARM GAS  C:\Users\akita\AppData\Local\Temp\ccIEDY99.s 			page 13


 249:Generated_Source\PSoC4/BLE_hids.c **** * 
 250:Generated_Source\PSoC4/BLE_hids.c **** *  Gets local characteristic value of the specified HID Service characteristics.
 251:Generated_Source\PSoC4/BLE_hids.c **** * 
 252:Generated_Source\PSoC4/BLE_hids.c **** *  \param serviceIndex: The index of the service instance. e.g. If two HID Services are 
 253:Generated_Source\PSoC4/BLE_hids.c **** *                 supported in your design, then first service will be identified
 254:Generated_Source\PSoC4/BLE_hids.c **** *                 by serviceIndex of 0 and the second by serviceIndex of 1.
 255:Generated_Source\PSoC4/BLE_hids.c **** * 
 256:Generated_Source\PSoC4/BLE_hids.c **** *  \param charIndex: The index of the service characteristic. 
 257:Generated_Source\PSoC4/BLE_hids.c **** *              * CYBLE_HIDS_PROTOCOL_MODE - Protocol Mode characteristic
 258:Generated_Source\PSoC4/BLE_hids.c **** *              * CYBLE_HIDS_REPORT_MAP - Report Map characteristic
 259:Generated_Source\PSoC4/BLE_hids.c **** *              * CYBLE_HIDS_INFORMATION - HID Information characteristic
 260:Generated_Source\PSoC4/BLE_hids.c **** *              * CYBLE_HIDS_CONTROL_POINT - HID Control Point characteristic
 261:Generated_Source\PSoC4/BLE_hids.c **** *              * CYBLE_HIDS_BOOT_KYBRD_IN_REP - Boot Keyboard Input Report Characteristic
 262:Generated_Source\PSoC4/BLE_hids.c **** *              * CYBLE_HIDS_BOOT_KYBRD_OUT_REP - Boot Keyboard Output Report Characteristic
 263:Generated_Source\PSoC4/BLE_hids.c **** *              * CYBLE_HIDS_BOOT_MOUSE_IN_REP - Boot Mouse Input Report Characteristic
 264:Generated_Source\PSoC4/BLE_hids.c **** *              * CYBLE_HIDS_REPORT - Report Characteristic
 265:Generated_Source\PSoC4/BLE_hids.c **** * 
 266:Generated_Source\PSoC4/BLE_hids.c **** *  \param attrSize: The size of the characteristic value attribute.
 267:Generated_Source\PSoC4/BLE_hids.c **** * 
 268:Generated_Source\PSoC4/BLE_hids.c **** *  \param attrValue: The pointer to the location where characteristic value data
 269:Generated_Source\PSoC4/BLE_hids.c **** *               should be stored.
 270:Generated_Source\PSoC4/BLE_hids.c **** * 
 271:Generated_Source\PSoC4/BLE_hids.c **** * \return
 272:Generated_Source\PSoC4/BLE_hids.c **** *  Return value is of type CYBLE_API_RESULT_T.
 273:Generated_Source\PSoC4/BLE_hids.c **** *  * CYBLE_ERROR_OK - The request handled successfully
 274:Generated_Source\PSoC4/BLE_hids.c **** *  * CYBLE_ERROR_INVALID_PARAMETER - Validation of the input parameter failed
 275:Generated_Source\PSoC4/BLE_hids.c **** *  * CYBLE_ERROR_GATT_DB_INVALID_ATTR_HANDLE - Optional characteristic is absent
 276:Generated_Source\PSoC4/BLE_hids.c **** *
 277:Generated_Source\PSoC4/BLE_hids.c **** *
 278:Generated_Source\PSoC4/BLE_hids.c **** ******************************************************************************/
 279:Generated_Source\PSoC4/BLE_hids.c **** CYBLE_API_RESULT_T CyBle_HidssGetCharacteristicValue(uint8 serviceIndex, CYBLE_HIDS_CHAR_INDEX_T ch
 280:Generated_Source\PSoC4/BLE_hids.c ****     uint8 attrSize, uint8 *attrValue)
 281:Generated_Source\PSoC4/BLE_hids.c **** {
 435              		.loc 1 281 0
 436              		.cfi_startproc
 437 0000 90B5     		push	{r4, r7, lr}
 438              		.cfi_def_cfa_offset 12
 439              		.cfi_offset 4, -12
 440              		.cfi_offset 7, -8
 441              		.cfi_offset 14, -4
 442 0002 87B0     		sub	sp, sp, #28
 443              		.cfi_def_cfa_offset 40
 444 0004 00AF     		add	r7, sp, #0
 445              		.cfi_def_cfa_register 7
 446 0006 041C     		mov	r4, r0
 447 0008 081C     		mov	r0, r1
 448 000a 111C     		mov	r1, r2
 449 000c 3B60     		str	r3, [r7]
 450 000e FB1D     		add	r3, r7, #7
 451 0010 221C     		add	r2, r4, #0
 452 0012 1A70     		strb	r2, [r3]
 453 0014 BB1D     		add	r3, r7, #6
 454 0016 021C     		add	r2, r0, #0
 455 0018 1A70     		strb	r2, [r3]
 456 001a 7B1D     		add	r3, r7, #5
 457 001c 0A1C     		add	r2, r1, #0
 458 001e 1A70     		strb	r2, [r3]
ARM GAS  C:\Users\akita\AppData\Local\Temp\ccIEDY99.s 			page 14


 282:Generated_Source\PSoC4/BLE_hids.c ****     CYBLE_API_RESULT_T apiResult = CYBLE_ERROR_OK;
 459              		.loc 1 282 0
 460 0020 1623     		mov	r3, #22
 461 0022 FB18     		add	r3, r7, r3
 462 0024 0022     		mov	r2, #0
 463 0026 1A80     		strh	r2, [r3]
 283:Generated_Source\PSoC4/BLE_hids.c ****     CYBLE_GATT_DB_ATTR_HANDLE_T charValueHandle;
 284:Generated_Source\PSoC4/BLE_hids.c ****     CYBLE_GATT_HANDLE_VALUE_PAIR_T locHandleValuePair;
 285:Generated_Source\PSoC4/BLE_hids.c **** 
 286:Generated_Source\PSoC4/BLE_hids.c ****     if((serviceIndex >= CYBLE_HIDSS_SERVICE_COUNT) || (charIndex >= CYBLE_HIDS_CHAR_COUNT))
 464              		.loc 1 286 0
 465 0028 FB1D     		add	r3, r7, #7
 466 002a 1B78     		ldrb	r3, [r3]
 467 002c 002B     		cmp	r3, #0
 468 002e 03D1     		bne	.L27
 469              		.loc 1 286 0 is_stmt 0 discriminator 1
 470 0030 BB1D     		add	r3, r7, #6
 471 0032 1B78     		ldrb	r3, [r3]
 472 0034 082B     		cmp	r3, #8
 473 0036 04D9     		bls	.L28
 474              	.L27:
 287:Generated_Source\PSoC4/BLE_hids.c ****     {
 288:Generated_Source\PSoC4/BLE_hids.c ****         apiResult = CYBLE_ERROR_INVALID_PARAMETER;
 475              		.loc 1 288 0 is_stmt 1
 476 0038 1623     		mov	r3, #22
 477 003a FB18     		add	r3, r7, r3
 478 003c 0122     		mov	r2, #1
 479 003e 1A80     		strh	r2, [r3]
 480 0040 BAE0     		b	.L29
 481              	.L28:
 289:Generated_Source\PSoC4/BLE_hids.c ****     }
 290:Generated_Source\PSoC4/BLE_hids.c ****     else
 291:Generated_Source\PSoC4/BLE_hids.c ****     {
 292:Generated_Source\PSoC4/BLE_hids.c ****         switch(charIndex)
 482              		.loc 1 292 0
 483 0042 BB1D     		add	r3, r7, #6
 484 0044 1B78     		ldrb	r3, [r3]
 485 0046 062B     		cmp	r3, #6
 486 0048 65D8     		bhi	.L30
 487 004a 9A00     		lsl	r2, r3, #2
 488 004c 5E4B     		ldr	r3, .L45
 489 004e D318     		add	r3, r2, r3
 490 0050 1B68     		ldr	r3, [r3]
 491 0052 9F46     		mov	pc, r3
 492              		.section	.rodata
 493              		.align	2
 494              	.L32:
 495 0050 54000000 		.word	.L31
 496 0054 8A000000 		.word	.L33
 497 0058 A6000000 		.word	.L34
 498 005c 6E000000 		.word	.L35
 499 0060 C2000000 		.word	.L36
 500 0064 DE000000 		.word	.L37
 501 0068 FA000000 		.word	.L38
 502              		.section	.text.CyBle_HidssGetCharacteristicValue
 503              	.L31:
 293:Generated_Source\PSoC4/BLE_hids.c ****         {
ARM GAS  C:\Users\akita\AppData\Local\Temp\ccIEDY99.s 			page 15


 294:Generated_Source\PSoC4/BLE_hids.c ****             case CYBLE_HIDS_PROTOCOL_MODE:
 295:Generated_Source\PSoC4/BLE_hids.c ****                 charValueHandle = cyBle_hidss[serviceIndex].protocolModeHandle;
 504              		.loc 1 295 0
 505 0054 FB1D     		add	r3, r7, #7
 506 0056 1A78     		ldrb	r2, [r3]
 507 0058 1423     		mov	r3, #20
 508 005a F918     		add	r1, r7, r3
 509 005c 5B48     		ldr	r0, .L45+4
 510 005e 131C     		mov	r3, r2
 511 0060 9B00     		lsl	r3, r3, #2
 512 0062 9B18     		add	r3, r3, r2
 513 0064 DB00     		lsl	r3, r3, #3
 514 0066 C318     		add	r3, r0, r3
 515 0068 5B88     		ldrh	r3, [r3, #2]
 516 006a 0B80     		strh	r3, [r1]
 296:Generated_Source\PSoC4/BLE_hids.c ****                 break;
 517              		.loc 1 296 0
 518 006c 7DE0     		b	.L39
 519              	.L35:
 297:Generated_Source\PSoC4/BLE_hids.c ****             case CYBLE_HIDS_REPORT_MAP:
 298:Generated_Source\PSoC4/BLE_hids.c ****                 charValueHandle = cyBle_hidss[serviceIndex].reportMapHandle;
 520              		.loc 1 298 0
 521 006e FB1D     		add	r3, r7, #7
 522 0070 1A78     		ldrb	r2, [r3]
 523 0072 1423     		mov	r3, #20
 524 0074 F918     		add	r1, r7, r3
 525 0076 5548     		ldr	r0, .L45+4
 526 0078 131C     		mov	r3, r2
 527 007a 9B00     		lsl	r3, r3, #2
 528 007c 9B18     		add	r3, r3, r2
 529 007e DB00     		lsl	r3, r3, #3
 530 0080 C318     		add	r3, r0, r3
 531 0082 1833     		add	r3, r3, #24
 532 0084 DB88     		ldrh	r3, [r3, #6]
 533 0086 0B80     		strh	r3, [r1]
 299:Generated_Source\PSoC4/BLE_hids.c ****                 break;
 534              		.loc 1 299 0
 535 0088 6FE0     		b	.L39
 536              	.L33:
 300:Generated_Source\PSoC4/BLE_hids.c ****             case CYBLE_HIDS_INFORMATION:
 301:Generated_Source\PSoC4/BLE_hids.c ****                 charValueHandle = cyBle_hidss[serviceIndex].informationHandle;
 537              		.loc 1 301 0
 538 008a FB1D     		add	r3, r7, #7
 539 008c 1A78     		ldrb	r2, [r3]
 540 008e 1423     		mov	r3, #20
 541 0090 F918     		add	r1, r7, r3
 542 0092 4E48     		ldr	r0, .L45+4
 543 0094 131C     		mov	r3, r2
 544 0096 9B00     		lsl	r3, r3, #2
 545 0098 9B18     		add	r3, r3, r2
 546 009a DB00     		lsl	r3, r3, #3
 547 009c C318     		add	r3, r0, r3
 548 009e 2033     		add	r3, r3, #32
 549 00a0 5B88     		ldrh	r3, [r3, #2]
 550 00a2 0B80     		strh	r3, [r1]
 302:Generated_Source\PSoC4/BLE_hids.c ****                 break;
 551              		.loc 1 302 0
ARM GAS  C:\Users\akita\AppData\Local\Temp\ccIEDY99.s 			page 16


 552 00a4 61E0     		b	.L39
 553              	.L34:
 303:Generated_Source\PSoC4/BLE_hids.c ****             case CYBLE_HIDS_CONTROL_POINT:
 304:Generated_Source\PSoC4/BLE_hids.c ****                 charValueHandle = cyBle_hidss[serviceIndex].controlPointHandle;
 554              		.loc 1 304 0
 555 00a6 FB1D     		add	r3, r7, #7
 556 00a8 1A78     		ldrb	r2, [r3]
 557 00aa 1423     		mov	r3, #20
 558 00ac F918     		add	r1, r7, r3
 559 00ae 4748     		ldr	r0, .L45+4
 560 00b0 131C     		mov	r3, r2
 561 00b2 9B00     		lsl	r3, r3, #2
 562 00b4 9B18     		add	r3, r3, r2
 563 00b6 DB00     		lsl	r3, r3, #3
 564 00b8 C318     		add	r3, r0, r3
 565 00ba 2033     		add	r3, r3, #32
 566 00bc 9B88     		ldrh	r3, [r3, #4]
 567 00be 0B80     		strh	r3, [r1]
 305:Generated_Source\PSoC4/BLE_hids.c ****                 break;
 568              		.loc 1 305 0
 569 00c0 53E0     		b	.L39
 570              	.L36:
 306:Generated_Source\PSoC4/BLE_hids.c ****             case CYBLE_HIDS_BOOT_KYBRD_IN_REP:
 307:Generated_Source\PSoC4/BLE_hids.c ****                 charValueHandle =
 308:Generated_Source\PSoC4/BLE_hids.c ****                     cyBle_hidss[serviceIndex].bootReportArray[CYBLE_HIDS_BOOT_KYBRD_IN_REP_INDX].re
 571              		.loc 1 308 0
 572 00c2 FB1D     		add	r3, r7, #7
 573 00c4 1A78     		ldrb	r2, [r3]
 307:Generated_Source\PSoC4/BLE_hids.c ****                     cyBle_hidss[serviceIndex].bootReportArray[CYBLE_HIDS_BOOT_KYBRD_IN_REP_INDX].re
 574              		.loc 1 307 0
 575 00c6 1423     		mov	r3, #20
 576 00c8 F918     		add	r1, r7, r3
 577 00ca 4048     		ldr	r0, .L45+4
 578 00cc 131C     		mov	r3, r2
 579 00ce 9B00     		lsl	r3, r3, #2
 580 00d0 9B18     		add	r3, r3, r2
 581 00d2 DB00     		lsl	r3, r3, #3
 582 00d4 C318     		add	r3, r0, r3
 583 00d6 0833     		add	r3, r3, #8
 584 00d8 9B88     		ldrh	r3, [r3, #4]
 585 00da 0B80     		strh	r3, [r1]
 309:Generated_Source\PSoC4/BLE_hids.c ****                 break;
 586              		.loc 1 309 0
 587 00dc 45E0     		b	.L39
 588              	.L37:
 310:Generated_Source\PSoC4/BLE_hids.c ****             case CYBLE_HIDS_BOOT_KYBRD_OUT_REP:
 311:Generated_Source\PSoC4/BLE_hids.c ****                 charValueHandle =
 312:Generated_Source\PSoC4/BLE_hids.c ****                     cyBle_hidss[serviceIndex].bootReportArray[CYBLE_HIDS_BOOT_KYBRD_OUT_REP_INDX].r
 589              		.loc 1 312 0
 590 00de FB1D     		add	r3, r7, #7
 591 00e0 1A78     		ldrb	r2, [r3]
 311:Generated_Source\PSoC4/BLE_hids.c ****                     cyBle_hidss[serviceIndex].bootReportArray[CYBLE_HIDS_BOOT_KYBRD_OUT_REP_INDX].r
 592              		.loc 1 311 0
 593 00e2 1423     		mov	r3, #20
 594 00e4 F918     		add	r1, r7, r3
 595 00e6 3948     		ldr	r0, .L45+4
 596 00e8 131C     		mov	r3, r2
ARM GAS  C:\Users\akita\AppData\Local\Temp\ccIEDY99.s 			page 17


 597 00ea 9B00     		lsl	r3, r3, #2
 598 00ec 9B18     		add	r3, r3, r2
 599 00ee DB00     		lsl	r3, r3, #3
 600 00f0 C318     		add	r3, r0, r3
 601 00f2 0E33     		add	r3, r3, #14
 602 00f4 9B88     		ldrh	r3, [r3, #4]
 603 00f6 0B80     		strh	r3, [r1]
 313:Generated_Source\PSoC4/BLE_hids.c ****                 break;
 604              		.loc 1 313 0
 605 00f8 37E0     		b	.L39
 606              	.L38:
 314:Generated_Source\PSoC4/BLE_hids.c ****             case CYBLE_HIDS_BOOT_MOUSE_IN_REP:
 315:Generated_Source\PSoC4/BLE_hids.c ****                 charValueHandle =
 316:Generated_Source\PSoC4/BLE_hids.c ****                     cyBle_hidss[serviceIndex].bootReportArray[CYBLE_HIDS_BOOT_MOUSE_IN_REP_INDX].re
 607              		.loc 1 316 0
 608 00fa FB1D     		add	r3, r7, #7
 609 00fc 1A78     		ldrb	r2, [r3]
 315:Generated_Source\PSoC4/BLE_hids.c ****                     cyBle_hidss[serviceIndex].bootReportArray[CYBLE_HIDS_BOOT_MOUSE_IN_REP_INDX].re
 610              		.loc 1 315 0
 611 00fe 1423     		mov	r3, #20
 612 0100 F918     		add	r1, r7, r3
 613 0102 3248     		ldr	r0, .L45+4
 614 0104 131C     		mov	r3, r2
 615 0106 9B00     		lsl	r3, r3, #2
 616 0108 9B18     		add	r3, r3, r2
 617 010a DB00     		lsl	r3, r3, #3
 618 010c C318     		add	r3, r0, r3
 619 010e 1433     		add	r3, r3, #20
 620 0110 9B88     		ldrh	r3, [r3, #4]
 621 0112 0B80     		strh	r3, [r1]
 317:Generated_Source\PSoC4/BLE_hids.c ****                 break;
 622              		.loc 1 317 0
 623 0114 29E0     		b	.L39
 624              	.L30:
 318:Generated_Source\PSoC4/BLE_hids.c ****             default:                    /* Report characteristic */
 319:Generated_Source\PSoC4/BLE_hids.c ****                 /* Verify that requested report exists in particular service */
 320:Generated_Source\PSoC4/BLE_hids.c ****                 if((charIndex - CYBLE_HIDS_REPORT) < cyBle_hidss[serviceIndex].reportCount)
 625              		.loc 1 320 0
 626 0116 BB1D     		add	r3, r7, #6
 627 0118 1B78     		ldrb	r3, [r3]
 628 011a D91F     		sub	r1, r3, #7
 629 011c FB1D     		add	r3, r7, #7
 630 011e 1A78     		ldrb	r2, [r3]
 631 0120 2A48     		ldr	r0, .L45+4
 632 0122 131C     		mov	r3, r2
 633 0124 9B00     		lsl	r3, r3, #2
 634 0126 9B18     		add	r3, r3, r2
 635 0128 DB00     		lsl	r3, r3, #3
 636 012a C318     		add	r3, r0, r3
 637 012c 1B79     		ldrb	r3, [r3, #4]
 638 012e 9942     		cmp	r1, r3
 639 0130 16DA     		bge	.L40
 321:Generated_Source\PSoC4/BLE_hids.c ****                 {
 322:Generated_Source\PSoC4/BLE_hids.c ****                     charValueHandle = cyBle_hidss[serviceIndex].reportArray[charIndex - CYBLE_HIDS_
 640              		.loc 1 322 0
 641 0132 FB1D     		add	r3, r7, #7
 642 0134 1A78     		ldrb	r2, [r3]
ARM GAS  C:\Users\akita\AppData\Local\Temp\ccIEDY99.s 			page 18


 643 0136 2549     		ldr	r1, .L45+4
 644 0138 131C     		mov	r3, r2
 645 013a 9B00     		lsl	r3, r3, #2
 646 013c 9B18     		add	r3, r3, r2
 647 013e DB00     		lsl	r3, r3, #3
 648 0140 CB18     		add	r3, r1, r3
 649 0142 0833     		add	r3, r3, #8
 650 0144 1968     		ldr	r1, [r3]
 651 0146 BB1D     		add	r3, r7, #6
 652 0148 1A78     		ldrb	r2, [r3]
 653 014a 131C     		mov	r3, r2
 654 014c 5B00     		lsl	r3, r3, #1
 655 014e 9B18     		add	r3, r3, r2
 656 0150 5B00     		lsl	r3, r3, #1
 657 0152 2A3B     		sub	r3, r3, #42
 658 0154 CA18     		add	r2, r1, r3
 659 0156 1423     		mov	r3, #20
 660 0158 FB18     		add	r3, r7, r3
 661 015a 1288     		ldrh	r2, [r2]
 662 015c 1A80     		strh	r2, [r3]
 323:Generated_Source\PSoC4/BLE_hids.c ****                 }
 324:Generated_Source\PSoC4/BLE_hids.c ****                 else
 325:Generated_Source\PSoC4/BLE_hids.c ****                 {
 326:Generated_Source\PSoC4/BLE_hids.c ****                     charValueHandle = CYBLE_GATT_INVALID_ATTR_HANDLE_VALUE;
 327:Generated_Source\PSoC4/BLE_hids.c ****                 }
 328:Generated_Source\PSoC4/BLE_hids.c ****                 break;
 663              		.loc 1 328 0
 664 015e 03E0     		b	.L44
 665              	.L40:
 326:Generated_Source\PSoC4/BLE_hids.c ****                 }
 666              		.loc 1 326 0
 667 0160 1423     		mov	r3, #20
 668 0162 FB18     		add	r3, r7, r3
 669 0164 0022     		mov	r2, #0
 670 0166 1A80     		strh	r2, [r3]
 671              	.L44:
 672              		.loc 1 328 0
 673 0168 C046     		mov	r8, r8
 674              	.L39:
 329:Generated_Source\PSoC4/BLE_hids.c ****         }
 330:Generated_Source\PSoC4/BLE_hids.c **** 
 331:Generated_Source\PSoC4/BLE_hids.c ****         if(charValueHandle == CYBLE_GATT_INVALID_ATTR_HANDLE_VALUE)
 675              		.loc 1 331 0
 676 016a 1423     		mov	r3, #20
 677 016c FB18     		add	r3, r7, r3
 678 016e 1B88     		ldrh	r3, [r3]
 679 0170 002B     		cmp	r3, #0
 680 0172 04D1     		bne	.L42
 332:Generated_Source\PSoC4/BLE_hids.c ****         {
 333:Generated_Source\PSoC4/BLE_hids.c ****             apiResult = CYBLE_ERROR_GATT_DB_INVALID_ATTR_HANDLE;
 681              		.loc 1 333 0
 682 0174 1623     		mov	r3, #22
 683 0176 FB18     		add	r3, r7, r3
 684 0178 1322     		mov	r2, #19
 685 017a 1A80     		strh	r2, [r3]
 686 017c 1CE0     		b	.L29
 687              	.L42:
ARM GAS  C:\Users\akita\AppData\Local\Temp\ccIEDY99.s 			page 19


 334:Generated_Source\PSoC4/BLE_hids.c ****         }
 335:Generated_Source\PSoC4/BLE_hids.c ****         else
 336:Generated_Source\PSoC4/BLE_hids.c ****         {
 337:Generated_Source\PSoC4/BLE_hids.c ****             /* Read characteristic value from database */
 338:Generated_Source\PSoC4/BLE_hids.c ****             locHandleValuePair.attrHandle = charValueHandle;
 688              		.loc 1 338 0
 689 017e 0823     		mov	r3, #8
 690 0180 FB18     		add	r3, r7, r3
 691 0182 1422     		mov	r2, #20
 692 0184 BA18     		add	r2, r7, r2
 693 0186 1288     		ldrh	r2, [r2]
 694 0188 1A81     		strh	r2, [r3, #8]
 339:Generated_Source\PSoC4/BLE_hids.c ****             locHandleValuePair.value.len = attrSize;
 695              		.loc 1 339 0
 696 018a 7B1D     		add	r3, r7, #5
 697 018c 1B78     		ldrb	r3, [r3]
 698 018e 9AB2     		uxth	r2, r3
 699 0190 0823     		mov	r3, #8
 700 0192 FB18     		add	r3, r7, r3
 701 0194 9A80     		strh	r2, [r3, #4]
 340:Generated_Source\PSoC4/BLE_hids.c ****             locHandleValuePair.value.val = attrValue;
 702              		.loc 1 340 0
 703 0196 0823     		mov	r3, #8
 704 0198 FB18     		add	r3, r7, r3
 705 019a 3A68     		ldr	r2, [r7]
 706 019c 1A60     		str	r2, [r3]
 341:Generated_Source\PSoC4/BLE_hids.c ****             if(CYBLE_GATT_ERR_NONE !=
 342:Generated_Source\PSoC4/BLE_hids.c ****                 CyBle_GattsReadAttributeValue(&locHandleValuePair, NULL, CYBLE_GATT_DB_LOCALLY_INIT
 707              		.loc 1 342 0
 708 019e 0823     		mov	r3, #8
 709 01a0 FB18     		add	r3, r7, r3
 710 01a2 181C     		mov	r0, r3
 711 01a4 0021     		mov	r1, #0
 712 01a6 0022     		mov	r2, #0
 713 01a8 FFF7FEFF 		bl	CyBle_GattsReadAttributeValue
 714 01ac 031E     		sub	r3, r0, #0
 341:Generated_Source\PSoC4/BLE_hids.c ****             if(CYBLE_GATT_ERR_NONE !=
 715              		.loc 1 341 0
 716 01ae 03D0     		beq	.L29
 343:Generated_Source\PSoC4/BLE_hids.c ****             {
 344:Generated_Source\PSoC4/BLE_hids.c ****                 apiResult = CYBLE_ERROR_INVALID_PARAMETER;
 717              		.loc 1 344 0
 718 01b0 1623     		mov	r3, #22
 719 01b2 FB18     		add	r3, r7, r3
 720 01b4 0122     		mov	r2, #1
 721 01b6 1A80     		strh	r2, [r3]
 722              	.L29:
 345:Generated_Source\PSoC4/BLE_hids.c ****             }
 346:Generated_Source\PSoC4/BLE_hids.c ****         }
 347:Generated_Source\PSoC4/BLE_hids.c ****     }
 348:Generated_Source\PSoC4/BLE_hids.c ****     return (apiResult);
 723              		.loc 1 348 0
 724 01b8 1623     		mov	r3, #22
 725 01ba FB18     		add	r3, r7, r3
 726 01bc 1B88     		ldrh	r3, [r3]
 349:Generated_Source\PSoC4/BLE_hids.c **** }
 727              		.loc 1 349 0
ARM GAS  C:\Users\akita\AppData\Local\Temp\ccIEDY99.s 			page 20


 728 01be 181C     		mov	r0, r3
 729 01c0 BD46     		mov	sp, r7
 730 01c2 07B0     		add	sp, sp, #28
 731              		@ sp needed
 732 01c4 90BD     		pop	{r4, r7, pc}
 733              	.L46:
 734 01c6 C046     		.align	2
 735              	.L45:
 736 01c8 50000000 		.word	.L32
 737 01cc 00000000 		.word	cyBle_hidss
 738              		.cfi_endproc
 739              	.LFE5:
 740              		.size	CyBle_HidssGetCharacteristicValue, .-CyBle_HidssGetCharacteristicValue
 741              		.section	.text.CyBle_HidssGetCharacteristicDescriptor,"ax",%progbits
 742              		.align	2
 743              		.global	CyBle_HidssGetCharacteristicDescriptor
 744              		.code	16
 745              		.thumb_func
 746              		.type	CyBle_HidssGetCharacteristicDescriptor, %function
 747              	CyBle_HidssGetCharacteristicDescriptor:
 748              	.LFB6:
 350:Generated_Source\PSoC4/BLE_hids.c **** 
 351:Generated_Source\PSoC4/BLE_hids.c **** 
 352:Generated_Source\PSoC4/BLE_hids.c **** /****************************************************************************** 
 353:Generated_Source\PSoC4/BLE_hids.c **** * Function Name: CyBle_HidssGetCharacteristicDescriptor
 354:Generated_Source\PSoC4/BLE_hids.c **** ***************************************************************************//**
 355:Generated_Source\PSoC4/BLE_hids.c **** * 
 356:Generated_Source\PSoC4/BLE_hids.c **** *  Gets local characteristic descriptor of the specified HID Service 
 357:Generated_Source\PSoC4/BLE_hids.c **** *  characteristic.
 358:Generated_Source\PSoC4/BLE_hids.c **** * 
 359:Generated_Source\PSoC4/BLE_hids.c **** *  \param serviceIndex: The index of the service instance. e.g. If two HID Services are 
 360:Generated_Source\PSoC4/BLE_hids.c **** *                 supported in your design, then first service will be identified
 361:Generated_Source\PSoC4/BLE_hids.c **** *                 by serviceIndex of 0 and the second by serviceIndex of 1.
 362:Generated_Source\PSoC4/BLE_hids.c **** * 
 363:Generated_Source\PSoC4/BLE_hids.c **** *  \param charIndex: The index of the characteristic.
 364:Generated_Source\PSoC4/BLE_hids.c **** *              * CYBLE_HIDS_REPORT_MAP          - Report Map Characteristic
 365:Generated_Source\PSoC4/BLE_hids.c **** *              * CYBLE_HIDS_BOOT_KYBRD_IN_REP   - Boot Keyboard Input Report Characteristic
 366:Generated_Source\PSoC4/BLE_hids.c **** *              * CYBLE_HIDS_BOOT_KYBRD_OUT_REP  - Boot Keyboard Output Report Characteristic
 367:Generated_Source\PSoC4/BLE_hids.c **** *              * CYBLE_HIDS_BOOT_MOUSE_IN_REP   - Boot Mouse Input Report Characteristic
 368:Generated_Source\PSoC4/BLE_hids.c **** *              * CYBLE_HIDS_REPORT              - Report Characteristic
 369:Generated_Source\PSoC4/BLE_hids.c **** * 
 370:Generated_Source\PSoC4/BLE_hids.c **** *  \param descrIndex: The index of the descriptor.
 371:Generated_Source\PSoC4/BLE_hids.c **** *               * CYBLE_HIDS_REPORT_CCCD - Client Characteristic Configuration descriptor
 372:Generated_Source\PSoC4/BLE_hids.c **** *               * CYBLE_HIDS_REPORT_RRD - Report Reference descriptor
 373:Generated_Source\PSoC4/BLE_hids.c **** *               * CYBLE_HIDS_REPORT_MAP_ERRD - Report Map External Report Reference descriptor
 374:Generated_Source\PSoC4/BLE_hids.c **** * 
 375:Generated_Source\PSoC4/BLE_hids.c **** *  \param attrSize: The size of the descriptor value attribute.
 376:Generated_Source\PSoC4/BLE_hids.c **** * 
 377:Generated_Source\PSoC4/BLE_hids.c **** *  \param attrValue: The pointer to the location where characteristic descriptor
 378:Generated_Source\PSoC4/BLE_hids.c **** *               value data should be stored.
 379:Generated_Source\PSoC4/BLE_hids.c **** * 
 380:Generated_Source\PSoC4/BLE_hids.c **** * \return
 381:Generated_Source\PSoC4/BLE_hids.c **** *  Return value is of type CYBLE_API_RESULT_T.
 382:Generated_Source\PSoC4/BLE_hids.c **** *  * CYBLE_ERROR_OK - The request handled successfully
 383:Generated_Source\PSoC4/BLE_hids.c **** *  * CYBLE_ERROR_INVALID_PARAMETER - Validation of the input parameter failed
 384:Generated_Source\PSoC4/BLE_hids.c **** *  * CYBLE_ERROR_GATT_DB_INVALID_ATTR_HANDLE - Optional descriptor is absent
 385:Generated_Source\PSoC4/BLE_hids.c **** *
ARM GAS  C:\Users\akita\AppData\Local\Temp\ccIEDY99.s 			page 21


 386:Generated_Source\PSoC4/BLE_hids.c **** *
 387:Generated_Source\PSoC4/BLE_hids.c **** ******************************************************************************/
 388:Generated_Source\PSoC4/BLE_hids.c **** CYBLE_API_RESULT_T CyBle_HidssGetCharacteristicDescriptor(uint8 serviceIndex, CYBLE_HIDS_CHAR_INDEX
 389:Generated_Source\PSoC4/BLE_hids.c ****     CYBLE_HIDS_DESCR_T descrIndex, uint8 attrSize, uint8 *attrValue)
 390:Generated_Source\PSoC4/BLE_hids.c **** {
 749              		.loc 1 390 0
 750              		.cfi_startproc
 751 0000 B0B5     		push	{r4, r5, r7, lr}
 752              		.cfi_def_cfa_offset 16
 753              		.cfi_offset 4, -16
 754              		.cfi_offset 5, -12
 755              		.cfi_offset 7, -8
 756              		.cfi_offset 14, -4
 757 0002 88B0     		sub	sp, sp, #32
 758              		.cfi_def_cfa_offset 48
 759 0004 00AF     		add	r7, sp, #0
 760              		.cfi_def_cfa_register 7
 761 0006 051C     		mov	r5, r0
 762 0008 0C1C     		mov	r4, r1
 763 000a 101C     		mov	r0, r2
 764 000c 191C     		mov	r1, r3
 765 000e FB1D     		add	r3, r7, #7
 766 0010 2A1C     		add	r2, r5, #0
 767 0012 1A70     		strb	r2, [r3]
 768 0014 BB1D     		add	r3, r7, #6
 769 0016 221C     		add	r2, r4, #0
 770 0018 1A70     		strb	r2, [r3]
 771 001a 7B1D     		add	r3, r7, #5
 772 001c 021C     		add	r2, r0, #0
 773 001e 1A70     		strb	r2, [r3]
 774 0020 3B1D     		add	r3, r7, #4
 775 0022 0A1C     		add	r2, r1, #0
 776 0024 1A70     		strb	r2, [r3]
 391:Generated_Source\PSoC4/BLE_hids.c ****     CYBLE_API_RESULT_T apiResult = CYBLE_ERROR_OK;
 777              		.loc 1 391 0
 778 0026 1E23     		mov	r3, #30
 779 0028 FB18     		add	r3, r7, r3
 780 002a 0022     		mov	r2, #0
 781 002c 1A80     		strh	r2, [r3]
 392:Generated_Source\PSoC4/BLE_hids.c ****     CYBLE_GATT_DB_ATTR_HANDLE_T locDescrHandle = CYBLE_GATT_INVALID_ATTR_HANDLE_VALUE;
 782              		.loc 1 392 0
 783 002e 1C23     		mov	r3, #28
 784 0030 FB18     		add	r3, r7, r3
 785 0032 0022     		mov	r2, #0
 786 0034 1A80     		strh	r2, [r3]
 393:Generated_Source\PSoC4/BLE_hids.c ****     const CYBLE_HIDSS_REPORT_T *locReport;
 394:Generated_Source\PSoC4/BLE_hids.c ****     CYBLE_GATT_HANDLE_VALUE_PAIR_T locHandleValuePair;
 395:Generated_Source\PSoC4/BLE_hids.c **** 
 396:Generated_Source\PSoC4/BLE_hids.c ****     if((serviceIndex >= CYBLE_HIDSS_SERVICE_COUNT) || (descrIndex >= CYBLE_HIDS_DESCR_COUNT) ||
 787              		.loc 1 396 0
 788 0036 FB1D     		add	r3, r7, #7
 789 0038 1B78     		ldrb	r3, [r3]
 790 003a 002B     		cmp	r3, #0
 791 003c 0FD1     		bne	.L48
 792              		.loc 1 396 0 is_stmt 0 discriminator 1
 793 003e 7B1D     		add	r3, r7, #5
 794 0040 1B78     		ldrb	r3, [r3]
ARM GAS  C:\Users\akita\AppData\Local\Temp\ccIEDY99.s 			page 22


 795 0042 022B     		cmp	r3, #2
 796 0044 0BD8     		bhi	.L48
 797              		.loc 1 396 0 discriminator 2
 798 0046 BB1D     		add	r3, r7, #6
 799 0048 1B78     		ldrb	r3, [r3]
 800 004a 082B     		cmp	r3, #8
 801 004c 07D8     		bhi	.L48
 397:Generated_Source\PSoC4/BLE_hids.c ****        (charIndex >= CYBLE_HIDS_CHAR_COUNT) || (charIndex < CYBLE_HIDS_REPORT_MAP) || 
 802              		.loc 1 397 0 is_stmt 1
 803 004e BB1D     		add	r3, r7, #6
 804 0050 1B78     		ldrb	r3, [r3]
 805 0052 022B     		cmp	r3, #2
 806 0054 03D9     		bls	.L48
 807              		.loc 1 397 0 is_stmt 0 discriminator 1
 808 0056 BB1D     		add	r3, r7, #6
 809 0058 1B78     		ldrb	r3, [r3]
 810 005a 052B     		cmp	r3, #5
 811 005c 04D1     		bne	.L49
 812              	.L48:
 398:Generated_Source\PSoC4/BLE_hids.c ****        (charIndex == CYBLE_HIDS_BOOT_KYBRD_OUT_REP))
 399:Generated_Source\PSoC4/BLE_hids.c ****     {
 400:Generated_Source\PSoC4/BLE_hids.c ****         apiResult = CYBLE_ERROR_INVALID_PARAMETER;
 813              		.loc 1 400 0 is_stmt 1
 814 005e 1E23     		mov	r3, #30
 815 0060 FB18     		add	r3, r7, r3
 816 0062 0122     		mov	r2, #1
 817 0064 1A80     		strh	r2, [r3]
 818 0066 63E0     		b	.L50
 819              	.L49:
 401:Generated_Source\PSoC4/BLE_hids.c ****     }
 402:Generated_Source\PSoC4/BLE_hids.c ****     else
 403:Generated_Source\PSoC4/BLE_hids.c ****     {
 404:Generated_Source\PSoC4/BLE_hids.c ****         if(charIndex == CYBLE_HIDS_REPORT_MAP)
 820              		.loc 1 404 0
 821 0068 BB1D     		add	r3, r7, #6
 822 006a 1B78     		ldrb	r3, [r3]
 823 006c 032B     		cmp	r3, #3
 824 006e 16D1     		bne	.L51
 405:Generated_Source\PSoC4/BLE_hids.c ****         {
 406:Generated_Source\PSoC4/BLE_hids.c ****             if(descrIndex == CYBLE_HIDS_REPORT_MAP_ERRD)
 825              		.loc 1 406 0
 826 0070 7B1D     		add	r3, r7, #5
 827 0072 1B78     		ldrb	r3, [r3]
 828 0074 022B     		cmp	r3, #2
 829 0076 0DD1     		bne	.L52
 407:Generated_Source\PSoC4/BLE_hids.c ****             {
 408:Generated_Source\PSoC4/BLE_hids.c ****                 locDescrHandle = cyBle_hidss[serviceIndex].reportMapErrdHandle;
 830              		.loc 1 408 0
 831 0078 FB1D     		add	r3, r7, #7
 832 007a 1A78     		ldrb	r2, [r3]
 833 007c 1C23     		mov	r3, #28
 834 007e F918     		add	r1, r7, r3
 835 0080 4548     		ldr	r0, .L61
 836 0082 131C     		mov	r3, r2
 837 0084 9B00     		lsl	r3, r3, #2
 838 0086 9B18     		add	r3, r3, r2
 839 0088 DB00     		lsl	r3, r3, #3
ARM GAS  C:\Users\akita\AppData\Local\Temp\ccIEDY99.s 			page 23


 840 008a C318     		add	r3, r0, r3
 841 008c 2033     		add	r3, r3, #32
 842 008e 1B88     		ldrh	r3, [r3]
 843 0090 0B80     		strh	r3, [r1]
 844 0092 4DE0     		b	.L50
 845              	.L52:
 409:Generated_Source\PSoC4/BLE_hids.c ****             }
 410:Generated_Source\PSoC4/BLE_hids.c ****             else
 411:Generated_Source\PSoC4/BLE_hids.c ****             {
 412:Generated_Source\PSoC4/BLE_hids.c ****                 apiResult = CYBLE_ERROR_INVALID_PARAMETER;
 846              		.loc 1 412 0
 847 0094 1E23     		mov	r3, #30
 848 0096 FB18     		add	r3, r7, r3
 849 0098 0122     		mov	r2, #1
 850 009a 1A80     		strh	r2, [r3]
 851 009c 48E0     		b	.L50
 852              	.L51:
 413:Generated_Source\PSoC4/BLE_hids.c ****             }
 414:Generated_Source\PSoC4/BLE_hids.c ****         }
 415:Generated_Source\PSoC4/BLE_hids.c ****         else /* Report characteristics */
 416:Generated_Source\PSoC4/BLE_hids.c ****         {
 417:Generated_Source\PSoC4/BLE_hids.c ****             /* Get report structure */
 418:Generated_Source\PSoC4/BLE_hids.c ****             if((charIndex >= CYBLE_HIDS_BOOT_KYBRD_IN_REP) && (charIndex <= CYBLE_HIDS_BOOT_MOUSE_I
 853              		.loc 1 418 0
 854 009e BB1D     		add	r3, r7, #6
 855 00a0 1B78     		ldrb	r3, [r3]
 856 00a2 032B     		cmp	r3, #3
 857 00a4 19D9     		bls	.L54
 858              		.loc 1 418 0 is_stmt 0 discriminator 1
 859 00a6 BB1D     		add	r3, r7, #6
 860 00a8 1B78     		ldrb	r3, [r3]
 861 00aa 062B     		cmp	r3, #6
 862 00ac 15D8     		bhi	.L54
 419:Generated_Source\PSoC4/BLE_hids.c ****             {
 420:Generated_Source\PSoC4/BLE_hids.c ****                 locReport = &cyBle_hidss[serviceIndex].bootReportArray[charIndex - CYBLE_HIDS_BOOT_
 863              		.loc 1 420 0 is_stmt 1
 864 00ae FB1D     		add	r3, r7, #7
 865 00b0 1978     		ldrb	r1, [r3]
 866 00b2 BB1D     		add	r3, r7, #6
 867 00b4 1B78     		ldrb	r3, [r3]
 868 00b6 043B     		sub	r3, r3, #4
 869 00b8 1A1C     		mov	r2, r3
 870 00ba 5200     		lsl	r2, r2, #1
 871 00bc D218     		add	r2, r2, r3
 872 00be 5300     		lsl	r3, r2, #1
 873 00c0 1A1C     		mov	r2, r3
 874 00c2 0B1C     		mov	r3, r1
 875 00c4 9B00     		lsl	r3, r3, #2
 876 00c6 5B18     		add	r3, r3, r1
 877 00c8 DB00     		lsl	r3, r3, #3
 878 00ca D318     		add	r3, r2, r3
 879 00cc 0833     		add	r3, r3, #8
 880 00ce 1A1C     		mov	r2, r3
 881 00d0 314B     		ldr	r3, .L61
 882 00d2 D318     		add	r3, r2, r3
 883 00d4 0433     		add	r3, r3, #4
 884 00d6 BB61     		str	r3, [r7, #24]
ARM GAS  C:\Users\akita\AppData\Local\Temp\ccIEDY99.s 			page 24


 885 00d8 12E0     		b	.L55
 886              	.L54:
 421:Generated_Source\PSoC4/BLE_hids.c ****             }
 422:Generated_Source\PSoC4/BLE_hids.c ****             else
 423:Generated_Source\PSoC4/BLE_hids.c ****             {
 424:Generated_Source\PSoC4/BLE_hids.c ****                 locReport = &cyBle_hidss[serviceIndex].reportArray[charIndex - CYBLE_HIDS_REPORT];
 887              		.loc 1 424 0
 888 00da FB1D     		add	r3, r7, #7
 889 00dc 1A78     		ldrb	r2, [r3]
 890 00de 2E49     		ldr	r1, .L61
 891 00e0 131C     		mov	r3, r2
 892 00e2 9B00     		lsl	r3, r3, #2
 893 00e4 9B18     		add	r3, r3, r2
 894 00e6 DB00     		lsl	r3, r3, #3
 895 00e8 CB18     		add	r3, r1, r3
 896 00ea 0833     		add	r3, r3, #8
 897 00ec 1968     		ldr	r1, [r3]
 898 00ee BB1D     		add	r3, r7, #6
 899 00f0 1A78     		ldrb	r2, [r3]
 900 00f2 131C     		mov	r3, r2
 901 00f4 5B00     		lsl	r3, r3, #1
 902 00f6 9B18     		add	r3, r3, r2
 903 00f8 5B00     		lsl	r3, r3, #1
 904 00fa 2A3B     		sub	r3, r3, #42
 905 00fc CB18     		add	r3, r1, r3
 906 00fe BB61     		str	r3, [r7, #24]
 907              	.L55:
 425:Generated_Source\PSoC4/BLE_hids.c ****             }
 426:Generated_Source\PSoC4/BLE_hids.c ****             /* Get descriptor handle from report structure */
 427:Generated_Source\PSoC4/BLE_hids.c ****             if(descrIndex == CYBLE_HIDS_REPORT_CCCD)
 908              		.loc 1 427 0
 909 0100 7B1D     		add	r3, r7, #5
 910 0102 1B78     		ldrb	r3, [r3]
 911 0104 002B     		cmp	r3, #0
 912 0106 05D1     		bne	.L56
 428:Generated_Source\PSoC4/BLE_hids.c ****             {
 429:Generated_Source\PSoC4/BLE_hids.c ****                 locDescrHandle = locReport->cccdHandle;
 913              		.loc 1 429 0
 914 0108 1C23     		mov	r3, #28
 915 010a FB18     		add	r3, r7, r3
 916 010c BA69     		ldr	r2, [r7, #24]
 917 010e 5288     		ldrh	r2, [r2, #2]
 918 0110 1A80     		strh	r2, [r3]
 919 0112 0DE0     		b	.L50
 920              	.L56:
 430:Generated_Source\PSoC4/BLE_hids.c ****             }
 431:Generated_Source\PSoC4/BLE_hids.c ****             else if(descrIndex == CYBLE_HIDS_REPORT_RRD)
 921              		.loc 1 431 0
 922 0114 7B1D     		add	r3, r7, #5
 923 0116 1B78     		ldrb	r3, [r3]
 924 0118 012B     		cmp	r3, #1
 925 011a 05D1     		bne	.L57
 432:Generated_Source\PSoC4/BLE_hids.c ****             {
 433:Generated_Source\PSoC4/BLE_hids.c ****                 locDescrHandle = locReport->rrdHandle;
 926              		.loc 1 433 0
 927 011c 1C23     		mov	r3, #28
 928 011e FB18     		add	r3, r7, r3
ARM GAS  C:\Users\akita\AppData\Local\Temp\ccIEDY99.s 			page 25


 929 0120 BA69     		ldr	r2, [r7, #24]
 930 0122 9288     		ldrh	r2, [r2, #4]
 931 0124 1A80     		strh	r2, [r3]
 932 0126 03E0     		b	.L50
 933              	.L57:
 434:Generated_Source\PSoC4/BLE_hids.c ****             }
 435:Generated_Source\PSoC4/BLE_hids.c ****             else /* External Report Reference descriptor doesn't exist for report characteristic */
 436:Generated_Source\PSoC4/BLE_hids.c ****             {
 437:Generated_Source\PSoC4/BLE_hids.c ****                 apiResult = CYBLE_ERROR_INVALID_PARAMETER;
 934              		.loc 1 437 0
 935 0128 1E23     		mov	r3, #30
 936 012a FB18     		add	r3, r7, r3
 937 012c 0122     		mov	r2, #1
 938 012e 1A80     		strh	r2, [r3]
 939              	.L50:
 438:Generated_Source\PSoC4/BLE_hids.c ****             }
 439:Generated_Source\PSoC4/BLE_hids.c ****         }
 440:Generated_Source\PSoC4/BLE_hids.c ****     }
 441:Generated_Source\PSoC4/BLE_hids.c ****     if(apiResult != CYBLE_ERROR_INVALID_PARAMETER)
 940              		.loc 1 441 0
 941 0130 1E23     		mov	r3, #30
 942 0132 FB18     		add	r3, r7, r3
 943 0134 1B88     		ldrh	r3, [r3]
 944 0136 012B     		cmp	r3, #1
 945 0138 26D0     		beq	.L58
 442:Generated_Source\PSoC4/BLE_hids.c ****     {
 443:Generated_Source\PSoC4/BLE_hids.c ****         if(locDescrHandle == CYBLE_GATT_INVALID_ATTR_HANDLE_VALUE)
 946              		.loc 1 443 0
 947 013a 1C23     		mov	r3, #28
 948 013c FB18     		add	r3, r7, r3
 949 013e 1B88     		ldrh	r3, [r3]
 950 0140 002B     		cmp	r3, #0
 951 0142 04D1     		bne	.L59
 444:Generated_Source\PSoC4/BLE_hids.c ****         {
 445:Generated_Source\PSoC4/BLE_hids.c ****             apiResult = CYBLE_ERROR_GATT_DB_INVALID_ATTR_HANDLE;
 952              		.loc 1 445 0
 953 0144 1E23     		mov	r3, #30
 954 0146 FB18     		add	r3, r7, r3
 955 0148 1322     		mov	r2, #19
 956 014a 1A80     		strh	r2, [r3]
 957 014c 1CE0     		b	.L58
 958              	.L59:
 446:Generated_Source\PSoC4/BLE_hids.c ****         }
 447:Generated_Source\PSoC4/BLE_hids.c ****         else
 448:Generated_Source\PSoC4/BLE_hids.c ****         {
 449:Generated_Source\PSoC4/BLE_hids.c ****             /* Read value from database */
 450:Generated_Source\PSoC4/BLE_hids.c ****             locHandleValuePair.attrHandle = locDescrHandle;
 959              		.loc 1 450 0
 960 014e 0C23     		mov	r3, #12
 961 0150 FB18     		add	r3, r7, r3
 962 0152 1C22     		mov	r2, #28
 963 0154 BA18     		add	r2, r7, r2
 964 0156 1288     		ldrh	r2, [r2]
 965 0158 1A81     		strh	r2, [r3, #8]
 451:Generated_Source\PSoC4/BLE_hids.c ****             locHandleValuePair.value.len = attrSize;
 966              		.loc 1 451 0
 967 015a 3B1D     		add	r3, r7, #4
ARM GAS  C:\Users\akita\AppData\Local\Temp\ccIEDY99.s 			page 26


 968 015c 1B78     		ldrb	r3, [r3]
 969 015e 9AB2     		uxth	r2, r3
 970 0160 0C23     		mov	r3, #12
 971 0162 FB18     		add	r3, r7, r3
 972 0164 9A80     		strh	r2, [r3, #4]
 452:Generated_Source\PSoC4/BLE_hids.c ****             locHandleValuePair.value.val = attrValue;
 973              		.loc 1 452 0
 974 0166 0C23     		mov	r3, #12
 975 0168 FB18     		add	r3, r7, r3
 976 016a 3A6B     		ldr	r2, [r7, #48]
 977 016c 1A60     		str	r2, [r3]
 453:Generated_Source\PSoC4/BLE_hids.c ****             if(CYBLE_GATT_ERR_NONE !=
 454:Generated_Source\PSoC4/BLE_hids.c ****                 CyBle_GattsReadAttributeValue(&locHandleValuePair, NULL, CYBLE_GATT_DB_LOCALLY_INIT
 978              		.loc 1 454 0
 979 016e 0C23     		mov	r3, #12
 980 0170 FB18     		add	r3, r7, r3
 981 0172 181C     		mov	r0, r3
 982 0174 0021     		mov	r1, #0
 983 0176 0022     		mov	r2, #0
 984 0178 FFF7FEFF 		bl	CyBle_GattsReadAttributeValue
 985 017c 031E     		sub	r3, r0, #0
 453:Generated_Source\PSoC4/BLE_hids.c ****             if(CYBLE_GATT_ERR_NONE !=
 986              		.loc 1 453 0
 987 017e 03D0     		beq	.L58
 455:Generated_Source\PSoC4/BLE_hids.c ****             {
 456:Generated_Source\PSoC4/BLE_hids.c ****                 apiResult = CYBLE_ERROR_INVALID_PARAMETER;
 988              		.loc 1 456 0
 989 0180 1E23     		mov	r3, #30
 990 0182 FB18     		add	r3, r7, r3
 991 0184 0122     		mov	r2, #1
 992 0186 1A80     		strh	r2, [r3]
 993              	.L58:
 457:Generated_Source\PSoC4/BLE_hids.c ****             }
 458:Generated_Source\PSoC4/BLE_hids.c ****         }
 459:Generated_Source\PSoC4/BLE_hids.c ****     }
 460:Generated_Source\PSoC4/BLE_hids.c ****     return (apiResult);
 994              		.loc 1 460 0
 995 0188 1E23     		mov	r3, #30
 996 018a FB18     		add	r3, r7, r3
 997 018c 1B88     		ldrh	r3, [r3]
 461:Generated_Source\PSoC4/BLE_hids.c **** }
 998              		.loc 1 461 0
 999 018e 181C     		mov	r0, r3
 1000 0190 BD46     		mov	sp, r7
 1001 0192 08B0     		add	sp, sp, #32
 1002              		@ sp needed
 1003 0194 B0BD     		pop	{r4, r5, r7, pc}
 1004              	.L62:
 1005 0196 C046     		.align	2
 1006              	.L61:
 1007 0198 00000000 		.word	cyBle_hidss
 1008              		.cfi_endproc
 1009              	.LFE6:
 1010              		.size	CyBle_HidssGetCharacteristicDescriptor, .-CyBle_HidssGetCharacteristicDescriptor
 1011              		.section	.text.CyBle_HidssCccdWriteEventHandler,"ax",%progbits
 1012              		.align	2
 1013              		.code	16
ARM GAS  C:\Users\akita\AppData\Local\Temp\ccIEDY99.s 			page 27


 1014              		.thumb_func
 1015              		.type	CyBle_HidssCccdWriteEventHandler, %function
 1016              	CyBle_HidssCccdWriteEventHandler:
 1017              	.LFB7:
 462:Generated_Source\PSoC4/BLE_hids.c **** 
 463:Generated_Source\PSoC4/BLE_hids.c **** 
 464:Generated_Source\PSoC4/BLE_hids.c **** /****************************************************************************** 
 465:Generated_Source\PSoC4/BLE_hids.c **** * Function Name: CyBle_HidssCccdWriteEventHandler
 466:Generated_Source\PSoC4/BLE_hids.c **** ***************************************************************************//**
 467:Generated_Source\PSoC4/BLE_hids.c **** * 
 468:Generated_Source\PSoC4/BLE_hids.c **** *  Handles the Write Request Event of the Client Characteristic Configuration
 469:Generated_Source\PSoC4/BLE_hids.c **** *  descriptor.
 470:Generated_Source\PSoC4/BLE_hids.c **** * 
 471:Generated_Source\PSoC4/BLE_hids.c **** *  \param serviceIndex: The index of the service instance.
 472:Generated_Source\PSoC4/BLE_hids.c **** *  \param charIndex: The index of the characteristic.
 473:Generated_Source\PSoC4/BLE_hids.c **** *  \param eventParam: The pointer to the data structure specified by the event.
 474:Generated_Source\PSoC4/BLE_hids.c **** * 
 475:Generated_Source\PSoC4/BLE_hids.c **** * \return
 476:Generated_Source\PSoC4/BLE_hids.c **** *  uint32 eventCode: The event code to be send to application.
 477:Generated_Source\PSoC4/BLE_hids.c **** * 
 478:Generated_Source\PSoC4/BLE_hids.c **** ******************************************************************************/
 479:Generated_Source\PSoC4/BLE_hids.c **** static uint32 CyBle_HidssCccdWriteEventHandler(uint8 serviceIndex, const CYBLE_GATTS_WRITE_REQ_PARA
 480:Generated_Source\PSoC4/BLE_hids.c **** {
 1018              		.loc 1 480 0
 1019              		.cfi_startproc
 1020 0000 80B5     		push	{r7, lr}
 1021              		.cfi_def_cfa_offset 8
 1022              		.cfi_offset 7, -8
 1023              		.cfi_offset 14, -4
 1024 0002 84B0     		sub	sp, sp, #16
 1025              		.cfi_def_cfa_offset 24
 1026 0004 00AF     		add	r7, sp, #0
 1027              		.cfi_def_cfa_register 7
 1028 0006 021C     		mov	r2, r0
 1029 0008 3960     		str	r1, [r7]
 1030 000a FB1D     		add	r3, r7, #7
 1031 000c 1A70     		strb	r2, [r3]
 481:Generated_Source\PSoC4/BLE_hids.c ****     uint32 eventCode;
 482:Generated_Source\PSoC4/BLE_hids.c **** 
 483:Generated_Source\PSoC4/BLE_hids.c ****     if(CYBLE_IS_NOTIFICATION_ENABLED_IN_PTR(eventParam->handleValPair.value.val))
 1032              		.loc 1 483 0
 1033 000e 3B68     		ldr	r3, [r7]
 1034 0010 5B68     		ldr	r3, [r3, #4]
 1035 0012 181C     		mov	r0, r3
 1036 0014 FFF7FEFF 		bl	CyBle_Get16ByPtr
 1037 0018 031C     		mov	r3, r0
 1038 001a 1A1C     		mov	r2, r3
 1039 001c 0123     		mov	r3, #1
 1040 001e 1340     		and	r3, r2
 1041 0020 9BB2     		uxth	r3, r3
 1042 0022 002B     		cmp	r3, #0
 1043 0024 03D0     		beq	.L64
 484:Generated_Source\PSoC4/BLE_hids.c ****     {
 485:Generated_Source\PSoC4/BLE_hids.c ****         eventCode = (uint32)CYBLE_EVT_HIDSS_NOTIFICATION_ENABLED;
 1044              		.loc 1 485 0
 1045 0026 C323     		mov	r3, #195
 1046 0028 5B00     		lsl	r3, r3, #1
ARM GAS  C:\Users\akita\AppData\Local\Temp\ccIEDY99.s 			page 28


 1047 002a FB60     		str	r3, [r7, #12]
 1048 002c 02E0     		b	.L65
 1049              	.L64:
 486:Generated_Source\PSoC4/BLE_hids.c ****     }
 487:Generated_Source\PSoC4/BLE_hids.c ****     else
 488:Generated_Source\PSoC4/BLE_hids.c ****     {
 489:Generated_Source\PSoC4/BLE_hids.c ****         eventCode = (uint32)CYBLE_EVT_HIDSS_NOTIFICATION_DISABLED;
 1050              		.loc 1 489 0
 1051 002e 8823     		mov	r3, #136
 1052 0030 FF33     		add	r3, r3, #255
 1053 0032 FB60     		str	r3, [r7, #12]
 1054              	.L65:
 490:Generated_Source\PSoC4/BLE_hids.c ****     }
 491:Generated_Source\PSoC4/BLE_hids.c ****     cyBle_eventHandlerFlag &= (uint8)~CYBLE_CALLBACK;
 1055              		.loc 1 491 0
 1056 0034 0B4B     		ldr	r3, .L68
 1057 0036 1B78     		ldrb	r3, [r3]
 1058 0038 DBB2     		uxtb	r3, r3
 1059 003a 0122     		mov	r2, #1
 1060 003c 9343     		bic	r3, r2
 1061 003e DAB2     		uxtb	r2, r3
 1062 0040 084B     		ldr	r3, .L68
 1063 0042 1A70     		strb	r2, [r3]
 492:Generated_Source\PSoC4/BLE_hids.c ****     
 493:Generated_Source\PSoC4/BLE_hids.c **** #if((CYBLE_GAP_ROLE_PERIPHERAL || CYBLE_GAP_ROLE_CENTRAL) && (CYBLE_BONDING_REQUIREMENT == CYBLE_BO
 494:Generated_Source\PSoC4/BLE_hids.c ****     /* Set flag to store bonding data to flash */
 495:Generated_Source\PSoC4/BLE_hids.c ****     if(cyBle_peerBonding == CYBLE_GAP_BONDING)
 1064              		.loc 1 495 0
 1065 0044 084B     		ldr	r3, .L68+4
 1066 0046 1B78     		ldrb	r3, [r3]
 1067 0048 012B     		cmp	r3, #1
 1068 004a 06D1     		bne	.L66
 496:Generated_Source\PSoC4/BLE_hids.c ****     {
 497:Generated_Source\PSoC4/BLE_hids.c ****         cyBle_pendingFlashWrite |= CYBLE_PENDING_CCCD_FLASH_WRITE_BIT;
 1069              		.loc 1 497 0
 1070 004c 074B     		ldr	r3, .L68+8
 1071 004e 1B78     		ldrb	r3, [r3]
 1072 0050 0222     		mov	r2, #2
 1073 0052 1343     		orr	r3, r2
 1074 0054 DAB2     		uxtb	r2, r3
 1075 0056 054B     		ldr	r3, .L68+8
 1076 0058 1A70     		strb	r2, [r3]
 1077              	.L66:
 498:Generated_Source\PSoC4/BLE_hids.c ****     }
 499:Generated_Source\PSoC4/BLE_hids.c **** #endif /* (CYBLE_BONDING_REQUIREMENT == CYBLE_BONDING_YES) */
 500:Generated_Source\PSoC4/BLE_hids.c **** 
 501:Generated_Source\PSoC4/BLE_hids.c ****     return(eventCode);
 1078              		.loc 1 501 0
 1079 005a FB68     		ldr	r3, [r7, #12]
 502:Generated_Source\PSoC4/BLE_hids.c **** }
 1080              		.loc 1 502 0
 1081 005c 181C     		mov	r0, r3
 1082 005e BD46     		mov	sp, r7
 1083 0060 04B0     		add	sp, sp, #16
 1084              		@ sp needed
 1085 0062 80BD     		pop	{r7, pc}
 1086              	.L69:
ARM GAS  C:\Users\akita\AppData\Local\Temp\ccIEDY99.s 			page 29


 1087              		.align	2
 1088              	.L68:
 1089 0064 00000000 		.word	cyBle_eventHandlerFlag
 1090 0068 00000000 		.word	cyBle_peerBonding
 1091 006c 00000000 		.word	cyBle_pendingFlashWrite
 1092              		.cfi_endproc
 1093              	.LFE7:
 1094              		.size	CyBle_HidssCccdWriteEventHandler, .-CyBle_HidssCccdWriteEventHandler
 1095              		.section	.text.CyBle_HidssWriteEventHandler,"ax",%progbits
 1096              		.align	2
 1097              		.global	CyBle_HidssWriteEventHandler
 1098              		.code	16
 1099              		.thumb_func
 1100              		.type	CyBle_HidssWriteEventHandler, %function
 1101              	CyBle_HidssWriteEventHandler:
 1102              	.LFB8:
 503:Generated_Source\PSoC4/BLE_hids.c **** 
 504:Generated_Source\PSoC4/BLE_hids.c **** 
 505:Generated_Source\PSoC4/BLE_hids.c **** /****************************************************************************** 
 506:Generated_Source\PSoC4/BLE_hids.c **** * Function Name: CyBle_HidssWriteEventHandler
 507:Generated_Source\PSoC4/BLE_hids.c **** ***************************************************************************//**
 508:Generated_Source\PSoC4/BLE_hids.c **** * 
 509:Generated_Source\PSoC4/BLE_hids.c **** *  Handles the Write Request Event.
 510:Generated_Source\PSoC4/BLE_hids.c **** * 
 511:Generated_Source\PSoC4/BLE_hids.c **** *  \param eventParam: The pointer to the data structure specified by the event.
 512:Generated_Source\PSoC4/BLE_hids.c **** * 
 513:Generated_Source\PSoC4/BLE_hids.c **** * \return
 514:Generated_Source\PSoC4/BLE_hids.c **** *  Return value is of type CYBLE_GATT_ERR_CODE_T.
 515:Generated_Source\PSoC4/BLE_hids.c **** *   * CYBLE_GATT_ERR_NONE - Write is successful.
 516:Generated_Source\PSoC4/BLE_hids.c **** * 
 517:Generated_Source\PSoC4/BLE_hids.c **** ******************************************************************************/
 518:Generated_Source\PSoC4/BLE_hids.c **** CYBLE_GATT_ERR_CODE_T CyBle_HidssWriteEventHandler(CYBLE_GATTS_WRITE_REQ_PARAM_T *eventParam)
 519:Generated_Source\PSoC4/BLE_hids.c **** {
 1103              		.loc 1 519 0
 1104              		.cfi_startproc
 1105 0000 90B5     		push	{r4, r7, lr}
 1106              		.cfi_def_cfa_offset 12
 1107              		.cfi_offset 4, -12
 1108              		.cfi_offset 7, -8
 1109              		.cfi_offset 14, -4
 1110 0002 89B0     		sub	sp, sp, #36
 1111              		.cfi_def_cfa_offset 48
 1112 0004 00AF     		add	r7, sp, #0
 1113              		.cfi_def_cfa_register 7
 1114 0006 7860     		str	r0, [r7, #4]
 520:Generated_Source\PSoC4/BLE_hids.c ****     CYBLE_GATT_ERR_CODE_T gattErr = CYBLE_GATT_ERR_NONE;
 1115              		.loc 1 520 0
 1116 0008 1F23     		mov	r3, #31
 1117 000a FB18     		add	r3, r7, r3
 1118 000c 0022     		mov	r2, #0
 1119 000e 1A70     		strb	r2, [r3]
 521:Generated_Source\PSoC4/BLE_hids.c ****     uint8 locServIndex = 0u;
 1120              		.loc 1 521 0
 1121 0010 1E23     		mov	r3, #30
 1122 0012 FB18     		add	r3, r7, r3
 1123 0014 0022     		mov	r2, #0
 1124 0016 1A70     		strb	r2, [r3]
ARM GAS  C:\Users\akita\AppData\Local\Temp\ccIEDY99.s 			page 30


 522:Generated_Source\PSoC4/BLE_hids.c ****     uint8 reportIndex;
 523:Generated_Source\PSoC4/BLE_hids.c ****     CYBLE_HIDS_CHAR_INDEX_T locCharIndex;
 524:Generated_Source\PSoC4/BLE_hids.c ****     CYBLE_HIDS_CHAR_VALUE_T locCharValue;
 525:Generated_Source\PSoC4/BLE_hids.c ****     uint32 eventCode = 0u;
 1125              		.loc 1 525 0
 1126 0018 0023     		mov	r3, #0
 1127 001a BB61     		str	r3, [r7, #24]
 526:Generated_Source\PSoC4/BLE_hids.c **** 
 527:Generated_Source\PSoC4/BLE_hids.c ****     if(NULL != CyBle_HidsApplCallback)
 1128              		.loc 1 527 0
 1129 001c 9C4B     		ldr	r3, .L96
 1130 001e 1B68     		ldr	r3, [r3]
 1131 0020 002B     		cmp	r3, #0
 1132 0022 00D1     		bne	.LCB1005
 1133 0024 EBE1     		b	.L71	@long jump
 1134              	.LCB1005:
 528:Generated_Source\PSoC4/BLE_hids.c ****     {
 529:Generated_Source\PSoC4/BLE_hids.c ****         locCharValue.connHandle = eventParam->connHandle;
 1135              		.loc 1 529 0
 1136 0026 0C23     		mov	r3, #12
 1137 0028 FB18     		add	r3, r7, r3
 1138 002a 7A68     		ldr	r2, [r7, #4]
 1139 002c 1288     		ldrh	r2, [r2]
 1140 002e 1A80     		strh	r2, [r3]
 530:Generated_Source\PSoC4/BLE_hids.c ****         locCharValue.value = NULL;
 1141              		.loc 1 530 0
 1142 0030 0C23     		mov	r3, #12
 1143 0032 FB18     		add	r3, r7, r3
 1144 0034 0022     		mov	r2, #0
 1145 0036 5A60     		str	r2, [r3, #4]
 1146              	.L94:
 531:Generated_Source\PSoC4/BLE_hids.c ****         do
 532:Generated_Source\PSoC4/BLE_hids.c ****         {
 533:Generated_Source\PSoC4/BLE_hids.c ****             locCharValue.serviceIndex = locServIndex;
 1147              		.loc 1 533 0
 1148 0038 0C23     		mov	r3, #12
 1149 003a FB18     		add	r3, r7, r3
 1150 003c 1E22     		mov	r2, #30
 1151 003e BA18     		add	r2, r7, r2
 1152 0040 1278     		ldrb	r2, [r2]
 1153 0042 9A70     		strb	r2, [r3, #2]
 534:Generated_Source\PSoC4/BLE_hids.c ****             /* Protocol Mode characteristic write request */
 535:Generated_Source\PSoC4/BLE_hids.c ****             if(eventParam->handleValPair.attrHandle == cyBle_hidss[locServIndex].protocolModeHandle
 1154              		.loc 1 535 0
 1155 0044 7B68     		ldr	r3, [r7, #4]
 1156 0046 9989     		ldrh	r1, [r3, #12]
 1157 0048 1E23     		mov	r3, #30
 1158 004a FB18     		add	r3, r7, r3
 1159 004c 1A78     		ldrb	r2, [r3]
 1160 004e 9148     		ldr	r0, .L96+4
 1161 0050 131C     		mov	r3, r2
 1162 0052 9B00     		lsl	r3, r3, #2
 1163 0054 9B18     		add	r3, r3, r2
 1164 0056 DB00     		lsl	r3, r3, #3
 1165 0058 C318     		add	r3, r0, r3
 1166 005a 5B88     		ldrh	r3, [r3, #2]
 1167 005c 9942     		cmp	r1, r3
ARM GAS  C:\Users\akita\AppData\Local\Temp\ccIEDY99.s 			page 31


 1168 005e 29D1     		bne	.L72
 536:Generated_Source\PSoC4/BLE_hids.c ****             {
 537:Generated_Source\PSoC4/BLE_hids.c ****                 locCharValue.charIndex = CYBLE_HIDS_PROTOCOL_MODE;
 1169              		.loc 1 537 0
 1170 0060 0C23     		mov	r3, #12
 1171 0062 FB18     		add	r3, r7, r3
 1172 0064 0022     		mov	r2, #0
 1173 0066 DA70     		strb	r2, [r3, #3]
 538:Generated_Source\PSoC4/BLE_hids.c ****                 if(eventParam->handleValPair.value.len == CYBLE_HIDS_PM_CHAR_LEN)
 1174              		.loc 1 538 0
 1175 0068 7B68     		ldr	r3, [r7, #4]
 1176 006a 1B89     		ldrh	r3, [r3, #8]
 1177 006c 012B     		cmp	r3, #1
 1178 006e 00D0     		beq	.LCB1044
 1179 0070 95E1     		b	.L77	@long jump
 1180              	.LCB1044:
 539:Generated_Source\PSoC4/BLE_hids.c ****                 {
 540:Generated_Source\PSoC4/BLE_hids.c ****                     switch(eventParam->handleValPair.value.val[0u])
 1181              		.loc 1 540 0
 1182 0072 7B68     		ldr	r3, [r7, #4]
 1183 0074 5B68     		ldr	r3, [r3, #4]
 1184 0076 1B78     		ldrb	r3, [r3]
 1185 0078 002B     		cmp	r3, #0
 1186 007a 02D0     		beq	.L75
 1187 007c 012B     		cmp	r3, #1
 1188 007e 0CD0     		beq	.L76
 541:Generated_Source\PSoC4/BLE_hids.c ****                     {
 542:Generated_Source\PSoC4/BLE_hids.c ****                         case CYBLE_HIDS_PROTOCOL_MODE_BOOT:
 543:Generated_Source\PSoC4/BLE_hids.c ****                             eventCode = (uint32)CYBLE_EVT_HIDSS_BOOT_MODE_ENTER;
 544:Generated_Source\PSoC4/BLE_hids.c ****                             cyBle_eventHandlerFlag &= (uint8)~CYBLE_CALLBACK;
 545:Generated_Source\PSoC4/BLE_hids.c ****                             break;
 546:Generated_Source\PSoC4/BLE_hids.c ****                         case CYBLE_HIDS_PROTOCOL_MODE_REPORT:
 547:Generated_Source\PSoC4/BLE_hids.c ****                             eventCode = (uint32)CYBLE_EVT_HIDSS_REPORT_MODE_ENTER;
 548:Generated_Source\PSoC4/BLE_hids.c ****                             cyBle_eventHandlerFlag &= (uint8)~CYBLE_CALLBACK;
 549:Generated_Source\PSoC4/BLE_hids.c ****                             break;
 550:Generated_Source\PSoC4/BLE_hids.c ****                         default:    /* Reserved for Future Use. */
 551:Generated_Source\PSoC4/BLE_hids.c ****                             break;
 1189              		.loc 1 551 0
 1190 0080 17E0     		b	.L73
 1191              	.L75:
 543:Generated_Source\PSoC4/BLE_hids.c ****                             cyBle_eventHandlerFlag &= (uint8)~CYBLE_CALLBACK;
 1192              		.loc 1 543 0
 1193 0082 C423     		mov	r3, #196
 1194 0084 5B00     		lsl	r3, r3, #1
 1195 0086 BB61     		str	r3, [r7, #24]
 544:Generated_Source\PSoC4/BLE_hids.c ****                             break;
 1196              		.loc 1 544 0
 1197 0088 834B     		ldr	r3, .L96+8
 1198 008a 1B78     		ldrb	r3, [r3]
 1199 008c DBB2     		uxtb	r3, r3
 1200 008e 0122     		mov	r2, #1
 1201 0090 9343     		bic	r3, r2
 1202 0092 DAB2     		uxtb	r2, r3
 1203 0094 804B     		ldr	r3, .L96+8
 1204 0096 1A70     		strb	r2, [r3]
 545:Generated_Source\PSoC4/BLE_hids.c ****                         case CYBLE_HIDS_PROTOCOL_MODE_REPORT:
 1205              		.loc 1 545 0
ARM GAS  C:\Users\akita\AppData\Local\Temp\ccIEDY99.s 			page 32


 1206 0098 0BE0     		b	.L73
 1207              	.L76:
 547:Generated_Source\PSoC4/BLE_hids.c ****                             cyBle_eventHandlerFlag &= (uint8)~CYBLE_CALLBACK;
 1208              		.loc 1 547 0
 1209 009a 8A23     		mov	r3, #138
 1210 009c FF33     		add	r3, r3, #255
 1211 009e BB61     		str	r3, [r7, #24]
 548:Generated_Source\PSoC4/BLE_hids.c ****                             break;
 1212              		.loc 1 548 0
 1213 00a0 7D4B     		ldr	r3, .L96+8
 1214 00a2 1B78     		ldrb	r3, [r3]
 1215 00a4 DBB2     		uxtb	r3, r3
 1216 00a6 0122     		mov	r2, #1
 1217 00a8 9343     		bic	r3, r2
 1218 00aa DAB2     		uxtb	r2, r3
 1219 00ac 7A4B     		ldr	r3, .L96+8
 1220 00ae 1A70     		strb	r2, [r3]
 549:Generated_Source\PSoC4/BLE_hids.c ****                         default:    /* Reserved for Future Use. */
 1221              		.loc 1 549 0
 1222 00b0 C046     		mov	r8, r8
 1223              	.L73:
 1224 00b2 74E1     		b	.L77
 1225              	.L72:
 552:Generated_Source\PSoC4/BLE_hids.c ****                     }
 553:Generated_Source\PSoC4/BLE_hids.c ****                 }
 554:Generated_Source\PSoC4/BLE_hids.c ****             }
 555:Generated_Source\PSoC4/BLE_hids.c ****             /* Control Point characteristic write request */
 556:Generated_Source\PSoC4/BLE_hids.c ****             else if(eventParam->handleValPair.attrHandle == cyBle_hidss[locServIndex].controlPointH
 1226              		.loc 1 556 0
 1227 00b4 7B68     		ldr	r3, [r7, #4]
 1228 00b6 9989     		ldrh	r1, [r3, #12]
 1229 00b8 1E23     		mov	r3, #30
 1230 00ba FB18     		add	r3, r7, r3
 1231 00bc 1A78     		ldrb	r2, [r3]
 1232 00be 7548     		ldr	r0, .L96+4
 1233 00c0 131C     		mov	r3, r2
 1234 00c2 9B00     		lsl	r3, r3, #2
 1235 00c4 9B18     		add	r3, r3, r2
 1236 00c6 DB00     		lsl	r3, r3, #3
 1237 00c8 C318     		add	r3, r0, r3
 1238 00ca 2033     		add	r3, r3, #32
 1239 00cc 9B88     		ldrh	r3, [r3, #4]
 1240 00ce 9942     		cmp	r1, r3
 1241 00d0 29D1     		bne	.L78
 557:Generated_Source\PSoC4/BLE_hids.c ****             {
 558:Generated_Source\PSoC4/BLE_hids.c ****                 locCharValue.charIndex = CYBLE_HIDS_CONTROL_POINT;
 1242              		.loc 1 558 0
 1243 00d2 0C23     		mov	r3, #12
 1244 00d4 FB18     		add	r3, r7, r3
 1245 00d6 0222     		mov	r2, #2
 1246 00d8 DA70     		strb	r2, [r3, #3]
 559:Generated_Source\PSoC4/BLE_hids.c ****                 if(eventParam->handleValPair.value.len == CYBLE_HIDS_CP_CHAR_LEN)
 1247              		.loc 1 559 0
 1248 00da 7B68     		ldr	r3, [r7, #4]
 1249 00dc 1B89     		ldrh	r3, [r3, #8]
 1250 00de 012B     		cmp	r3, #1
 1251 00e0 00D0     		beq	.LCB1111
ARM GAS  C:\Users\akita\AppData\Local\Temp\ccIEDY99.s 			page 33


 1252 00e2 5CE1     		b	.L77	@long jump
 1253              	.LCB1111:
 560:Generated_Source\PSoC4/BLE_hids.c ****                 {
 561:Generated_Source\PSoC4/BLE_hids.c ****                     switch(eventParam->handleValPair.value.val[0u])
 1254              		.loc 1 561 0
 1255 00e4 7B68     		ldr	r3, [r7, #4]
 1256 00e6 5B68     		ldr	r3, [r3, #4]
 1257 00e8 1B78     		ldrb	r3, [r3]
 1258 00ea 002B     		cmp	r3, #0
 1259 00ec 02D0     		beq	.L81
 1260 00ee 012B     		cmp	r3, #1
 1261 00f0 0CD0     		beq	.L82
 562:Generated_Source\PSoC4/BLE_hids.c ****                     {
 563:Generated_Source\PSoC4/BLE_hids.c ****                         case CYBLE_HIDS_CP_SUSPEND:
 564:Generated_Source\PSoC4/BLE_hids.c ****                             eventCode = (uint32)CYBLE_EVT_HIDSS_SUSPEND;
 565:Generated_Source\PSoC4/BLE_hids.c ****                             cyBle_eventHandlerFlag &= (uint8)~CYBLE_CALLBACK;
 566:Generated_Source\PSoC4/BLE_hids.c ****                             break;
 567:Generated_Source\PSoC4/BLE_hids.c ****                         case CYBLE_HIDS_CP_EXIT_SUSPEND:
 568:Generated_Source\PSoC4/BLE_hids.c ****                             eventCode = (uint32)CYBLE_EVT_HIDSS_EXIT_SUSPEND;
 569:Generated_Source\PSoC4/BLE_hids.c ****                             cyBle_eventHandlerFlag &= (uint8)~CYBLE_CALLBACK;
 570:Generated_Source\PSoC4/BLE_hids.c ****                             break;
 571:Generated_Source\PSoC4/BLE_hids.c ****                         default:    /* Reserved for Future Use. */
 572:Generated_Source\PSoC4/BLE_hids.c ****                             break;
 1262              		.loc 1 572 0
 1263 00f2 17E0     		b	.L79
 1264              	.L81:
 564:Generated_Source\PSoC4/BLE_hids.c ****                             cyBle_eventHandlerFlag &= (uint8)~CYBLE_CALLBACK;
 1265              		.loc 1 564 0
 1266 00f4 C523     		mov	r3, #197
 1267 00f6 5B00     		lsl	r3, r3, #1
 1268 00f8 BB61     		str	r3, [r7, #24]
 565:Generated_Source\PSoC4/BLE_hids.c ****                             break;
 1269              		.loc 1 565 0
 1270 00fa 674B     		ldr	r3, .L96+8
 1271 00fc 1B78     		ldrb	r3, [r3]
 1272 00fe DBB2     		uxtb	r3, r3
 1273 0100 0122     		mov	r2, #1
 1274 0102 9343     		bic	r3, r2
 1275 0104 DAB2     		uxtb	r2, r3
 1276 0106 644B     		ldr	r3, .L96+8
 1277 0108 1A70     		strb	r2, [r3]
 566:Generated_Source\PSoC4/BLE_hids.c ****                         case CYBLE_HIDS_CP_EXIT_SUSPEND:
 1278              		.loc 1 566 0
 1279 010a 0BE0     		b	.L79
 1280              	.L82:
 568:Generated_Source\PSoC4/BLE_hids.c ****                             cyBle_eventHandlerFlag &= (uint8)~CYBLE_CALLBACK;
 1281              		.loc 1 568 0
 1282 010c 8C23     		mov	r3, #140
 1283 010e FF33     		add	r3, r3, #255
 1284 0110 BB61     		str	r3, [r7, #24]
 569:Generated_Source\PSoC4/BLE_hids.c ****                             break;
 1285              		.loc 1 569 0
 1286 0112 614B     		ldr	r3, .L96+8
 1287 0114 1B78     		ldrb	r3, [r3]
 1288 0116 DBB2     		uxtb	r3, r3
 1289 0118 0122     		mov	r2, #1
 1290 011a 9343     		bic	r3, r2
ARM GAS  C:\Users\akita\AppData\Local\Temp\ccIEDY99.s 			page 34


 1291 011c DAB2     		uxtb	r2, r3
 1292 011e 5E4B     		ldr	r3, .L96+8
 1293 0120 1A70     		strb	r2, [r3]
 570:Generated_Source\PSoC4/BLE_hids.c ****                         default:    /* Reserved for Future Use. */
 1294              		.loc 1 570 0
 1295 0122 C046     		mov	r8, r8
 1296              	.L79:
 1297 0124 3BE1     		b	.L77
 1298              	.L78:
 573:Generated_Source\PSoC4/BLE_hids.c ****                     }
 574:Generated_Source\PSoC4/BLE_hids.c ****                 }
 575:Generated_Source\PSoC4/BLE_hids.c ****             }
 576:Generated_Source\PSoC4/BLE_hids.c ****             else if(eventParam->handleValPair.attrHandle ==
 1299              		.loc 1 576 0
 1300 0126 7B68     		ldr	r3, [r7, #4]
 1301 0128 9989     		ldrh	r1, [r3, #12]
 577:Generated_Source\PSoC4/BLE_hids.c ****                         cyBle_hidss[locServIndex].bootReportArray[CYBLE_HIDS_BOOT_KYBRD_IN_REP_INDX
 1302              		.loc 1 577 0
 1303 012a 1E23     		mov	r3, #30
 1304 012c FB18     		add	r3, r7, r3
 1305 012e 1A78     		ldrb	r2, [r3]
 1306 0130 5848     		ldr	r0, .L96+4
 1307 0132 131C     		mov	r3, r2
 1308 0134 9B00     		lsl	r3, r3, #2
 1309 0136 9B18     		add	r3, r3, r2
 1310 0138 DB00     		lsl	r3, r3, #3
 1311 013a C318     		add	r3, r0, r3
 1312 013c 0833     		add	r3, r3, #8
 1313 013e 9B88     		ldrh	r3, [r3, #4]
 576:Generated_Source\PSoC4/BLE_hids.c ****                         cyBle_hidss[locServIndex].bootReportArray[CYBLE_HIDS_BOOT_KYBRD_IN_REP_INDX
 1314              		.loc 1 576 0
 1315 0140 9942     		cmp	r1, r3
 1316 0142 14D1     		bne	.L83
 578:Generated_Source\PSoC4/BLE_hids.c ****             {
 579:Generated_Source\PSoC4/BLE_hids.c ****                 locCharValue.charIndex = CYBLE_HIDS_BOOT_KYBRD_IN_REP;
 1317              		.loc 1 579 0
 1318 0144 0C23     		mov	r3, #12
 1319 0146 FB18     		add	r3, r7, r3
 1320 0148 0422     		mov	r2, #4
 1321 014a DA70     		strb	r2, [r3, #3]
 580:Generated_Source\PSoC4/BLE_hids.c ****                 locCharValue.value = &eventParam->handleValPair.value;
 1322              		.loc 1 580 0
 1323 014c 7B68     		ldr	r3, [r7, #4]
 1324 014e 1A1D     		add	r2, r3, #4
 1325 0150 0C23     		mov	r3, #12
 1326 0152 FB18     		add	r3, r7, r3
 1327 0154 5A60     		str	r2, [r3, #4]
 581:Generated_Source\PSoC4/BLE_hids.c ****                 eventCode = (uint32)CYBLE_EVT_HIDSS_REPORT_CHAR_WRITE;
 1328              		.loc 1 581 0
 1329 0156 C623     		mov	r3, #198
 1330 0158 5B00     		lsl	r3, r3, #1
 1331 015a BB61     		str	r3, [r7, #24]
 582:Generated_Source\PSoC4/BLE_hids.c ****                 cyBle_eventHandlerFlag &= (uint8)~CYBLE_CALLBACK;
 1332              		.loc 1 582 0
 1333 015c 4E4B     		ldr	r3, .L96+8
 1334 015e 1B78     		ldrb	r3, [r3]
 1335 0160 DBB2     		uxtb	r3, r3
ARM GAS  C:\Users\akita\AppData\Local\Temp\ccIEDY99.s 			page 35


 1336 0162 0122     		mov	r2, #1
 1337 0164 9343     		bic	r3, r2
 1338 0166 DAB2     		uxtb	r2, r3
 1339 0168 4B4B     		ldr	r3, .L96+8
 1340 016a 1A70     		strb	r2, [r3]
 1341 016c 17E1     		b	.L77
 1342              	.L83:
 583:Generated_Source\PSoC4/BLE_hids.c ****             }
 584:Generated_Source\PSoC4/BLE_hids.c ****             else if(eventParam->handleValPair.attrHandle ==
 1343              		.loc 1 584 0
 1344 016e 7B68     		ldr	r3, [r7, #4]
 1345 0170 9989     		ldrh	r1, [r3, #12]
 585:Generated_Source\PSoC4/BLE_hids.c ****                         cyBle_hidss[locServIndex].bootReportArray[CYBLE_HIDS_BOOT_KYBRD_IN_REP_INDX
 1346              		.loc 1 585 0
 1347 0172 1E23     		mov	r3, #30
 1348 0174 FB18     		add	r3, r7, r3
 1349 0176 1A78     		ldrb	r2, [r3]
 1350 0178 4648     		ldr	r0, .L96+4
 1351 017a 131C     		mov	r3, r2
 1352 017c 9B00     		lsl	r3, r3, #2
 1353 017e 9B18     		add	r3, r3, r2
 1354 0180 DB00     		lsl	r3, r3, #3
 1355 0182 C318     		add	r3, r0, r3
 1356 0184 0833     		add	r3, r3, #8
 1357 0186 DB88     		ldrh	r3, [r3, #6]
 584:Generated_Source\PSoC4/BLE_hids.c ****                         cyBle_hidss[locServIndex].bootReportArray[CYBLE_HIDS_BOOT_KYBRD_IN_REP_INDX
 1358              		.loc 1 584 0
 1359 0188 9942     		cmp	r1, r3
 1360 018a 0ED1     		bne	.L84
 586:Generated_Source\PSoC4/BLE_hids.c ****             {
 587:Generated_Source\PSoC4/BLE_hids.c ****                 locCharValue.charIndex = CYBLE_HIDS_BOOT_KYBRD_IN_REP;
 1361              		.loc 1 587 0
 1362 018c 0C23     		mov	r3, #12
 1363 018e FB18     		add	r3, r7, r3
 1364 0190 0422     		mov	r2, #4
 1365 0192 DA70     		strb	r2, [r3, #3]
 588:Generated_Source\PSoC4/BLE_hids.c ****                 eventCode = CyBle_HidssCccdWriteEventHandler(locServIndex, eventParam);
 1366              		.loc 1 588 0
 1367 0194 1E23     		mov	r3, #30
 1368 0196 FB18     		add	r3, r7, r3
 1369 0198 1A78     		ldrb	r2, [r3]
 1370 019a 7B68     		ldr	r3, [r7, #4]
 1371 019c 101C     		mov	r0, r2
 1372 019e 191C     		mov	r1, r3
 1373 01a0 FFF7FEFF 		bl	CyBle_HidssCccdWriteEventHandler
 1374 01a4 031C     		mov	r3, r0
 1375 01a6 BB61     		str	r3, [r7, #24]
 1376 01a8 F9E0     		b	.L77
 1377              	.L84:
 589:Generated_Source\PSoC4/BLE_hids.c ****             }
 590:Generated_Source\PSoC4/BLE_hids.c ****             else if(eventParam->handleValPair.attrHandle ==
 1378              		.loc 1 590 0
 1379 01aa 7B68     		ldr	r3, [r7, #4]
 1380 01ac 9989     		ldrh	r1, [r3, #12]
 591:Generated_Source\PSoC4/BLE_hids.c ****                         cyBle_hidss[locServIndex].bootReportArray[CYBLE_HIDS_BOOT_KYBRD_OUT_REP_IND
 1381              		.loc 1 591 0
 1382 01ae 1E23     		mov	r3, #30
ARM GAS  C:\Users\akita\AppData\Local\Temp\ccIEDY99.s 			page 36


 1383 01b0 FB18     		add	r3, r7, r3
 1384 01b2 1A78     		ldrb	r2, [r3]
 1385 01b4 3748     		ldr	r0, .L96+4
 1386 01b6 131C     		mov	r3, r2
 1387 01b8 9B00     		lsl	r3, r3, #2
 1388 01ba 9B18     		add	r3, r3, r2
 1389 01bc DB00     		lsl	r3, r3, #3
 1390 01be C318     		add	r3, r0, r3
 1391 01c0 0E33     		add	r3, r3, #14
 1392 01c2 9B88     		ldrh	r3, [r3, #4]
 590:Generated_Source\PSoC4/BLE_hids.c ****                         cyBle_hidss[locServIndex].bootReportArray[CYBLE_HIDS_BOOT_KYBRD_OUT_REP_IND
 1393              		.loc 1 590 0
 1394 01c4 9942     		cmp	r1, r3
 1395 01c6 14D1     		bne	.L85
 592:Generated_Source\PSoC4/BLE_hids.c ****             {
 593:Generated_Source\PSoC4/BLE_hids.c ****                 locCharValue.charIndex = CYBLE_HIDS_BOOT_KYBRD_OUT_REP;
 1396              		.loc 1 593 0
 1397 01c8 0C23     		mov	r3, #12
 1398 01ca FB18     		add	r3, r7, r3
 1399 01cc 0522     		mov	r2, #5
 1400 01ce DA70     		strb	r2, [r3, #3]
 594:Generated_Source\PSoC4/BLE_hids.c ****                 locCharValue.value = &eventParam->handleValPair.value;
 1401              		.loc 1 594 0
 1402 01d0 7B68     		ldr	r3, [r7, #4]
 1403 01d2 1A1D     		add	r2, r3, #4
 1404 01d4 0C23     		mov	r3, #12
 1405 01d6 FB18     		add	r3, r7, r3
 1406 01d8 5A60     		str	r2, [r3, #4]
 595:Generated_Source\PSoC4/BLE_hids.c ****                 eventCode = (uint32)CYBLE_EVT_HIDSS_REPORT_CHAR_WRITE;
 1407              		.loc 1 595 0
 1408 01da C623     		mov	r3, #198
 1409 01dc 5B00     		lsl	r3, r3, #1
 1410 01de BB61     		str	r3, [r7, #24]
 596:Generated_Source\PSoC4/BLE_hids.c ****                 cyBle_eventHandlerFlag &= (uint8)~CYBLE_CALLBACK;
 1411              		.loc 1 596 0
 1412 01e0 2D4B     		ldr	r3, .L96+8
 1413 01e2 1B78     		ldrb	r3, [r3]
 1414 01e4 DBB2     		uxtb	r3, r3
 1415 01e6 0122     		mov	r2, #1
 1416 01e8 9343     		bic	r3, r2
 1417 01ea DAB2     		uxtb	r2, r3
 1418 01ec 2A4B     		ldr	r3, .L96+8
 1419 01ee 1A70     		strb	r2, [r3]
 1420 01f0 D5E0     		b	.L77
 1421              	.L85:
 597:Generated_Source\PSoC4/BLE_hids.c ****             }
 598:Generated_Source\PSoC4/BLE_hids.c ****             else if(eventParam->handleValPair.attrHandle ==
 1422              		.loc 1 598 0
 1423 01f2 7B68     		ldr	r3, [r7, #4]
 1424 01f4 9989     		ldrh	r1, [r3, #12]
 599:Generated_Source\PSoC4/BLE_hids.c ****                         cyBle_hidss[locServIndex].bootReportArray[CYBLE_HIDS_BOOT_MOUSE_IN_REP_INDX
 1425              		.loc 1 599 0
 1426 01f6 1E23     		mov	r3, #30
 1427 01f8 FB18     		add	r3, r7, r3
 1428 01fa 1A78     		ldrb	r2, [r3]
 1429 01fc 2548     		ldr	r0, .L96+4
 1430 01fe 131C     		mov	r3, r2
ARM GAS  C:\Users\akita\AppData\Local\Temp\ccIEDY99.s 			page 37


 1431 0200 9B00     		lsl	r3, r3, #2
 1432 0202 9B18     		add	r3, r3, r2
 1433 0204 DB00     		lsl	r3, r3, #3
 1434 0206 C318     		add	r3, r0, r3
 1435 0208 1433     		add	r3, r3, #20
 1436 020a 9B88     		ldrh	r3, [r3, #4]
 598:Generated_Source\PSoC4/BLE_hids.c ****                         cyBle_hidss[locServIndex].bootReportArray[CYBLE_HIDS_BOOT_MOUSE_IN_REP_INDX
 1437              		.loc 1 598 0
 1438 020c 9942     		cmp	r1, r3
 1439 020e 14D1     		bne	.L86
 600:Generated_Source\PSoC4/BLE_hids.c ****             {
 601:Generated_Source\PSoC4/BLE_hids.c ****                 locCharValue.charIndex = CYBLE_HIDS_BOOT_MOUSE_IN_REP;
 1440              		.loc 1 601 0
 1441 0210 0C23     		mov	r3, #12
 1442 0212 FB18     		add	r3, r7, r3
 1443 0214 0622     		mov	r2, #6
 1444 0216 DA70     		strb	r2, [r3, #3]
 602:Generated_Source\PSoC4/BLE_hids.c ****                 locCharValue.value = &eventParam->handleValPair.value;
 1445              		.loc 1 602 0
 1446 0218 7B68     		ldr	r3, [r7, #4]
 1447 021a 1A1D     		add	r2, r3, #4
 1448 021c 0C23     		mov	r3, #12
 1449 021e FB18     		add	r3, r7, r3
 1450 0220 5A60     		str	r2, [r3, #4]
 603:Generated_Source\PSoC4/BLE_hids.c ****                 eventCode = (uint32)CYBLE_EVT_HIDSS_REPORT_CHAR_WRITE;
 1451              		.loc 1 603 0
 1452 0222 C623     		mov	r3, #198
 1453 0224 5B00     		lsl	r3, r3, #1
 1454 0226 BB61     		str	r3, [r7, #24]
 604:Generated_Source\PSoC4/BLE_hids.c ****                 cyBle_eventHandlerFlag &= (uint8)~CYBLE_CALLBACK;
 1455              		.loc 1 604 0
 1456 0228 1B4B     		ldr	r3, .L96+8
 1457 022a 1B78     		ldrb	r3, [r3]
 1458 022c DBB2     		uxtb	r3, r3
 1459 022e 0122     		mov	r2, #1
 1460 0230 9343     		bic	r3, r2
 1461 0232 DAB2     		uxtb	r2, r3
 1462 0234 184B     		ldr	r3, .L96+8
 1463 0236 1A70     		strb	r2, [r3]
 1464 0238 B1E0     		b	.L77
 1465              	.L86:
 605:Generated_Source\PSoC4/BLE_hids.c ****             }
 606:Generated_Source\PSoC4/BLE_hids.c ****             else if(eventParam->handleValPair.attrHandle ==
 1466              		.loc 1 606 0
 1467 023a 7B68     		ldr	r3, [r7, #4]
 1468 023c 9989     		ldrh	r1, [r3, #12]
 607:Generated_Source\PSoC4/BLE_hids.c ****                         cyBle_hidss[locServIndex].bootReportArray[CYBLE_HIDS_BOOT_MOUSE_IN_REP_INDX
 1469              		.loc 1 607 0
 1470 023e 1E23     		mov	r3, #30
 1471 0240 FB18     		add	r3, r7, r3
 1472 0242 1A78     		ldrb	r2, [r3]
 1473 0244 1348     		ldr	r0, .L96+4
 1474 0246 131C     		mov	r3, r2
 1475 0248 9B00     		lsl	r3, r3, #2
 1476 024a 9B18     		add	r3, r3, r2
 1477 024c DB00     		lsl	r3, r3, #3
 1478 024e C318     		add	r3, r0, r3
ARM GAS  C:\Users\akita\AppData\Local\Temp\ccIEDY99.s 			page 38


 1479 0250 1433     		add	r3, r3, #20
 1480 0252 DB88     		ldrh	r3, [r3, #6]
 606:Generated_Source\PSoC4/BLE_hids.c ****                         cyBle_hidss[locServIndex].bootReportArray[CYBLE_HIDS_BOOT_MOUSE_IN_REP_INDX
 1481              		.loc 1 606 0
 1482 0254 9942     		cmp	r1, r3
 1483 0256 0ED1     		bne	.L87
 608:Generated_Source\PSoC4/BLE_hids.c ****             {
 609:Generated_Source\PSoC4/BLE_hids.c ****                 locCharValue.charIndex = CYBLE_HIDS_BOOT_MOUSE_IN_REP;
 1484              		.loc 1 609 0
 1485 0258 0C23     		mov	r3, #12
 1486 025a FB18     		add	r3, r7, r3
 1487 025c 0622     		mov	r2, #6
 1488 025e DA70     		strb	r2, [r3, #3]
 610:Generated_Source\PSoC4/BLE_hids.c ****                 eventCode = CyBle_HidssCccdWriteEventHandler(locServIndex, eventParam);
 1489              		.loc 1 610 0
 1490 0260 1E23     		mov	r3, #30
 1491 0262 FB18     		add	r3, r7, r3
 1492 0264 1A78     		ldrb	r2, [r3]
 1493 0266 7B68     		ldr	r3, [r7, #4]
 1494 0268 101C     		mov	r0, r2
 1495 026a 191C     		mov	r1, r3
 1496 026c FFF7FEFF 		bl	CyBle_HidssCccdWriteEventHandler
 1497 0270 031C     		mov	r3, r0
 1498 0272 BB61     		str	r3, [r7, #24]
 1499 0274 93E0     		b	.L77
 1500              	.L87:
 1501              	.LBB2:
 611:Generated_Source\PSoC4/BLE_hids.c ****             }
 612:Generated_Source\PSoC4/BLE_hids.c ****             else
 613:Generated_Source\PSoC4/BLE_hids.c ****             {
 614:Generated_Source\PSoC4/BLE_hids.c ****                 uint8 locReqHandle = 0u;
 1502              		.loc 1 614 0
 1503 0276 1723     		mov	r3, #23
 1504 0278 FB18     		add	r3, r7, r3
 1505 027a 0022     		mov	r2, #0
 1506 027c 1A70     		strb	r2, [r3]
 615:Generated_Source\PSoC4/BLE_hids.c ****                 
 616:Generated_Source\PSoC4/BLE_hids.c ****                 locCharIndex = CYBLE_HIDS_REPORT;
 1507              		.loc 1 616 0
 1508 027e 1C23     		mov	r3, #28
 1509 0280 FB18     		add	r3, r7, r3
 1510 0282 0722     		mov	r2, #7
 1511 0284 1A70     		strb	r2, [r3]
 617:Generated_Source\PSoC4/BLE_hids.c ****                 for(reportIndex = 0u; (reportIndex < cyBle_hidss[locServIndex].reportCount) && (loc
 1512              		.loc 1 617 0
 1513 0286 1D23     		mov	r3, #29
 1514 0288 FB18     		add	r3, r7, r3
 1515 028a 0022     		mov	r2, #0
 1516 028c 1A70     		strb	r2, [r3]
 1517 028e 71E0     		b	.L88
 1518              	.L97:
 1519              		.align	2
 1520              	.L96:
 1521 0290 00000000 		.word	CyBle_HidsApplCallback
 1522 0294 00000000 		.word	cyBle_hidss
 1523 0298 00000000 		.word	cyBle_eventHandlerFlag
 1524              	.L91:
ARM GAS  C:\Users\akita\AppData\Local\Temp\ccIEDY99.s 			page 39


 618:Generated_Source\PSoC4/BLE_hids.c ****                         reportIndex++)
 619:Generated_Source\PSoC4/BLE_hids.c ****                 {
 620:Generated_Source\PSoC4/BLE_hids.c ****                     if(eventParam->handleValPair.attrHandle == 
 1525              		.loc 1 620 0
 1526 029c 7B68     		ldr	r3, [r7, #4]
 1527 029e 9989     		ldrh	r1, [r3, #12]
 621:Generated_Source\PSoC4/BLE_hids.c ****                         cyBle_hidss[locServIndex].reportArray[reportIndex].reportHandle)
 1528              		.loc 1 621 0
 1529 02a0 1E23     		mov	r3, #30
 1530 02a2 FB18     		add	r3, r7, r3
 1531 02a4 1A78     		ldrb	r2, [r3]
 1532 02a6 5948     		ldr	r0, .L98
 1533 02a8 131C     		mov	r3, r2
 1534 02aa 9B00     		lsl	r3, r3, #2
 1535 02ac 9B18     		add	r3, r3, r2
 1536 02ae DB00     		lsl	r3, r3, #3
 1537 02b0 C318     		add	r3, r0, r3
 1538 02b2 0833     		add	r3, r3, #8
 1539 02b4 1868     		ldr	r0, [r3]
 1540 02b6 1D23     		mov	r3, #29
 1541 02b8 FB18     		add	r3, r7, r3
 1542 02ba 1A78     		ldrb	r2, [r3]
 1543 02bc 131C     		mov	r3, r2
 1544 02be 5B00     		lsl	r3, r3, #1
 1545 02c0 9B18     		add	r3, r3, r2
 1546 02c2 5B00     		lsl	r3, r3, #1
 1547 02c4 C318     		add	r3, r0, r3
 1548 02c6 1B88     		ldrh	r3, [r3]
 620:Generated_Source\PSoC4/BLE_hids.c ****                         cyBle_hidss[locServIndex].reportArray[reportIndex].reportHandle)
 1549              		.loc 1 620 0
 1550 02c8 9942     		cmp	r1, r3
 1551 02ca 19D1     		bne	.L89
 622:Generated_Source\PSoC4/BLE_hids.c ****                     {
 623:Generated_Source\PSoC4/BLE_hids.c ****                         locCharValue.charIndex = locCharIndex;
 1552              		.loc 1 623 0
 1553 02cc 0C23     		mov	r3, #12
 1554 02ce FB18     		add	r3, r7, r3
 1555 02d0 1C22     		mov	r2, #28
 1556 02d2 BA18     		add	r2, r7, r2
 1557 02d4 1278     		ldrb	r2, [r2]
 1558 02d6 DA70     		strb	r2, [r3, #3]
 624:Generated_Source\PSoC4/BLE_hids.c ****                         locCharValue.value = &eventParam->handleValPair.value;
 1559              		.loc 1 624 0
 1560 02d8 7B68     		ldr	r3, [r7, #4]
 1561 02da 1A1D     		add	r2, r3, #4
 1562 02dc 0C23     		mov	r3, #12
 1563 02de FB18     		add	r3, r7, r3
 1564 02e0 5A60     		str	r2, [r3, #4]
 625:Generated_Source\PSoC4/BLE_hids.c ****                         eventCode = (uint32)CYBLE_EVT_HIDSS_REPORT_CHAR_WRITE;
 1565              		.loc 1 625 0
 1566 02e2 C623     		mov	r3, #198
 1567 02e4 5B00     		lsl	r3, r3, #1
 1568 02e6 BB61     		str	r3, [r7, #24]
 626:Generated_Source\PSoC4/BLE_hids.c ****                         cyBle_eventHandlerFlag &= (uint8)~CYBLE_CALLBACK;
 1569              		.loc 1 626 0
 1570 02e8 494B     		ldr	r3, .L98+4
 1571 02ea 1B78     		ldrb	r3, [r3]
ARM GAS  C:\Users\akita\AppData\Local\Temp\ccIEDY99.s 			page 40


 1572 02ec DBB2     		uxtb	r3, r3
 1573 02ee 0122     		mov	r2, #1
 1574 02f0 9343     		bic	r3, r2
 1575 02f2 DAB2     		uxtb	r2, r3
 1576 02f4 464B     		ldr	r3, .L98+4
 1577 02f6 1A70     		strb	r2, [r3]
 627:Generated_Source\PSoC4/BLE_hids.c ****                         locReqHandle = 1u;
 1578              		.loc 1 627 0
 1579 02f8 1723     		mov	r3, #23
 1580 02fa FB18     		add	r3, r7, r3
 1581 02fc 0122     		mov	r2, #1
 1582 02fe 1A70     		strb	r2, [r3]
 1583              	.L89:
 628:Generated_Source\PSoC4/BLE_hids.c ****                     }
 629:Generated_Source\PSoC4/BLE_hids.c ****                     if(eventParam->handleValPair.attrHandle == 
 1584              		.loc 1 629 0
 1585 0300 7B68     		ldr	r3, [r7, #4]
 1586 0302 9989     		ldrh	r1, [r3, #12]
 630:Generated_Source\PSoC4/BLE_hids.c ****                         cyBle_hidss[locServIndex].reportArray[reportIndex].cccdHandle)
 1587              		.loc 1 630 0
 1588 0304 1E23     		mov	r3, #30
 1589 0306 FB18     		add	r3, r7, r3
 1590 0308 1A78     		ldrb	r2, [r3]
 1591 030a 4048     		ldr	r0, .L98
 1592 030c 131C     		mov	r3, r2
 1593 030e 9B00     		lsl	r3, r3, #2
 1594 0310 9B18     		add	r3, r3, r2
 1595 0312 DB00     		lsl	r3, r3, #3
 1596 0314 C318     		add	r3, r0, r3
 1597 0316 0833     		add	r3, r3, #8
 1598 0318 1868     		ldr	r0, [r3]
 1599 031a 1D23     		mov	r3, #29
 1600 031c FB18     		add	r3, r7, r3
 1601 031e 1A78     		ldrb	r2, [r3]
 1602 0320 131C     		mov	r3, r2
 1603 0322 5B00     		lsl	r3, r3, #1
 1604 0324 9B18     		add	r3, r3, r2
 1605 0326 5B00     		lsl	r3, r3, #1
 1606 0328 C318     		add	r3, r0, r3
 1607 032a 5B88     		ldrh	r3, [r3, #2]
 629:Generated_Source\PSoC4/BLE_hids.c ****                         cyBle_hidss[locServIndex].reportArray[reportIndex].cccdHandle)
 1608              		.loc 1 629 0
 1609 032c 9942     		cmp	r1, r3
 1610 032e 13D1     		bne	.L90
 631:Generated_Source\PSoC4/BLE_hids.c ****                     {
 632:Generated_Source\PSoC4/BLE_hids.c ****                         locCharValue.charIndex = locCharIndex;
 1611              		.loc 1 632 0
 1612 0330 0C23     		mov	r3, #12
 1613 0332 FB18     		add	r3, r7, r3
 1614 0334 1C22     		mov	r2, #28
 1615 0336 BA18     		add	r2, r7, r2
 1616 0338 1278     		ldrb	r2, [r2]
 1617 033a DA70     		strb	r2, [r3, #3]
 633:Generated_Source\PSoC4/BLE_hids.c ****                         eventCode = CyBle_HidssCccdWriteEventHandler(locServIndex, eventParam);
 1618              		.loc 1 633 0
 1619 033c 1E23     		mov	r3, #30
 1620 033e FB18     		add	r3, r7, r3
ARM GAS  C:\Users\akita\AppData\Local\Temp\ccIEDY99.s 			page 41


 1621 0340 1A78     		ldrb	r2, [r3]
 1622 0342 7B68     		ldr	r3, [r7, #4]
 1623 0344 101C     		mov	r0, r2
 1624 0346 191C     		mov	r1, r3
 1625 0348 FFF7FEFF 		bl	CyBle_HidssCccdWriteEventHandler
 1626 034c 031C     		mov	r3, r0
 1627 034e BB61     		str	r3, [r7, #24]
 634:Generated_Source\PSoC4/BLE_hids.c ****                         locReqHandle = 1u;
 1628              		.loc 1 634 0
 1629 0350 1723     		mov	r3, #23
 1630 0352 FB18     		add	r3, r7, r3
 1631 0354 0122     		mov	r2, #1
 1632 0356 1A70     		strb	r2, [r3]
 1633              	.L90:
 635:Generated_Source\PSoC4/BLE_hids.c ****                     }
 636:Generated_Source\PSoC4/BLE_hids.c ****                     locCharIndex++;
 1634              		.loc 1 636 0
 1635 0358 1C23     		mov	r3, #28
 1636 035a FB18     		add	r3, r7, r3
 1637 035c 1A78     		ldrb	r2, [r3]
 1638 035e 1C23     		mov	r3, #28
 1639 0360 FB18     		add	r3, r7, r3
 1640 0362 0132     		add	r2, r2, #1
 1641 0364 1A70     		strb	r2, [r3]
 618:Generated_Source\PSoC4/BLE_hids.c ****                 {
 1642              		.loc 1 618 0
 1643 0366 1D23     		mov	r3, #29
 1644 0368 FB18     		add	r3, r7, r3
 1645 036a 1A78     		ldrb	r2, [r3]
 1646 036c 1D23     		mov	r3, #29
 1647 036e FB18     		add	r3, r7, r3
 1648 0370 0132     		add	r2, r2, #1
 1649 0372 1A70     		strb	r2, [r3]
 1650              	.L88:
 617:Generated_Source\PSoC4/BLE_hids.c ****                         reportIndex++)
 1651              		.loc 1 617 0 discriminator 1
 1652 0374 1E23     		mov	r3, #30
 1653 0376 FB18     		add	r3, r7, r3
 1654 0378 1A78     		ldrb	r2, [r3]
 1655 037a 2449     		ldr	r1, .L98
 1656 037c 131C     		mov	r3, r2
 1657 037e 9B00     		lsl	r3, r3, #2
 1658 0380 9B18     		add	r3, r3, r2
 1659 0382 DB00     		lsl	r3, r3, #3
 1660 0384 CB18     		add	r3, r1, r3
 1661 0386 1B79     		ldrb	r3, [r3, #4]
 1662 0388 1D22     		mov	r2, #29
 1663 038a BA18     		add	r2, r7, r2
 1664 038c 1278     		ldrb	r2, [r2]
 1665 038e 9A42     		cmp	r2, r3
 1666 0390 05D2     		bcs	.L77
 617:Generated_Source\PSoC4/BLE_hids.c ****                         reportIndex++)
 1667              		.loc 1 617 0 is_stmt 0 discriminator 2
 1668 0392 1723     		mov	r3, #23
 1669 0394 FB18     		add	r3, r7, r3
 1670 0396 1B78     		ldrb	r3, [r3]
 1671 0398 002B     		cmp	r3, #0
ARM GAS  C:\Users\akita\AppData\Local\Temp\ccIEDY99.s 			page 42


 1672 039a 00D1     		bne	.LCB1494
 1673 039c 7EE7     		b	.L91	@long jump
 1674              	.LCB1494:
 1675              	.L77:
 1676              	.LBE2:
 637:Generated_Source\PSoC4/BLE_hids.c ****                 }
 638:Generated_Source\PSoC4/BLE_hids.c ****             }
 639:Generated_Source\PSoC4/BLE_hids.c ****             locServIndex++;
 1677              		.loc 1 639 0 is_stmt 1
 1678 039e 1E23     		mov	r3, #30
 1679 03a0 FB18     		add	r3, r7, r3
 1680 03a2 1A78     		ldrb	r2, [r3]
 1681 03a4 1E23     		mov	r3, #30
 1682 03a6 FB18     		add	r3, r7, r3
 1683 03a8 0132     		add	r2, r2, #1
 1684 03aa 1A70     		strb	r2, [r3]
 640:Generated_Source\PSoC4/BLE_hids.c ****             /* Store data to database if event is handled */
 641:Generated_Source\PSoC4/BLE_hids.c ****             if((cyBle_eventHandlerFlag & CYBLE_CALLBACK) == 0u)
 1685              		.loc 1 641 0
 1686 03ac 184B     		ldr	r3, .L98+4
 1687 03ae 1B78     		ldrb	r3, [r3]
 1688 03b0 DBB2     		uxtb	r3, r3
 1689 03b2 1A1C     		mov	r2, r3
 1690 03b4 0123     		mov	r3, #1
 1691 03b6 1340     		and	r3, r2
 1692 03b8 1BD1     		bne	.L92
 642:Generated_Source\PSoC4/BLE_hids.c ****             {
 643:Generated_Source\PSoC4/BLE_hids.c ****                 gattErr = CyBle_GattsWriteAttributeValue(&eventParam->handleValPair, 0u, 
 1693              		.loc 1 643 0
 1694 03ba 7B68     		ldr	r3, [r7, #4]
 1695 03bc 1A1D     		add	r2, r3, #4
 1696 03be 7B68     		ldr	r3, [r7, #4]
 1697 03c0 1F21     		mov	r1, #31
 1698 03c2 7C18     		add	r4, r7, r1
 1699 03c4 101C     		mov	r0, r2
 1700 03c6 0021     		mov	r1, #0
 1701 03c8 1A1C     		mov	r2, r3
 1702 03ca 4023     		mov	r3, #64
 1703 03cc FFF7FEFF 		bl	CyBle_GattsWriteAttributeValue
 1704 03d0 031C     		mov	r3, r0
 1705 03d2 2370     		strb	r3, [r4]
 644:Generated_Source\PSoC4/BLE_hids.c ****                     &eventParam->connHandle, CYBLE_GATT_DB_PEER_INITIATED);
 645:Generated_Source\PSoC4/BLE_hids.c ****                 if(gattErr == CYBLE_GATT_ERR_NONE)
 1706              		.loc 1 645 0
 1707 03d4 1F23     		mov	r3, #31
 1708 03d6 FB18     		add	r3, r7, r3
 1709 03d8 1B78     		ldrb	r3, [r3]
 1710 03da 002B     		cmp	r3, #0
 1711 03dc 08D1     		bne	.L93
 646:Generated_Source\PSoC4/BLE_hids.c ****                 {                
 647:Generated_Source\PSoC4/BLE_hids.c ****                     CyBle_HidsApplCallback(eventCode, &locCharValue);
 1712              		.loc 1 647 0
 1713 03de 0D4B     		ldr	r3, .L98+8
 1714 03e0 1B68     		ldr	r3, [r3]
 1715 03e2 B969     		ldr	r1, [r7, #24]
 1716 03e4 0C22     		mov	r2, #12
 1717 03e6 BA18     		add	r2, r7, r2
ARM GAS  C:\Users\akita\AppData\Local\Temp\ccIEDY99.s 			page 43


 1718 03e8 081C     		mov	r0, r1
 1719 03ea 111C     		mov	r1, r2
 1720 03ec 9847     		blx	r3
 648:Generated_Source\PSoC4/BLE_hids.c ****                 }
 649:Generated_Source\PSoC4/BLE_hids.c ****                 break;
 1721              		.loc 1 649 0
 1722 03ee 06E0     		b	.L71
 1723              	.L93:
 1724 03f0 05E0     		b	.L71
 1725              	.L92:
 650:Generated_Source\PSoC4/BLE_hids.c ****             }
 651:Generated_Source\PSoC4/BLE_hids.c ****         }while(locServIndex < CYBLE_HIDSS_SERVICE_COUNT);
 1726              		.loc 1 651 0
 1727 03f2 1E23     		mov	r3, #30
 1728 03f4 FB18     		add	r3, r7, r3
 1729 03f6 1B78     		ldrb	r3, [r3]
 1730 03f8 002B     		cmp	r3, #0
 1731 03fa 00D1     		bne	.LCB1549
 1732 03fc 1CE6     		b	.L94	@long jump
 1733              	.LCB1549:
 1734              	.L71:
 652:Generated_Source\PSoC4/BLE_hids.c ****     }
 653:Generated_Source\PSoC4/BLE_hids.c ****     return (gattErr);
 1735              		.loc 1 653 0
 1736 03fe 1F23     		mov	r3, #31
 1737 0400 FB18     		add	r3, r7, r3
 1738 0402 1B78     		ldrb	r3, [r3]
 654:Generated_Source\PSoC4/BLE_hids.c **** }
 1739              		.loc 1 654 0
 1740 0404 181C     		mov	r0, r3
 1741 0406 BD46     		mov	sp, r7
 1742 0408 09B0     		add	sp, sp, #36
 1743              		@ sp needed
 1744 040a 90BD     		pop	{r4, r7, pc}
 1745              	.L99:
 1746              		.align	2
 1747              	.L98:
 1748 040c 00000000 		.word	cyBle_hidss
 1749 0410 00000000 		.word	cyBle_eventHandlerFlag
 1750 0414 00000000 		.word	CyBle_HidsApplCallback
 1751              		.cfi_endproc
 1752              	.LFE8:
 1753              		.size	CyBle_HidssWriteEventHandler, .-CyBle_HidssWriteEventHandler
 1754              		.section	.text.CyBle_HidssSendNotification,"ax",%progbits
 1755              		.align	2
 1756              		.global	CyBle_HidssSendNotification
 1757              		.code	16
 1758              		.thumb_func
 1759              		.type	CyBle_HidssSendNotification, %function
 1760              	CyBle_HidssSendNotification:
 1761              	.LFB9:
 655:Generated_Source\PSoC4/BLE_hids.c **** 
 656:Generated_Source\PSoC4/BLE_hids.c **** 
 657:Generated_Source\PSoC4/BLE_hids.c **** /****************************************************************************** 
 658:Generated_Source\PSoC4/BLE_hids.c **** * Function Name: CyBle_HidssSendNotification
 659:Generated_Source\PSoC4/BLE_hids.c **** ***************************************************************************//**
 660:Generated_Source\PSoC4/BLE_hids.c **** * 
ARM GAS  C:\Users\akita\AppData\Local\Temp\ccIEDY99.s 			page 44


 661:Generated_Source\PSoC4/BLE_hids.c **** *  Sends specified HID Service characteristic notification to the Client device.
 662:Generated_Source\PSoC4/BLE_hids.c **** * 
 663:Generated_Source\PSoC4/BLE_hids.c **** *  CYBLE_EVT_HIDSC_NOTIFICATION event is received by the peer device, on invoking 
 664:Generated_Source\PSoC4/BLE_hids.c **** *   this function.
 665:Generated_Source\PSoC4/BLE_hids.c **** *
 666:Generated_Source\PSoC4/BLE_hids.c **** *  On enabling notification successfully for a service characteristic, if the GATT
 667:Generated_Source\PSoC4/BLE_hids.c **** *  server has an updated value to be notified to the GATT Client, it sends out a
 668:Generated_Source\PSoC4/BLE_hids.c **** *  'Handle Value Notification' which results in CYBLE_EVT_HIDSC_NOTIFICATION event
 669:Generated_Source\PSoC4/BLE_hids.c **** *  at the GATT Client's end.
 670:Generated_Source\PSoC4/BLE_hids.c **** * 
 671:Generated_Source\PSoC4/BLE_hids.c **** *  \param connHandle: BLE peer device connection handle.
 672:Generated_Source\PSoC4/BLE_hids.c **** *  \param serviceIndex: The index of the HID service instance. e.g. If two HID Services
 673:Generated_Source\PSoC4/BLE_hids.c **** *                 are supported in your design, then first service will be 
 674:Generated_Source\PSoC4/BLE_hids.c **** *                 identified by serviceIndex of 0 and the second by serviceIndex
 675:Generated_Source\PSoC4/BLE_hids.c **** *                 of 1.
 676:Generated_Source\PSoC4/BLE_hids.c **** *  \param charIndex: The index of the service characteristic.
 677:Generated_Source\PSoC4/BLE_hids.c **** *  \param attrSize: The size of the characteristic value attribute.
 678:Generated_Source\PSoC4/BLE_hids.c **** *  \param attrValue: Pointer to the characteristic value data that should be sent to
 679:Generated_Source\PSoC4/BLE_hids.c **** *               the Client device.
 680:Generated_Source\PSoC4/BLE_hids.c **** * 
 681:Generated_Source\PSoC4/BLE_hids.c **** * \return
 682:Generated_Source\PSoC4/BLE_hids.c **** *  Return value is of type CYBLE_API_RESULT_T.
 683:Generated_Source\PSoC4/BLE_hids.c **** *   * CYBLE_ERROR_OK - The request handled successfully
 684:Generated_Source\PSoC4/BLE_hids.c **** *   * CYBLE_ERROR_INVALID_PARAMETER - Validation of the input parameter failed
 685:Generated_Source\PSoC4/BLE_hids.c **** *   * CYBLE_ERROR_INVALID_OPERATION - This operation is not permitted
 686:Generated_Source\PSoC4/BLE_hids.c **** *   * CYBLE_ERROR_GATT_DB_INVALID_ATTR_HANDLE - Optional characteristic is absent
 687:Generated_Source\PSoC4/BLE_hids.c **** *   * CYBLE_ERROR_INVALID_STATE - Connection with the client is not established
 688:Generated_Source\PSoC4/BLE_hids.c **** *   * CYBLE_ERROR_MEMORY_ALLOCATION_FAILED - Memory allocation failed. 
 689:Generated_Source\PSoC4/BLE_hids.c **** * 
 690:Generated_Source\PSoC4/BLE_hids.c **** ******************************************************************************/
 691:Generated_Source\PSoC4/BLE_hids.c **** CYBLE_API_RESULT_T CyBle_HidssSendNotification(CYBLE_CONN_HANDLE_T connHandle,
 692:Generated_Source\PSoC4/BLE_hids.c ****     uint8 serviceIndex, CYBLE_HIDS_CHAR_INDEX_T charIndex, uint8 attrSize, uint8 *attrValue)
 693:Generated_Source\PSoC4/BLE_hids.c **** {
 1762              		.loc 1 693 0
 1763              		.cfi_startproc
 1764 0000 90B5     		push	{r4, r7, lr}
 1765              		.cfi_def_cfa_offset 12
 1766              		.cfi_offset 4, -12
 1767              		.cfi_offset 7, -8
 1768              		.cfi_offset 14, -4
 1769 0002 8BB0     		sub	sp, sp, #44
 1770              		.cfi_def_cfa_offset 56
 1771 0004 00AF     		add	r7, sp, #0
 1772              		.cfi_def_cfa_register 7
 1773 0006 3C1D     		add	r4, r7, #4
 1774 0008 2080     		strh	r0, [r4]
 1775 000a 0C1C     		mov	r4, r1
 1776 000c 101C     		mov	r0, r2
 1777 000e 191C     		mov	r1, r3
 1778 0010 FB1C     		add	r3, r7, #3
 1779 0012 221C     		add	r2, r4, #0
 1780 0014 1A70     		strb	r2, [r3]
 1781 0016 BB1C     		add	r3, r7, #2
 1782 0018 021C     		add	r2, r0, #0
 1783 001a 1A70     		strb	r2, [r3]
 1784 001c 7B1C     		add	r3, r7, #1
 1785 001e 0A1C     		add	r2, r1, #0
ARM GAS  C:\Users\akita\AppData\Local\Temp\ccIEDY99.s 			page 45


 1786 0020 1A70     		strb	r2, [r3]
 694:Generated_Source\PSoC4/BLE_hids.c ****     CYBLE_API_RESULT_T apiResult = CYBLE_ERROR_OK;
 1787              		.loc 1 694 0
 1788 0022 2623     		mov	r3, #38
 1789 0024 FB18     		add	r3, r7, r3
 1790 0026 0022     		mov	r2, #0
 1791 0028 1A80     		strh	r2, [r3]
 695:Generated_Source\PSoC4/BLE_hids.c ****     const CYBLE_HIDSS_REPORT_T *locReport;
 696:Generated_Source\PSoC4/BLE_hids.c ****     CYBLE_GATTS_HANDLE_VALUE_NTF_T ntfReqParam;
 697:Generated_Source\PSoC4/BLE_hids.c ****     CYBLE_GATT_HANDLE_VALUE_PAIR_T locHandleValuePair;
 698:Generated_Source\PSoC4/BLE_hids.c **** 
 699:Generated_Source\PSoC4/BLE_hids.c ****     if((serviceIndex >= CYBLE_HIDSS_SERVICE_COUNT) || (charIndex >= CYBLE_HIDS_CHAR_COUNT))
 1792              		.loc 1 699 0
 1793 002a FB1C     		add	r3, r7, #3
 1794 002c 1B78     		ldrb	r3, [r3]
 1795 002e 002B     		cmp	r3, #0
 1796 0030 03D1     		bne	.L101
 1797              		.loc 1 699 0 is_stmt 0 discriminator 1
 1798 0032 BB1C     		add	r3, r7, #2
 1799 0034 1B78     		ldrb	r3, [r3]
 1800 0036 082B     		cmp	r3, #8
 1801 0038 04D9     		bls	.L102
 1802              	.L101:
 700:Generated_Source\PSoC4/BLE_hids.c ****     {
 701:Generated_Source\PSoC4/BLE_hids.c ****         apiResult = CYBLE_ERROR_INVALID_PARAMETER;
 1803              		.loc 1 701 0 is_stmt 1
 1804 003a 2623     		mov	r3, #38
 1805 003c FB18     		add	r3, r7, r3
 1806 003e 0122     		mov	r2, #1
 1807 0040 1A80     		strh	r2, [r3]
 1808 0042 BAE0     		b	.L103
 1809              	.L102:
 702:Generated_Source\PSoC4/BLE_hids.c ****     }
 703:Generated_Source\PSoC4/BLE_hids.c ****     else
 704:Generated_Source\PSoC4/BLE_hids.c ****     {
 705:Generated_Source\PSoC4/BLE_hids.c ****         if(charIndex == CYBLE_HIDS_BOOT_KYBRD_IN_REP)
 1810              		.loc 1 705 0
 1811 0044 BB1C     		add	r3, r7, #2
 1812 0046 1B78     		ldrb	r3, [r3]
 1813 0048 042B     		cmp	r3, #4
 1814 004a 0CD1     		bne	.L104
 706:Generated_Source\PSoC4/BLE_hids.c ****         {
 707:Generated_Source\PSoC4/BLE_hids.c ****             locReport = &cyBle_hidss[serviceIndex].bootReportArray[CYBLE_HIDS_BOOT_KYBRD_IN_REP_IND
 1815              		.loc 1 707 0
 1816 004c FB1C     		add	r3, r7, #3
 1817 004e 1A78     		ldrb	r2, [r3]
 1818 0050 131C     		mov	r3, r2
 1819 0052 9B00     		lsl	r3, r3, #2
 1820 0054 9B18     		add	r3, r3, r2
 1821 0056 DB00     		lsl	r3, r3, #3
 1822 0058 0833     		add	r3, r3, #8
 1823 005a 1A1C     		mov	r2, r3
 1824 005c 5A4B     		ldr	r3, .L115
 1825 005e D318     		add	r3, r2, r3
 1826 0060 0433     		add	r3, r3, #4
 1827 0062 3B62     		str	r3, [r7, #32]
 1828 0064 43E0     		b	.L105
ARM GAS  C:\Users\akita\AppData\Local\Temp\ccIEDY99.s 			page 46


 1829              	.L104:
 708:Generated_Source\PSoC4/BLE_hids.c ****         }
 709:Generated_Source\PSoC4/BLE_hids.c ****         else if(charIndex == CYBLE_HIDS_BOOT_MOUSE_IN_REP)
 1830              		.loc 1 709 0
 1831 0066 BB1C     		add	r3, r7, #2
 1832 0068 1B78     		ldrb	r3, [r3]
 1833 006a 062B     		cmp	r3, #6
 1834 006c 0CD1     		bne	.L106
 710:Generated_Source\PSoC4/BLE_hids.c ****         {
 711:Generated_Source\PSoC4/BLE_hids.c ****             locReport = &cyBle_hidss[serviceIndex].bootReportArray[CYBLE_HIDS_BOOT_MOUSE_IN_REP_IND
 1835              		.loc 1 711 0
 1836 006e FB1C     		add	r3, r7, #3
 1837 0070 1A78     		ldrb	r2, [r3]
 1838 0072 131C     		mov	r3, r2
 1839 0074 9B00     		lsl	r3, r3, #2
 1840 0076 9B18     		add	r3, r3, r2
 1841 0078 DB00     		lsl	r3, r3, #3
 1842 007a 1433     		add	r3, r3, #20
 1843 007c 1A1C     		mov	r2, r3
 1844 007e 524B     		ldr	r3, .L115
 1845 0080 D318     		add	r3, r2, r3
 1846 0082 0433     		add	r3, r3, #4
 1847 0084 3B62     		str	r3, [r7, #32]
 1848 0086 32E0     		b	.L105
 1849              	.L106:
 712:Generated_Source\PSoC4/BLE_hids.c ****         }
 713:Generated_Source\PSoC4/BLE_hids.c ****         else if((charIndex >= CYBLE_HIDS_REPORT) && (charIndex <= CYBLE_HIDS_REPORT_END))
 1850              		.loc 1 713 0
 1851 0088 BB1C     		add	r3, r7, #2
 1852 008a 1B78     		ldrb	r3, [r3]
 1853 008c 062B     		cmp	r3, #6
 1854 008e 2AD9     		bls	.L107
 1855              		.loc 1 713 0 is_stmt 0 discriminator 1
 1856 0090 BB1C     		add	r3, r7, #2
 1857 0092 1B78     		ldrb	r3, [r3]
 1858 0094 082B     		cmp	r3, #8
 1859 0096 26D8     		bhi	.L107
 714:Generated_Source\PSoC4/BLE_hids.c ****         {
 715:Generated_Source\PSoC4/BLE_hids.c ****             /* Verify that requested report exists in particular service */
 716:Generated_Source\PSoC4/BLE_hids.c ****             if((charIndex - CYBLE_HIDS_REPORT) < cyBle_hidss[serviceIndex].reportCount)
 1860              		.loc 1 716 0 is_stmt 1
 1861 0098 BB1C     		add	r3, r7, #2
 1862 009a 1B78     		ldrb	r3, [r3]
 1863 009c D91F     		sub	r1, r3, #7
 1864 009e FB1C     		add	r3, r7, #3
 1865 00a0 1A78     		ldrb	r2, [r3]
 1866 00a2 4948     		ldr	r0, .L115
 1867 00a4 131C     		mov	r3, r2
 1868 00a6 9B00     		lsl	r3, r3, #2
 1869 00a8 9B18     		add	r3, r3, r2
 1870 00aa DB00     		lsl	r3, r3, #3
 1871 00ac C318     		add	r3, r0, r3
 1872 00ae 1B79     		ldrb	r3, [r3, #4]
 1873 00b0 9942     		cmp	r1, r3
 1874 00b2 13DA     		bge	.L108
 717:Generated_Source\PSoC4/BLE_hids.c ****             {
 718:Generated_Source\PSoC4/BLE_hids.c ****                 locReport = &cyBle_hidss[serviceIndex].reportArray[charIndex - CYBLE_HIDS_REPORT];
ARM GAS  C:\Users\akita\AppData\Local\Temp\ccIEDY99.s 			page 47


 1875              		.loc 1 718 0
 1876 00b4 FB1C     		add	r3, r7, #3
 1877 00b6 1A78     		ldrb	r2, [r3]
 1878 00b8 4349     		ldr	r1, .L115
 1879 00ba 131C     		mov	r3, r2
 1880 00bc 9B00     		lsl	r3, r3, #2
 1881 00be 9B18     		add	r3, r3, r2
 1882 00c0 DB00     		lsl	r3, r3, #3
 1883 00c2 CB18     		add	r3, r1, r3
 1884 00c4 0833     		add	r3, r3, #8
 1885 00c6 1968     		ldr	r1, [r3]
 1886 00c8 BB1C     		add	r3, r7, #2
 1887 00ca 1A78     		ldrb	r2, [r3]
 1888 00cc 131C     		mov	r3, r2
 1889 00ce 5B00     		lsl	r3, r3, #1
 1890 00d0 9B18     		add	r3, r3, r2
 1891 00d2 5B00     		lsl	r3, r3, #1
 1892 00d4 2A3B     		sub	r3, r3, #42
 1893 00d6 CB18     		add	r3, r1, r3
 1894 00d8 3B62     		str	r3, [r7, #32]
 716:Generated_Source\PSoC4/BLE_hids.c ****             {
 1895              		.loc 1 716 0
 1896 00da 08E0     		b	.L105
 1897              	.L108:
 719:Generated_Source\PSoC4/BLE_hids.c ****             }
 720:Generated_Source\PSoC4/BLE_hids.c ****             else
 721:Generated_Source\PSoC4/BLE_hids.c ****             {
 722:Generated_Source\PSoC4/BLE_hids.c ****                 apiResult = CYBLE_ERROR_INVALID_PARAMETER;
 1898              		.loc 1 722 0
 1899 00dc 2623     		mov	r3, #38
 1900 00de FB18     		add	r3, r7, r3
 1901 00e0 0122     		mov	r2, #1
 1902 00e2 1A80     		strh	r2, [r3]
 716:Generated_Source\PSoC4/BLE_hids.c ****             {
 1903              		.loc 1 716 0
 1904 00e4 03E0     		b	.L105
 1905              	.L107:
 723:Generated_Source\PSoC4/BLE_hids.c ****             }
 724:Generated_Source\PSoC4/BLE_hids.c ****         }
 725:Generated_Source\PSoC4/BLE_hids.c ****         else
 726:Generated_Source\PSoC4/BLE_hids.c ****         {
 727:Generated_Source\PSoC4/BLE_hids.c ****             apiResult = CYBLE_ERROR_INVALID_PARAMETER;
 1906              		.loc 1 727 0
 1907 00e6 2623     		mov	r3, #38
 1908 00e8 FB18     		add	r3, r7, r3
 1909 00ea 0122     		mov	r2, #1
 1910 00ec 1A80     		strh	r2, [r3]
 1911              	.L105:
 728:Generated_Source\PSoC4/BLE_hids.c ****         }
 729:Generated_Source\PSoC4/BLE_hids.c ****         if(apiResult == CYBLE_ERROR_OK)
 1912              		.loc 1 729 0
 1913 00ee 2623     		mov	r3, #38
 1914 00f0 FB18     		add	r3, r7, r3
 1915 00f2 1B88     		ldrh	r3, [r3]
 1916 00f4 002B     		cmp	r3, #0
 1917 00f6 60D1     		bne	.L103
 730:Generated_Source\PSoC4/BLE_hids.c ****         {
ARM GAS  C:\Users\akita\AppData\Local\Temp\ccIEDY99.s 			page 48


 731:Generated_Source\PSoC4/BLE_hids.c ****             if(locReport->reportHandle == CYBLE_GATT_INVALID_ATTR_HANDLE_VALUE)
 1918              		.loc 1 731 0
 1919 00f8 3B6A     		ldr	r3, [r7, #32]
 1920 00fa 1B88     		ldrh	r3, [r3]
 1921 00fc 002B     		cmp	r3, #0
 1922 00fe 04D1     		bne	.L110
 732:Generated_Source\PSoC4/BLE_hids.c ****             {
 733:Generated_Source\PSoC4/BLE_hids.c ****                 apiResult = CYBLE_ERROR_GATT_DB_INVALID_ATTR_HANDLE;
 1923              		.loc 1 733 0
 1924 0100 2623     		mov	r3, #38
 1925 0102 FB18     		add	r3, r7, r3
 1926 0104 1322     		mov	r2, #19
 1927 0106 1A80     		strh	r2, [r3]
 1928 0108 57E0     		b	.L103
 1929              	.L110:
 734:Generated_Source\PSoC4/BLE_hids.c ****             }
 735:Generated_Source\PSoC4/BLE_hids.c ****             else
 736:Generated_Source\PSoC4/BLE_hids.c ****             {
 737:Generated_Source\PSoC4/BLE_hids.c ****                 /* Send Notification if it is enabled and connected */
 738:Generated_Source\PSoC4/BLE_hids.c ****                 if(CYBLE_IS_NOTIFICATION_ENABLED(locReport->cccdHandle))
 1930              		.loc 1 738 0
 1931 010a 3B6A     		ldr	r3, [r7, #32]
 1932 010c 5B88     		ldrh	r3, [r3, #2]
 1933 010e 5A1E     		sub	r2, r3, #1
 1934 0110 2E49     		ldr	r1, .L115+4
 1935 0112 131C     		mov	r3, r2
 1936 0114 9B00     		lsl	r3, r3, #2
 1937 0116 9B18     		add	r3, r3, r2
 1938 0118 9B00     		lsl	r3, r3, #2
 1939 011a CB18     		add	r3, r1, r3
 1940 011c 0833     		add	r3, r3, #8
 1941 011e 9B68     		ldr	r3, [r3, #8]
 1942 0120 5B68     		ldr	r3, [r3, #4]
 1943 0122 181C     		mov	r0, r3
 1944 0124 FFF7FEFF 		bl	CyBle_Get16ByPtr
 1945 0128 031C     		mov	r3, r0
 1946 012a 1A1C     		mov	r2, r3
 1947 012c 0123     		mov	r3, #1
 1948 012e 1340     		and	r3, r2
 1949 0130 9BB2     		uxth	r3, r3
 1950 0132 002B     		cmp	r3, #0
 1951 0134 24D0     		beq	.L111
 739:Generated_Source\PSoC4/BLE_hids.c ****                 {
 740:Generated_Source\PSoC4/BLE_hids.c ****                     if(cyBle_state == CYBLE_STATE_CONNECTED)
 1952              		.loc 1 740 0
 1953 0136 264B     		ldr	r3, .L115+8
 1954 0138 1B78     		ldrb	r3, [r3]
 1955 013a 022B     		cmp	r3, #2
 1956 013c 1AD1     		bne	.L112
 741:Generated_Source\PSoC4/BLE_hids.c ****                     {
 742:Generated_Source\PSoC4/BLE_hids.c ****                         /* Fill all fields of write request structure ... */
 743:Generated_Source\PSoC4/BLE_hids.c ****                         ntfReqParam.attrHandle = locReport->reportHandle;
 1957              		.loc 1 743 0
 1958 013e 3B6A     		ldr	r3, [r7, #32]
 1959 0140 1A88     		ldrh	r2, [r3]
 1960 0142 1423     		mov	r3, #20
 1961 0144 FB18     		add	r3, r7, r3
ARM GAS  C:\Users\akita\AppData\Local\Temp\ccIEDY99.s 			page 49


 1962 0146 1A81     		strh	r2, [r3, #8]
 744:Generated_Source\PSoC4/BLE_hids.c ****                         ntfReqParam.value.val = attrValue;
 1963              		.loc 1 744 0
 1964 0148 1423     		mov	r3, #20
 1965 014a FB18     		add	r3, r7, r3
 1966 014c BA6B     		ldr	r2, [r7, #56]
 1967 014e 1A60     		str	r2, [r3]
 745:Generated_Source\PSoC4/BLE_hids.c ****                         ntfReqParam.value.len = attrSize;
 1968              		.loc 1 745 0
 1969 0150 7B1C     		add	r3, r7, #1
 1970 0152 1B78     		ldrb	r3, [r3]
 1971 0154 9AB2     		uxth	r2, r3
 1972 0156 1423     		mov	r3, #20
 1973 0158 FB18     		add	r3, r7, r3
 1974 015a 9A80     		strh	r2, [r3, #4]
 746:Generated_Source\PSoC4/BLE_hids.c **** 
 747:Generated_Source\PSoC4/BLE_hids.c ****                         /* Send notification to client using previously filled structure */
 748:Generated_Source\PSoC4/BLE_hids.c ****                         apiResult = CyBle_GattsNotification(connHandle, &ntfReqParam);
 1975              		.loc 1 748 0
 1976 015c 2623     		mov	r3, #38
 1977 015e FC18     		add	r4, r7, r3
 1978 0160 3B1D     		add	r3, r7, #4
 1979 0162 1422     		mov	r2, #20
 1980 0164 BA18     		add	r2, r7, r2
 1981 0166 1868     		ldr	r0, [r3]
 1982 0168 111C     		mov	r1, r2
 1983 016a FFF7FEFF 		bl	CyBle_GattsNotification
 1984 016e 031C     		mov	r3, r0
 1985 0170 2380     		strh	r3, [r4]
 1986 0172 22E0     		b	.L103
 1987              	.L112:
 749:Generated_Source\PSoC4/BLE_hids.c ****                     }
 750:Generated_Source\PSoC4/BLE_hids.c ****                     else
 751:Generated_Source\PSoC4/BLE_hids.c ****                     {
 752:Generated_Source\PSoC4/BLE_hids.c ****                         apiResult = CYBLE_ERROR_INVALID_STATE;
 1988              		.loc 1 752 0
 1989 0174 2623     		mov	r3, #38
 1990 0176 FB18     		add	r3, r7, r3
 1991 0178 0422     		mov	r2, #4
 1992 017a FF32     		add	r2, r2, #255
 1993 017c 1A80     		strh	r2, [r3]
 1994 017e 1CE0     		b	.L103
 1995              	.L111:
 753:Generated_Source\PSoC4/BLE_hids.c ****                     }
 754:Generated_Source\PSoC4/BLE_hids.c ****                 }
 755:Generated_Source\PSoC4/BLE_hids.c ****                 else    /* Store data in database */
 756:Generated_Source\PSoC4/BLE_hids.c ****                 {
 757:Generated_Source\PSoC4/BLE_hids.c ****                     locHandleValuePair.attrHandle = locReport->reportHandle;
 1996              		.loc 1 757 0
 1997 0180 3B6A     		ldr	r3, [r7, #32]
 1998 0182 1A88     		ldrh	r2, [r3]
 1999 0184 0823     		mov	r3, #8
 2000 0186 FB18     		add	r3, r7, r3
 2001 0188 1A81     		strh	r2, [r3, #8]
 758:Generated_Source\PSoC4/BLE_hids.c ****                     locHandleValuePair.value.len = attrSize;
 2002              		.loc 1 758 0
 2003 018a 7B1C     		add	r3, r7, #1
ARM GAS  C:\Users\akita\AppData\Local\Temp\ccIEDY99.s 			page 50


 2004 018c 1B78     		ldrb	r3, [r3]
 2005 018e 9AB2     		uxth	r2, r3
 2006 0190 0823     		mov	r3, #8
 2007 0192 FB18     		add	r3, r7, r3
 2008 0194 9A80     		strh	r2, [r3, #4]
 759:Generated_Source\PSoC4/BLE_hids.c ****                     locHandleValuePair.value.val = attrValue;
 2009              		.loc 1 759 0
 2010 0196 0823     		mov	r3, #8
 2011 0198 FB18     		add	r3, r7, r3
 2012 019a BA6B     		ldr	r2, [r7, #56]
 2013 019c 1A60     		str	r2, [r3]
 760:Generated_Source\PSoC4/BLE_hids.c ****                     if(CYBLE_GATT_ERR_NONE !=
 761:Generated_Source\PSoC4/BLE_hids.c ****                         CyBle_GattsWriteAttributeValue(&locHandleValuePair, 0u, NULL, CYBLE_GATT_DB
 2014              		.loc 1 761 0
 2015 019e 0823     		mov	r3, #8
 2016 01a0 FB18     		add	r3, r7, r3
 2017 01a2 181C     		mov	r0, r3
 2018 01a4 0021     		mov	r1, #0
 2019 01a6 0022     		mov	r2, #0
 2020 01a8 0023     		mov	r3, #0
 2021 01aa FFF7FEFF 		bl	CyBle_GattsWriteAttributeValue
 2022 01ae 031E     		sub	r3, r0, #0
 760:Generated_Source\PSoC4/BLE_hids.c ****                     if(CYBLE_GATT_ERR_NONE !=
 2023              		.loc 1 760 0
 2024 01b0 03D0     		beq	.L103
 762:Generated_Source\PSoC4/BLE_hids.c ****                     {
 763:Generated_Source\PSoC4/BLE_hids.c ****                         apiResult = CYBLE_ERROR_INVALID_PARAMETER;
 2025              		.loc 1 763 0
 2026 01b2 2623     		mov	r3, #38
 2027 01b4 FB18     		add	r3, r7, r3
 2028 01b6 0122     		mov	r2, #1
 2029 01b8 1A80     		strh	r2, [r3]
 2030              	.L103:
 764:Generated_Source\PSoC4/BLE_hids.c ****                     }
 765:Generated_Source\PSoC4/BLE_hids.c ****                 }
 766:Generated_Source\PSoC4/BLE_hids.c ****             }
 767:Generated_Source\PSoC4/BLE_hids.c ****         }
 768:Generated_Source\PSoC4/BLE_hids.c ****     }
 769:Generated_Source\PSoC4/BLE_hids.c ****     return (apiResult);
 2031              		.loc 1 769 0
 2032 01ba 2623     		mov	r3, #38
 2033 01bc FB18     		add	r3, r7, r3
 2034 01be 1B88     		ldrh	r3, [r3]
 770:Generated_Source\PSoC4/BLE_hids.c **** }
 2035              		.loc 1 770 0
 2036 01c0 181C     		mov	r0, r3
 2037 01c2 BD46     		mov	sp, r7
 2038 01c4 0BB0     		add	sp, sp, #44
 2039              		@ sp needed
 2040 01c6 90BD     		pop	{r4, r7, pc}
 2041              	.L116:
 2042              		.align	2
 2043              	.L115:
 2044 01c8 00000000 		.word	cyBle_hidss
 2045 01cc 00000000 		.word	cyBle_gattDB
 2046 01d0 00000000 		.word	cyBle_state
 2047              		.cfi_endproc
ARM GAS  C:\Users\akita\AppData\Local\Temp\ccIEDY99.s 			page 51


 2048              	.LFE9:
 2049              		.size	CyBle_HidssSendNotification, .-CyBle_HidssSendNotification
 2050              		.section	.text.CyBle_HidssOnDeviceConnected,"ax",%progbits
 2051              		.align	2
 2052              		.global	CyBle_HidssOnDeviceConnected
 2053              		.code	16
 2054              		.thumb_func
 2055              		.type	CyBle_HidssOnDeviceConnected, %function
 2056              	CyBle_HidssOnDeviceConnected:
 2057              	.LFB10:
 771:Generated_Source\PSoC4/BLE_hids.c **** 
 772:Generated_Source\PSoC4/BLE_hids.c **** 
 773:Generated_Source\PSoC4/BLE_hids.c **** /****************************************************************************** 
 774:Generated_Source\PSoC4/BLE_hids.c **** * Function Name: CyBle_HidssOnDeviceConnected
 775:Generated_Source\PSoC4/BLE_hids.c **** ***************************************************************************//**
 776:Generated_Source\PSoC4/BLE_hids.c **** * 
 777:Generated_Source\PSoC4/BLE_hids.c **** *  Handles the connection establishment request.
 778:Generated_Source\PSoC4/BLE_hids.c **** * 
 779:Generated_Source\PSoC4/BLE_hids.c **** * \return
 780:Generated_Source\PSoC4/BLE_hids.c **** *  None
 781:Generated_Source\PSoC4/BLE_hids.c **** * 
 782:Generated_Source\PSoC4/BLE_hids.c **** ******************************************************************************/
 783:Generated_Source\PSoC4/BLE_hids.c **** void CyBle_HidssOnDeviceConnected(void)
 784:Generated_Source\PSoC4/BLE_hids.c **** {
 2058              		.loc 1 784 0
 2059              		.cfi_startproc
 2060 0000 80B5     		push	{r7, lr}
 2061              		.cfi_def_cfa_offset 8
 2062              		.cfi_offset 7, -8
 2063              		.cfi_offset 14, -4
 2064 0002 82B0     		sub	sp, sp, #8
 2065              		.cfi_def_cfa_offset 16
 2066 0004 00AF     		add	r7, sp, #0
 2067              		.cfi_def_cfa_register 7
 785:Generated_Source\PSoC4/BLE_hids.c ****     /* The Protocol Mode characteristic value shall be reset to the default value
 786:Generated_Source\PSoC4/BLE_hids.c ****        following a connection establishment */
 787:Generated_Source\PSoC4/BLE_hids.c ****     uint8 defaultProtocol = CYBLE_HIDS_PROTOCOL_DEFAULT;
 2068              		.loc 1 787 0
 2069 0006 BB1D     		add	r3, r7, #6
 2070 0008 0122     		mov	r2, #1
 2071 000a 1A70     		strb	r2, [r3]
 788:Generated_Source\PSoC4/BLE_hids.c ****     uint8 locServIndex = 0u;
 2072              		.loc 1 788 0
 2073 000c FB1D     		add	r3, r7, #7
 2074 000e 0022     		mov	r2, #0
 2075 0010 1A70     		strb	r2, [r3]
 2076              	.L119:
 789:Generated_Source\PSoC4/BLE_hids.c ****     do
 790:Generated_Source\PSoC4/BLE_hids.c ****     {
 791:Generated_Source\PSoC4/BLE_hids.c ****         if(cyBle_hidss[locServIndex].protocolModeHandle !=
 2077              		.loc 1 791 0
 2078 0012 FB1D     		add	r3, r7, #7
 2079 0014 1A78     		ldrb	r2, [r3]
 2080 0016 1549     		ldr	r1, .L120
 2081 0018 131C     		mov	r3, r2
 2082 001a 9B00     		lsl	r3, r3, #2
 2083 001c 9B18     		add	r3, r3, r2
ARM GAS  C:\Users\akita\AppData\Local\Temp\ccIEDY99.s 			page 52


 2084 001e DB00     		lsl	r3, r3, #3
 2085 0020 CB18     		add	r3, r1, r3
 2086 0022 5B88     		ldrh	r3, [r3, #2]
 2087 0024 002B     		cmp	r3, #0
 2088 0026 15D0     		beq	.L118
 792:Generated_Source\PSoC4/BLE_hids.c ****            CYBLE_GATT_INVALID_ATTR_HANDLE_VALUE)
 793:Generated_Source\PSoC4/BLE_hids.c ****         {
 794:Generated_Source\PSoC4/BLE_hids.c ****             /* Store default protocol value in database */
 795:Generated_Source\PSoC4/BLE_hids.c ****             CYBLE_GATT_DB_ATTR_SET_GEN_VALUE(cyBle_hidss[locServIndex].protocolModeHandle,
 2089              		.loc 1 795 0
 2090 0028 FB1D     		add	r3, r7, #7
 2091 002a 1A78     		ldrb	r2, [r3]
 2092 002c 0F49     		ldr	r1, .L120
 2093 002e 131C     		mov	r3, r2
 2094 0030 9B00     		lsl	r3, r3, #2
 2095 0032 9B18     		add	r3, r3, r2
 2096 0034 DB00     		lsl	r3, r3, #3
 2097 0036 CB18     		add	r3, r1, r3
 2098 0038 5B88     		ldrh	r3, [r3, #2]
 2099 003a 5A1E     		sub	r2, r3, #1
 2100 003c 0C49     		ldr	r1, .L120+4
 2101 003e 131C     		mov	r3, r2
 2102 0040 9B00     		lsl	r3, r3, #2
 2103 0042 9B18     		add	r3, r3, r2
 2104 0044 9B00     		lsl	r3, r3, #2
 2105 0046 CB18     		add	r3, r1, r3
 2106 0048 0833     		add	r3, r3, #8
 2107 004a 9B68     		ldr	r3, [r3, #8]
 2108 004c 5B68     		ldr	r3, [r3, #4]
 2109 004e BA1D     		add	r2, r7, #6
 2110 0050 1278     		ldrb	r2, [r2]
 2111 0052 1A70     		strb	r2, [r3]
 2112              	.L118:
 796:Generated_Source\PSoC4/BLE_hids.c ****                                                     &defaultProtocol, sizeof(defaultProtocol));
 797:Generated_Source\PSoC4/BLE_hids.c ****         }
 798:Generated_Source\PSoC4/BLE_hids.c ****         ++locServIndex;
 2113              		.loc 1 798 0
 2114 0054 FB1D     		add	r3, r7, #7
 2115 0056 FA1D     		add	r2, r7, #7
 2116 0058 1278     		ldrb	r2, [r2]
 2117 005a 0132     		add	r2, r2, #1
 2118 005c 1A70     		strb	r2, [r3]
 799:Generated_Source\PSoC4/BLE_hids.c ****     }while(locServIndex < CYBLE_HIDSS_SERVICE_COUNT);
 2119              		.loc 1 799 0
 2120 005e FB1D     		add	r3, r7, #7
 2121 0060 1B78     		ldrb	r3, [r3]
 2122 0062 002B     		cmp	r3, #0
 2123 0064 D5D0     		beq	.L119
 800:Generated_Source\PSoC4/BLE_hids.c **** }
 2124              		.loc 1 800 0
 2125 0066 BD46     		mov	sp, r7
 2126 0068 02B0     		add	sp, sp, #8
 2127              		@ sp needed
 2128 006a 80BD     		pop	{r7, pc}
 2129              	.L121:
 2130              		.align	2
 2131              	.L120:
ARM GAS  C:\Users\akita\AppData\Local\Temp\ccIEDY99.s 			page 53


 2132 006c 00000000 		.word	cyBle_hidss
 2133 0070 00000000 		.word	cyBle_gattDB
 2134              		.cfi_endproc
 2135              	.LFE10:
 2136              		.size	CyBle_HidssOnDeviceConnected, .-CyBle_HidssOnDeviceConnected
 2137              		.text
 2138              	.Letext0:
 2139              		.file 2 "Generated_Source\\PSoC4\\cytypes.h"
 2140              		.file 3 "Generated_Source\\PSoC4\\BLE_Stack.h"
 2141              		.file 4 "Generated_Source\\PSoC4\\BLE_StackGatt.h"
 2142              		.file 5 "Generated_Source\\PSoC4\\BLE_StackGattServer.h"
 2143              		.file 6 "Generated_Source\\PSoC4\\BLE_StackGattDb.h"
 2144              		.file 7 "Generated_Source\\PSoC4\\BLE.h"
 2145              		.file 8 "Generated_Source\\PSoC4\\BLE_dis.h"
 2146              		.file 9 "Generated_Source\\PSoC4\\BLE_hids.h"
 2147              		.file 10 "Generated_Source\\PSoC4\\BLE_eventHandler.h"
 2148              		.file 11 "Generated_Source\\PSoC4\\BLE_gatt.h"
 2149              		.section	.debug_info,"",%progbits
 2150              	.Ldebug_info0:
 2151 0000 5E140000 		.4byte	0x145e
 2152 0004 0400     		.2byte	0x4
 2153 0006 00000000 		.4byte	.Ldebug_abbrev0
 2154 000a 04       		.byte	0x4
 2155 000b 01       		.uleb128 0x1
 2156 000c 362F0000 		.4byte	.LASF549
 2157 0010 01       		.byte	0x1
 2158 0011 87170000 		.4byte	.LASF550
 2159 0015 680C0000 		.4byte	.LASF551
 2160 0019 00000000 		.4byte	.Ldebug_ranges0+0
 2161 001d 00000000 		.4byte	0
 2162 0021 00000000 		.4byte	.Ldebug_line0
 2163 0025 02       		.uleb128 0x2
 2164 0026 01       		.byte	0x1
 2165 0027 06       		.byte	0x6
 2166 0028 3F0E0000 		.4byte	.LASF0
 2167 002c 02       		.uleb128 0x2
 2168 002d 01       		.byte	0x1
 2169 002e 08       		.byte	0x8
 2170 002f 480F0000 		.4byte	.LASF1
 2171 0033 02       		.uleb128 0x2
 2172 0034 02       		.byte	0x2
 2173 0035 05       		.byte	0x5
 2174 0036 EA340000 		.4byte	.LASF2
 2175 003a 02       		.uleb128 0x2
 2176 003b 02       		.byte	0x2
 2177 003c 07       		.byte	0x7
 2178 003d 753C0000 		.4byte	.LASF3
 2179 0041 02       		.uleb128 0x2
 2180 0042 04       		.byte	0x4
 2181 0043 05       		.byte	0x5
 2182 0044 2E0B0000 		.4byte	.LASF4
 2183 0048 02       		.uleb128 0x2
 2184 0049 04       		.byte	0x4
 2185 004a 07       		.byte	0x7
 2186 004b 341B0000 		.4byte	.LASF5
 2187 004f 02       		.uleb128 0x2
 2188 0050 08       		.byte	0x8
ARM GAS  C:\Users\akita\AppData\Local\Temp\ccIEDY99.s 			page 54


 2189 0051 05       		.byte	0x5
 2190 0052 1D200000 		.4byte	.LASF6
 2191 0056 02       		.uleb128 0x2
 2192 0057 08       		.byte	0x8
 2193 0058 07       		.byte	0x7
 2194 0059 D82C0000 		.4byte	.LASF7
 2195 005d 03       		.uleb128 0x3
 2196 005e 04       		.byte	0x4
 2197 005f 05       		.byte	0x5
 2198 0060 696E7400 		.ascii	"int\000"
 2199 0064 02       		.uleb128 0x2
 2200 0065 04       		.byte	0x4
 2201 0066 07       		.byte	0x7
 2202 0067 1F250000 		.4byte	.LASF8
 2203 006b 04       		.uleb128 0x4
 2204 006c 52340000 		.4byte	.LASF9
 2205 0070 02       		.byte	0x2
 2206 0071 B901     		.2byte	0x1b9
 2207 0073 2C000000 		.4byte	0x2c
 2208 0077 04       		.uleb128 0x4
 2209 0078 9C3F0000 		.4byte	.LASF10
 2210 007c 02       		.byte	0x2
 2211 007d BA01     		.2byte	0x1ba
 2212 007f 3A000000 		.4byte	0x3a
 2213 0083 04       		.uleb128 0x4
 2214 0084 61030000 		.4byte	.LASF11
 2215 0088 02       		.byte	0x2
 2216 0089 BB01     		.2byte	0x1bb
 2217 008b 48000000 		.4byte	0x48
 2218 008f 02       		.uleb128 0x2
 2219 0090 04       		.byte	0x4
 2220 0091 04       		.byte	0x4
 2221 0092 88230000 		.4byte	.LASF12
 2222 0096 02       		.uleb128 0x2
 2223 0097 08       		.byte	0x8
 2224 0098 04       		.byte	0x4
 2225 0099 6E210000 		.4byte	.LASF13
 2226 009d 02       		.uleb128 0x2
 2227 009e 01       		.byte	0x1
 2228 009f 08       		.byte	0x8
 2229 00a0 AE110000 		.4byte	.LASF14
 2230 00a4 05       		.uleb128 0x5
 2231 00a5 6B000000 		.4byte	0x6b
 2232 00a9 02       		.uleb128 0x2
 2233 00aa 04       		.byte	0x4
 2234 00ab 07       		.byte	0x7
 2235 00ac A6000000 		.4byte	.LASF15
 2236 00b0 06       		.uleb128 0x6
 2237 00b1 04       		.byte	0x4
 2238 00b2 07       		.uleb128 0x7
 2239 00b3 04       		.byte	0x4
 2240 00b4 B8000000 		.4byte	0xb8
 2241 00b8 08       		.uleb128 0x8
 2242 00b9 C8000000 		.4byte	0xc8
 2243 00bd 09       		.uleb128 0x9
 2244 00be 83000000 		.4byte	0x83
 2245 00c2 09       		.uleb128 0x9
ARM GAS  C:\Users\akita\AppData\Local\Temp\ccIEDY99.s 			page 55


 2246 00c3 B0000000 		.4byte	0xb0
 2247 00c7 00       		.byte	0
 2248 00c8 0A       		.uleb128 0xa
 2249 00c9 01       		.byte	0x1
 2250 00ca 03       		.byte	0x3
 2251 00cb 3101     		.2byte	0x131
 2252 00cd 97020000 		.4byte	0x297
 2253 00d1 0B       		.uleb128 0xb
 2254 00d2 39120000 		.4byte	.LASF16
 2255 00d6 00       		.sleb128 0
 2256 00d7 0B       		.uleb128 0xb
 2257 00d8 C60B0000 		.4byte	.LASF17
 2258 00dc 01       		.sleb128 1
 2259 00dd 0B       		.uleb128 0xb
 2260 00de 0D2D0000 		.4byte	.LASF18
 2261 00e2 02       		.sleb128 2
 2262 00e3 0B       		.uleb128 0xb
 2263 00e4 B50E0000 		.4byte	.LASF19
 2264 00e8 03       		.sleb128 3
 2265 00e9 0B       		.uleb128 0xb
 2266 00ea B03D0000 		.4byte	.LASF20
 2267 00ee 04       		.sleb128 4
 2268 00ef 0B       		.uleb128 0xb
 2269 00f0 FF3A0000 		.4byte	.LASF21
 2270 00f4 05       		.sleb128 5
 2271 00f5 0B       		.uleb128 0xb
 2272 00f6 3F2A0000 		.4byte	.LASF22
 2273 00fa 06       		.sleb128 6
 2274 00fb 0B       		.uleb128 0xb
 2275 00fc FB360000 		.4byte	.LASF23
 2276 0100 20       		.sleb128 32
 2277 0101 0B       		.uleb128 0xb
 2278 0102 20080000 		.4byte	.LASF24
 2279 0106 21       		.sleb128 33
 2280 0107 0B       		.uleb128 0xb
 2281 0108 D41E0000 		.4byte	.LASF25
 2282 010c 22       		.sleb128 34
 2283 010d 0B       		.uleb128 0xb
 2284 010e 5F280000 		.4byte	.LASF26
 2285 0112 23       		.sleb128 35
 2286 0113 0B       		.uleb128 0xb
 2287 0114 DE190000 		.4byte	.LASF27
 2288 0118 24       		.sleb128 36
 2289 0119 0B       		.uleb128 0xb
 2290 011a 411A0000 		.4byte	.LASF28
 2291 011e 25       		.sleb128 37
 2292 011f 0B       		.uleb128 0xb
 2293 0120 93330000 		.4byte	.LASF29
 2294 0124 26       		.sleb128 38
 2295 0125 0B       		.uleb128 0xb
 2296 0126 E1020000 		.4byte	.LASF30
 2297 012a 27       		.sleb128 39
 2298 012b 0B       		.uleb128 0xb
 2299 012c EA3E0000 		.4byte	.LASF31
 2300 0130 28       		.sleb128 40
 2301 0131 0B       		.uleb128 0xb
 2302 0132 FB2A0000 		.4byte	.LASF32
ARM GAS  C:\Users\akita\AppData\Local\Temp\ccIEDY99.s 			page 56


 2303 0136 29       		.sleb128 41
 2304 0137 0B       		.uleb128 0xb
 2305 0138 AF1D0000 		.4byte	.LASF33
 2306 013c 2A       		.sleb128 42
 2307 013d 0B       		.uleb128 0xb
 2308 013e AD270000 		.4byte	.LASF34
 2309 0142 2B       		.sleb128 43
 2310 0143 0B       		.uleb128 0xb
 2311 0144 5D3B0000 		.4byte	.LASF35
 2312 0148 2C       		.sleb128 44
 2313 0149 0B       		.uleb128 0xb
 2314 014a DA010000 		.4byte	.LASF36
 2315 014e 2D       		.sleb128 45
 2316 014f 0B       		.uleb128 0xb
 2317 0150 7A340000 		.4byte	.LASF37
 2318 0154 2E       		.sleb128 46
 2319 0155 0B       		.uleb128 0xb
 2320 0156 78090000 		.4byte	.LASF38
 2321 015a 2F       		.sleb128 47
 2322 015b 0B       		.uleb128 0xb
 2323 015c 68110000 		.4byte	.LASF39
 2324 0160 30       		.sleb128 48
 2325 0161 0B       		.uleb128 0xb
 2326 0162 77220000 		.4byte	.LASF40
 2327 0166 31       		.sleb128 49
 2328 0167 0B       		.uleb128 0xb
 2329 0168 6E120000 		.4byte	.LASF41
 2330 016c 32       		.sleb128 50
 2331 016d 0B       		.uleb128 0xb
 2332 016e 1F100000 		.4byte	.LASF42
 2333 0172 33       		.sleb128 51
 2334 0173 0B       		.uleb128 0xb
 2335 0174 46100000 		.4byte	.LASF43
 2336 0178 34       		.sleb128 52
 2337 0179 0B       		.uleb128 0xb
 2338 017a 31380000 		.4byte	.LASF44
 2339 017e 35       		.sleb128 53
 2340 017f 0B       		.uleb128 0xb
 2341 0180 1D090000 		.4byte	.LASF45
 2342 0184 36       		.sleb128 54
 2343 0185 0B       		.uleb128 0xb
 2344 0186 D2350000 		.4byte	.LASF46
 2345 018a C000     		.sleb128 64
 2346 018c 0B       		.uleb128 0xb
 2347 018d 23030000 		.4byte	.LASF47
 2348 0191 C100     		.sleb128 65
 2349 0193 0B       		.uleb128 0xb
 2350 0194 C53D0000 		.4byte	.LASF48
 2351 0198 C200     		.sleb128 66
 2352 019a 0B       		.uleb128 0xb
 2353 019b 5D2B0000 		.4byte	.LASF49
 2354 019f C300     		.sleb128 67
 2355 01a1 0B       		.uleb128 0xb
 2356 01a2 560F0000 		.4byte	.LASF50
 2357 01a6 C400     		.sleb128 68
 2358 01a8 0B       		.uleb128 0xb
 2359 01a9 EA0E0000 		.4byte	.LASF51
ARM GAS  C:\Users\akita\AppData\Local\Temp\ccIEDY99.s 			page 57


 2360 01ad C500     		.sleb128 69
 2361 01af 0B       		.uleb128 0xb
 2362 01b0 1D310000 		.4byte	.LASF52
 2363 01b4 C600     		.sleb128 70
 2364 01b6 0B       		.uleb128 0xb
 2365 01b7 FF300000 		.4byte	.LASF53
 2366 01bb C700     		.sleb128 71
 2367 01bd 0B       		.uleb128 0xb
 2368 01be 1C110000 		.4byte	.LASF54
 2369 01c2 C800     		.sleb128 72
 2370 01c4 0B       		.uleb128 0xb
 2371 01c5 C4280000 		.4byte	.LASF55
 2372 01c9 C900     		.sleb128 73
 2373 01cb 0B       		.uleb128 0xb
 2374 01cc CF120000 		.4byte	.LASF56
 2375 01d0 CA00     		.sleb128 74
 2376 01d2 0B       		.uleb128 0xb
 2377 01d3 1A120000 		.4byte	.LASF57
 2378 01d7 CB00     		.sleb128 75
 2379 01d9 0B       		.uleb128 0xb
 2380 01da 07280000 		.4byte	.LASF58
 2381 01de CC00     		.sleb128 76
 2382 01e0 0B       		.uleb128 0xb
 2383 01e1 AF320000 		.4byte	.LASF59
 2384 01e5 CD00     		.sleb128 77
 2385 01e7 0B       		.uleb128 0xb
 2386 01e8 C90A0000 		.4byte	.LASF60
 2387 01ec CE00     		.sleb128 78
 2388 01ee 0B       		.uleb128 0xb
 2389 01ef 2C250000 		.4byte	.LASF61
 2390 01f3 CF00     		.sleb128 79
 2391 01f5 0B       		.uleb128 0xb
 2392 01f6 DC360000 		.4byte	.LASF62
 2393 01fa D000     		.sleb128 80
 2394 01fc 0B       		.uleb128 0xb
 2395 01fd 33130000 		.4byte	.LASF63
 2396 0201 D100     		.sleb128 81
 2397 0203 0B       		.uleb128 0xb
 2398 0204 FF070000 		.4byte	.LASF64
 2399 0208 D200     		.sleb128 82
 2400 020a 0B       		.uleb128 0xb
 2401 020b 5C3A0000 		.4byte	.LASF65
 2402 020f D300     		.sleb128 83
 2403 0211 0B       		.uleb128 0xb
 2404 0212 2C3F0000 		.4byte	.LASF66
 2405 0216 D400     		.sleb128 84
 2406 0218 0B       		.uleb128 0xb
 2407 0219 7A060000 		.4byte	.LASF67
 2408 021d D500     		.sleb128 85
 2409 021f 0B       		.uleb128 0xb
 2410 0220 2C140000 		.4byte	.LASF68
 2411 0224 D600     		.sleb128 86
 2412 0226 0B       		.uleb128 0xb
 2413 0227 34240000 		.4byte	.LASF69
 2414 022b D700     		.sleb128 87
 2415 022d 0B       		.uleb128 0xb
 2416 022e AB3E0000 		.4byte	.LASF70
ARM GAS  C:\Users\akita\AppData\Local\Temp\ccIEDY99.s 			page 58


 2417 0232 D800     		.sleb128 88
 2418 0234 0B       		.uleb128 0xb
 2419 0235 A63B0000 		.4byte	.LASF71
 2420 0239 F000     		.sleb128 112
 2421 023b 0B       		.uleb128 0xb
 2422 023c 9F180000 		.4byte	.LASF72
 2423 0240 F100     		.sleb128 113
 2424 0242 0B       		.uleb128 0xb
 2425 0243 C30D0000 		.4byte	.LASF73
 2426 0247 F200     		.sleb128 114
 2427 0249 0B       		.uleb128 0xb
 2428 024a BE360000 		.4byte	.LASF74
 2429 024e F300     		.sleb128 115
 2430 0250 0B       		.uleb128 0xb
 2431 0251 37290000 		.4byte	.LASF75
 2432 0255 F400     		.sleb128 116
 2433 0257 0B       		.uleb128 0xb
 2434 0258 381E0000 		.4byte	.LASF76
 2435 025c F500     		.sleb128 117
 2436 025e 0B       		.uleb128 0xb
 2437 025f FB100000 		.4byte	.LASF77
 2438 0263 F600     		.sleb128 118
 2439 0265 0B       		.uleb128 0xb
 2440 0266 9F2D0000 		.4byte	.LASF78
 2441 026a F700     		.sleb128 119
 2442 026c 0B       		.uleb128 0xb
 2443 026d 9E060000 		.4byte	.LASF79
 2444 0271 F800     		.sleb128 120
 2445 0273 0B       		.uleb128 0xb
 2446 0274 0B0B0000 		.4byte	.LASF80
 2447 0278 F900     		.sleb128 121
 2448 027a 0B       		.uleb128 0xb
 2449 027b 093E0000 		.4byte	.LASF81
 2450 027f FA00     		.sleb128 122
 2451 0281 0B       		.uleb128 0xb
 2452 0282 BA210000 		.4byte	.LASF82
 2453 0286 FA01     		.sleb128 250
 2454 0288 0B       		.uleb128 0xb
 2455 0289 70390000 		.4byte	.LASF83
 2456 028d FB01     		.sleb128 251
 2457 028f 0B       		.uleb128 0xb
 2458 0290 9F270000 		.4byte	.LASF84
 2459 0294 FF01     		.sleb128 255
 2460 0296 00       		.byte	0
 2461 0297 0A       		.uleb128 0xa
 2462 0298 02       		.byte	0x2
 2463 0299 03       		.byte	0x3
 2464 029a D203     		.2byte	0x3d2
 2465 029c 67030000 		.4byte	0x367
 2466 02a0 0B       		.uleb128 0xb
 2467 02a1 CE0E0000 		.4byte	.LASF85
 2468 02a5 00       		.sleb128 0
 2469 02a6 0B       		.uleb128 0xb
 2470 02a7 C4150000 		.4byte	.LASF86
 2471 02ab 01       		.sleb128 1
 2472 02ac 0B       		.uleb128 0xb
 2473 02ad 923D0000 		.4byte	.LASF87
ARM GAS  C:\Users\akita\AppData\Local\Temp\ccIEDY99.s 			page 59


 2474 02b1 02       		.sleb128 2
 2475 02b2 0B       		.uleb128 0xb
 2476 02b3 10170000 		.4byte	.LASF88
 2477 02b7 03       		.sleb128 3
 2478 02b8 0B       		.uleb128 0xb
 2479 02b9 A21A0000 		.4byte	.LASF89
 2480 02bd 04       		.sleb128 4
 2481 02be 0B       		.uleb128 0xb
 2482 02bf 2D210000 		.4byte	.LASF90
 2483 02c3 05       		.sleb128 5
 2484 02c4 0B       		.uleb128 0xb
 2485 02c5 33390000 		.4byte	.LASF91
 2486 02c9 06       		.sleb128 6
 2487 02ca 0B       		.uleb128 0xb
 2488 02cb B2120000 		.4byte	.LASF92
 2489 02cf 07       		.sleb128 7
 2490 02d0 0B       		.uleb128 0xb
 2491 02d1 2D230000 		.4byte	.LASF93
 2492 02d5 08       		.sleb128 8
 2493 02d6 0B       		.uleb128 0xb
 2494 02d7 D7370000 		.4byte	.LASF94
 2495 02db 09       		.sleb128 9
 2496 02dc 0B       		.uleb128 0xb
 2497 02dd C73F0000 		.4byte	.LASF95
 2498 02e1 0A       		.sleb128 10
 2499 02e2 0B       		.uleb128 0xb
 2500 02e3 96080000 		.4byte	.LASF96
 2501 02e7 0B       		.sleb128 11
 2502 02e8 0B       		.uleb128 0xb
 2503 02e9 CF3A0000 		.4byte	.LASF97
 2504 02ed 0C       		.sleb128 12
 2505 02ee 0B       		.uleb128 0xb
 2506 02ef E2260000 		.4byte	.LASF98
 2507 02f3 0D       		.sleb128 13
 2508 02f4 0B       		.uleb128 0xb
 2509 02f5 7A1C0000 		.4byte	.LASF99
 2510 02f9 0E       		.sleb128 14
 2511 02fa 0B       		.uleb128 0xb
 2512 02fb 08210000 		.4byte	.LASF100
 2513 02ff 0F       		.sleb128 15
 2514 0300 0B       		.uleb128 0xb
 2515 0301 C4050000 		.4byte	.LASF101
 2516 0305 10       		.sleb128 16
 2517 0306 0B       		.uleb128 0xb
 2518 0307 E5220000 		.4byte	.LASF102
 2519 030b 11       		.sleb128 17
 2520 030c 0B       		.uleb128 0xb
 2521 030d D90B0000 		.4byte	.LASF103
 2522 0311 12       		.sleb128 18
 2523 0312 0B       		.uleb128 0xb
 2524 0313 170E0000 		.4byte	.LASF104
 2525 0317 13       		.sleb128 19
 2526 0318 0B       		.uleb128 0xb
 2527 0319 75210000 		.4byte	.LASF105
 2528 031d 27       		.sleb128 39
 2529 031e 0B       		.uleb128 0xb
 2530 031f E9230000 		.4byte	.LASF106
ARM GAS  C:\Users\akita\AppData\Local\Temp\ccIEDY99.s 			page 60


 2531 0323 28       		.sleb128 40
 2532 0324 0B       		.uleb128 0xb
 2533 0325 21060000 		.4byte	.LASF107
 2534 0329 29       		.sleb128 41
 2535 032a 0B       		.uleb128 0xb
 2536 032b 3C350000 		.4byte	.LASF108
 2537 032f 2A       		.sleb128 42
 2538 0330 0B       		.uleb128 0xb
 2539 0331 DC1B0000 		.4byte	.LASF109
 2540 0335 2B       		.sleb128 43
 2541 0336 0B       		.uleb128 0xb
 2542 0337 6F2E0000 		.4byte	.LASF110
 2543 033b 2C       		.sleb128 44
 2544 033c 0B       		.uleb128 0xb
 2545 033d A8150000 		.4byte	.LASF111
 2546 0341 FE01     		.sleb128 254
 2547 0343 0B       		.uleb128 0xb
 2548 0344 6C180000 		.4byte	.LASF112
 2549 0348 FF01     		.sleb128 255
 2550 034a 0B       		.uleb128 0xb
 2551 034b 9E280000 		.4byte	.LASF113
 2552 034f 8002     		.sleb128 256
 2553 0351 0B       		.uleb128 0xb
 2554 0352 85280000 		.4byte	.LASF114
 2555 0356 8102     		.sleb128 257
 2556 0358 0B       		.uleb128 0xb
 2557 0359 140D0000 		.4byte	.LASF115
 2558 035d 8202     		.sleb128 258
 2559 035f 0B       		.uleb128 0xb
 2560 0360 692D0000 		.4byte	.LASF116
 2561 0364 8302     		.sleb128 259
 2562 0366 00       		.byte	0
 2563 0367 04       		.uleb128 0x4
 2564 0368 8F390000 		.4byte	.LASF117
 2565 036c 03       		.byte	0x3
 2566 036d 3E04     		.2byte	0x43e
 2567 036f 97020000 		.4byte	0x297
 2568 0373 07       		.uleb128 0x7
 2569 0374 04       		.byte	0x4
 2570 0375 6B000000 		.4byte	0x6b
 2571 0379 0C       		.uleb128 0xc
 2572 037a 01       		.byte	0x1
 2573 037b 04       		.byte	0x4
 2574 037c A3       		.byte	0xa3
 2575 037d 7A040000 		.4byte	0x47a
 2576 0381 0B       		.uleb128 0xb
 2577 0382 BE2D0000 		.4byte	.LASF118
 2578 0386 00       		.sleb128 0
 2579 0387 0B       		.uleb128 0xb
 2580 0388 EF2C0000 		.4byte	.LASF119
 2581 038c 01       		.sleb128 1
 2582 038d 0B       		.uleb128 0xb
 2583 038e 42050000 		.4byte	.LASF120
 2584 0392 02       		.sleb128 2
 2585 0393 0B       		.uleb128 0xb
 2586 0394 523C0000 		.4byte	.LASF121
 2587 0398 03       		.sleb128 3
ARM GAS  C:\Users\akita\AppData\Local\Temp\ccIEDY99.s 			page 61


 2588 0399 0B       		.uleb128 0xb
 2589 039a ED0C0000 		.4byte	.LASF122
 2590 039e 04       		.sleb128 4
 2591 039f 0B       		.uleb128 0xb
 2592 03a0 58250000 		.4byte	.LASF123
 2593 03a4 05       		.sleb128 5
 2594 03a5 0B       		.uleb128 0xb
 2595 03a6 AD350000 		.4byte	.LASF124
 2596 03aa 06       		.sleb128 6
 2597 03ab 0B       		.uleb128 0xb
 2598 03ac F7280000 		.4byte	.LASF125
 2599 03b0 07       		.sleb128 7
 2600 03b1 0B       		.uleb128 0xb
 2601 03b2 81240000 		.4byte	.LASF126
 2602 03b6 08       		.sleb128 8
 2603 03b7 0B       		.uleb128 0xb
 2604 03b8 BE200000 		.4byte	.LASF127
 2605 03bc 09       		.sleb128 9
 2606 03bd 0B       		.uleb128 0xb
 2607 03be 2C270000 		.4byte	.LASF128
 2608 03c2 0A       		.sleb128 10
 2609 03c3 0B       		.uleb128 0xb
 2610 03c4 AC130000 		.4byte	.LASF129
 2611 03c8 0B       		.sleb128 11
 2612 03c9 0B       		.uleb128 0xb
 2613 03ca D8210000 		.4byte	.LASF130
 2614 03ce 0C       		.sleb128 12
 2615 03cf 0B       		.uleb128 0xb
 2616 03d0 DF0D0000 		.4byte	.LASF131
 2617 03d4 0D       		.sleb128 13
 2618 03d5 0B       		.uleb128 0xb
 2619 03d6 50120000 		.4byte	.LASF132
 2620 03da 0E       		.sleb128 14
 2621 03db 0B       		.uleb128 0xb
 2622 03dc 883C0000 		.4byte	.LASF133
 2623 03e0 0F       		.sleb128 15
 2624 03e1 0B       		.uleb128 0xb
 2625 03e2 9E050000 		.4byte	.LASF134
 2626 03e6 10       		.sleb128 16
 2627 03e7 0B       		.uleb128 0xb
 2628 03e8 64050000 		.4byte	.LASF135
 2629 03ec 11       		.sleb128 17
 2630 03ed 0B       		.uleb128 0xb
 2631 03ee 52130000 		.4byte	.LASF136
 2632 03f2 8001     		.sleb128 128
 2633 03f4 0B       		.uleb128 0xb
 2634 03f5 B0190000 		.4byte	.LASF137
 2635 03f9 8001     		.sleb128 128
 2636 03fb 0B       		.uleb128 0xb
 2637 03fc 59350000 		.4byte	.LASF138
 2638 0400 8001     		.sleb128 128
 2639 0402 0B       		.uleb128 0xb
 2640 0403 AA2E0000 		.4byte	.LASF139
 2641 0407 8001     		.sleb128 128
 2642 0409 0B       		.uleb128 0xb
 2643 040a 88260000 		.4byte	.LASF140
 2644 040e 8001     		.sleb128 128
ARM GAS  C:\Users\akita\AppData\Local\Temp\ccIEDY99.s 			page 62


 2645 0410 0B       		.uleb128 0xb
 2646 0411 EB1A0000 		.4byte	.LASF141
 2647 0415 8001     		.sleb128 128
 2648 0417 0B       		.uleb128 0xb
 2649 0418 4E2D0000 		.4byte	.LASF142
 2650 041c 8001     		.sleb128 128
 2651 041e 0B       		.uleb128 0xb
 2652 041f 07180000 		.4byte	.LASF143
 2653 0423 8101     		.sleb128 129
 2654 0425 0B       		.uleb128 0xb
 2655 0426 AB310000 		.4byte	.LASF144
 2656 042a 8101     		.sleb128 129
 2657 042c 0B       		.uleb128 0xb
 2658 042d 76000000 		.4byte	.LASF145
 2659 0431 8101     		.sleb128 129
 2660 0433 0B       		.uleb128 0xb
 2661 0434 440C0000 		.4byte	.LASF146
 2662 0438 8101     		.sleb128 129
 2663 043a 0B       		.uleb128 0xb
 2664 043b AA090000 		.4byte	.LASF147
 2665 043f 8201     		.sleb128 130
 2666 0441 0B       		.uleb128 0xb
 2667 0442 8C380000 		.4byte	.LASF148
 2668 0446 A001     		.sleb128 160
 2669 0448 0B       		.uleb128 0xb
 2670 0449 DA1C0000 		.4byte	.LASF149
 2671 044d A001     		.sleb128 160
 2672 044f 0B       		.uleb128 0xb
 2673 0450 F5090000 		.4byte	.LASF150
 2674 0454 A101     		.sleb128 161
 2675 0456 0B       		.uleb128 0xb
 2676 0457 B1370000 		.4byte	.LASF151
 2677 045b A201     		.sleb128 162
 2678 045d 0B       		.uleb128 0xb
 2679 045e 8D140000 		.4byte	.LASF152
 2680 0462 A301     		.sleb128 163
 2681 0464 0B       		.uleb128 0xb
 2682 0465 781A0000 		.4byte	.LASF153
 2683 0469 FD01     		.sleb128 253
 2684 046b 0B       		.uleb128 0xb
 2685 046c 26220000 		.4byte	.LASF154
 2686 0470 FE01     		.sleb128 254
 2687 0472 0B       		.uleb128 0xb
 2688 0473 C8290000 		.4byte	.LASF155
 2689 0477 FF01     		.sleb128 255
 2690 0479 00       		.byte	0
 2691 047a 04       		.uleb128 0x4
 2692 047b 9B370000 		.4byte	.LASF156
 2693 047f 04       		.byte	0x4
 2694 0480 5A01     		.2byte	0x15a
 2695 0482 79030000 		.4byte	0x379
 2696 0486 04       		.uleb128 0x4
 2697 0487 832D0000 		.4byte	.LASF157
 2698 048b 04       		.byte	0x4
 2699 048c 8401     		.2byte	0x184
 2700 048e 77000000 		.4byte	0x77
 2701 0492 0D       		.uleb128 0xd
ARM GAS  C:\Users\akita\AppData\Local\Temp\ccIEDY99.s 			page 63


 2702 0493 02       		.byte	0x2
 2703 0494 04       		.byte	0x4
 2704 0495 8E01     		.2byte	0x18e
 2705 0497 B6040000 		.4byte	0x4b6
 2706 049b 0E       		.uleb128 0xe
 2707 049c A1090000 		.4byte	.LASF158
 2708 04a0 04       		.byte	0x4
 2709 04a1 9501     		.2byte	0x195
 2710 04a3 6B000000 		.4byte	0x6b
 2711 04a7 00       		.byte	0
 2712 04a8 0E       		.uleb128 0xe
 2713 04a9 8C3D0000 		.4byte	.LASF159
 2714 04ad 04       		.byte	0x4
 2715 04ae 9B01     		.2byte	0x19b
 2716 04b0 6B000000 		.4byte	0x6b
 2717 04b4 01       		.byte	0x1
 2718 04b5 00       		.byte	0
 2719 04b6 04       		.uleb128 0x4
 2720 04b7 5F080000 		.4byte	.LASF160
 2721 04bb 04       		.byte	0x4
 2722 04bc 9D01     		.2byte	0x19d
 2723 04be 92040000 		.4byte	0x492
 2724 04c2 0D       		.uleb128 0xd
 2725 04c3 08       		.byte	0x8
 2726 04c4 04       		.byte	0x4
 2727 04c5 B901     		.2byte	0x1b9
 2728 04c7 F3040000 		.4byte	0x4f3
 2729 04cb 0F       		.uleb128 0xf
 2730 04cc 76616C00 		.ascii	"val\000"
 2731 04d0 04       		.byte	0x4
 2732 04d1 BC01     		.2byte	0x1bc
 2733 04d3 73030000 		.4byte	0x373
 2734 04d7 00       		.byte	0
 2735 04d8 0F       		.uleb128 0xf
 2736 04d9 6C656E00 		.ascii	"len\000"
 2737 04dd 04       		.byte	0x4
 2738 04de BF01     		.2byte	0x1bf
 2739 04e0 77000000 		.4byte	0x77
 2740 04e4 04       		.byte	0x4
 2741 04e5 0E       		.uleb128 0xe
 2742 04e6 F83C0000 		.4byte	.LASF161
 2743 04ea 04       		.byte	0x4
 2744 04eb C601     		.2byte	0x1c6
 2745 04ed 77000000 		.4byte	0x77
 2746 04f1 06       		.byte	0x6
 2747 04f2 00       		.byte	0
 2748 04f3 04       		.uleb128 0x4
 2749 04f4 C1060000 		.4byte	.LASF162
 2750 04f8 04       		.byte	0x4
 2751 04f9 C801     		.2byte	0x1c8
 2752 04fb C2040000 		.4byte	0x4c2
 2753 04ff 0D       		.uleb128 0xd
 2754 0500 0C       		.byte	0xc
 2755 0501 04       		.byte	0x4
 2756 0502 CB01     		.2byte	0x1cb
 2757 0504 23050000 		.4byte	0x523
 2758 0508 0E       		.uleb128 0xe
ARM GAS  C:\Users\akita\AppData\Local\Temp\ccIEDY99.s 			page 64


 2759 0509 D22D0000 		.4byte	.LASF163
 2760 050d 04       		.byte	0x4
 2761 050e CE01     		.2byte	0x1ce
 2762 0510 F3040000 		.4byte	0x4f3
 2763 0514 00       		.byte	0
 2764 0515 0E       		.uleb128 0xe
 2765 0516 B6240000 		.4byte	.LASF164
 2766 051a 04       		.byte	0x4
 2767 051b D101     		.2byte	0x1d1
 2768 051d 86040000 		.4byte	0x486
 2769 0521 08       		.byte	0x8
 2770 0522 00       		.byte	0
 2771 0523 04       		.uleb128 0x4
 2772 0524 500D0000 		.4byte	.LASF165
 2773 0528 04       		.byte	0x4
 2774 0529 D301     		.2byte	0x1d3
 2775 052b FF040000 		.4byte	0x4ff
 2776 052f 10       		.uleb128 0x10
 2777 0530 D1000000 		.4byte	.LASF166
 2778 0534 05       		.byte	0x5
 2779 0535 31       		.byte	0x31
 2780 0536 23050000 		.4byte	0x523
 2781 053a 11       		.uleb128 0x11
 2782 053b 10       		.byte	0x10
 2783 053c 05       		.byte	0x5
 2784 053d 87       		.byte	0x87
 2785 053e 5B050000 		.4byte	0x55b
 2786 0542 12       		.uleb128 0x12
 2787 0543 1B300000 		.4byte	.LASF167
 2788 0547 05       		.byte	0x5
 2789 0548 8A       		.byte	0x8a
 2790 0549 B6040000 		.4byte	0x4b6
 2791 054d 00       		.byte	0
 2792 054e 12       		.uleb128 0x12
 2793 054f F4340000 		.4byte	.LASF168
 2794 0553 05       		.byte	0x5
 2795 0554 8D       		.byte	0x8d
 2796 0555 23050000 		.4byte	0x523
 2797 0559 04       		.byte	0x4
 2798 055a 00       		.byte	0
 2799 055b 10       		.uleb128 0x10
 2800 055c 01250000 		.4byte	.LASF169
 2801 0560 05       		.byte	0x5
 2802 0561 8F       		.byte	0x8f
 2803 0562 3A050000 		.4byte	0x53a
 2804 0566 11       		.uleb128 0x11
 2805 0567 08       		.byte	0x8
 2806 0568 06       		.byte	0x6
 2807 0569 C6       		.byte	0xc6
 2808 056a 87050000 		.4byte	0x587
 2809 056e 12       		.uleb128 0x12
 2810 056f 26300000 		.4byte	.LASF170
 2811 0573 06       		.byte	0x6
 2812 0574 C9       		.byte	0xc9
 2813 0575 77000000 		.4byte	0x77
 2814 0579 00       		.byte	0
 2815 057a 12       		.uleb128 0x12
ARM GAS  C:\Users\akita\AppData\Local\Temp\ccIEDY99.s 			page 65


 2816 057b 20340000 		.4byte	.LASF171
 2817 057f 06       		.byte	0x6
 2818 0580 CE       		.byte	0xce
 2819 0581 B0000000 		.4byte	0xb0
 2820 0585 04       		.byte	0x4
 2821 0586 00       		.byte	0
 2822 0587 10       		.uleb128 0x10
 2823 0588 6D290000 		.4byte	.LASF172
 2824 058c 06       		.byte	0x6
 2825 058d D0       		.byte	0xd0
 2826 058e 66050000 		.4byte	0x566
 2827 0592 11       		.uleb128 0x11
 2828 0593 08       		.byte	0x8
 2829 0594 06       		.byte	0x6
 2830 0595 D3       		.byte	0xd3
 2831 0596 B3050000 		.4byte	0x5b3
 2832 059a 12       		.uleb128 0x12
 2833 059b B3110000 		.4byte	.LASF173
 2834 059f 06       		.byte	0x6
 2835 05a0 D6       		.byte	0xd6
 2836 05a1 77000000 		.4byte	0x77
 2837 05a5 00       		.byte	0
 2838 05a6 12       		.uleb128 0x12
 2839 05a7 1C350000 		.4byte	.LASF174
 2840 05ab 06       		.byte	0x6
 2841 05ac DB       		.byte	0xdb
 2842 05ad B3050000 		.4byte	0x5b3
 2843 05b1 04       		.byte	0x4
 2844 05b2 00       		.byte	0
 2845 05b3 07       		.uleb128 0x7
 2846 05b4 04       		.byte	0x4
 2847 05b5 87050000 		.4byte	0x587
 2848 05b9 10       		.uleb128 0x10
 2849 05ba 74330000 		.4byte	.LASF175
 2850 05be 06       		.byte	0x6
 2851 05bf DD       		.byte	0xdd
 2852 05c0 92050000 		.4byte	0x592
 2853 05c4 13       		.uleb128 0x13
 2854 05c5 08       		.byte	0x8
 2855 05c6 06       		.byte	0x6
 2856 05c7 E0       		.byte	0xe0
 2857 05c8 E3050000 		.4byte	0x5e3
 2858 05cc 14       		.uleb128 0x14
 2859 05cd 2D350000 		.4byte	.LASF176
 2860 05d1 06       		.byte	0x6
 2861 05d2 E7       		.byte	0xe7
 2862 05d3 B9050000 		.4byte	0x5b9
 2863 05d7 14       		.uleb128 0x14
 2864 05d8 CD1C0000 		.4byte	.LASF177
 2865 05dc 06       		.byte	0x6
 2866 05dd EA       		.byte	0xea
 2867 05de 77000000 		.4byte	0x77
 2868 05e2 00       		.byte	0
 2869 05e3 10       		.uleb128 0x10
 2870 05e4 22330000 		.4byte	.LASF178
 2871 05e8 06       		.byte	0x6
 2872 05e9 EC       		.byte	0xec
ARM GAS  C:\Users\akita\AppData\Local\Temp\ccIEDY99.s 			page 66


 2873 05ea C4050000 		.4byte	0x5c4
 2874 05ee 11       		.uleb128 0x11
 2875 05ef 14       		.byte	0x14
 2876 05f0 06       		.byte	0x6
 2877 05f1 EF       		.byte	0xef
 2878 05f2 36060000 		.4byte	0x636
 2879 05f6 12       		.uleb128 0x12
 2880 05f7 5E100000 		.4byte	.LASF179
 2881 05fb 06       		.byte	0x6
 2882 05fc F2       		.byte	0xf2
 2883 05fd 77000000 		.4byte	0x77
 2884 0601 00       		.byte	0
 2885 0602 12       		.uleb128 0x12
 2886 0603 6F0D0000 		.4byte	.LASF180
 2887 0607 06       		.byte	0x6
 2888 0608 F8       		.byte	0xf8
 2889 0609 77000000 		.4byte	0x77
 2890 060d 02       		.byte	0x2
 2891 060e 0E       		.uleb128 0xe
 2892 060f F7060000 		.4byte	.LASF181
 2893 0613 06       		.byte	0x6
 2894 0614 0301     		.2byte	0x103
 2895 0616 83000000 		.4byte	0x83
 2896 061a 04       		.byte	0x4
 2897 061b 0E       		.uleb128 0xe
 2898 061c 4B250000 		.4byte	.LASF182
 2899 0620 06       		.byte	0x6
 2900 0621 0601     		.2byte	0x106
 2901 0623 77000000 		.4byte	0x77
 2902 0627 08       		.byte	0x8
 2903 0628 0E       		.uleb128 0xe
 2904 0629 182E0000 		.4byte	.LASF183
 2905 062d 06       		.byte	0x6
 2906 062e 0F01     		.2byte	0x10f
 2907 0630 E3050000 		.4byte	0x5e3
 2908 0634 0C       		.byte	0xc
 2909 0635 00       		.byte	0
 2910 0636 04       		.uleb128 0x4
 2911 0637 EB140000 		.4byte	.LASF184
 2912 063b 06       		.byte	0x6
 2913 063c 1001     		.2byte	0x110
 2914 063e EE050000 		.4byte	0x5ee
 2915 0642 04       		.uleb128 0x4
 2916 0643 A4070000 		.4byte	.LASF185
 2917 0647 07       		.byte	0x7
 2918 0648 EB01     		.2byte	0x1eb
 2919 064a B2000000 		.4byte	0xb2
 2920 064e 07       		.uleb128 0x7
 2921 064f 04       		.byte	0x4
 2922 0650 F3040000 		.4byte	0x4f3
 2923 0654 0C       		.uleb128 0xc
 2924 0655 01       		.byte	0x1
 2925 0656 08       		.byte	0x8
 2926 0657 22       		.byte	0x22
 2927 0658 99060000 		.4byte	0x699
 2928 065c 0B       		.uleb128 0xb
 2929 065d 672C0000 		.4byte	.LASF186
ARM GAS  C:\Users\akita\AppData\Local\Temp\ccIEDY99.s 			page 67


 2930 0661 00       		.sleb128 0
 2931 0662 0B       		.uleb128 0xb
 2932 0663 AF140000 		.4byte	.LASF187
 2933 0667 01       		.sleb128 1
 2934 0668 0B       		.uleb128 0xb
 2935 0669 971D0000 		.4byte	.LASF188
 2936 066d 02       		.sleb128 2
 2937 066e 0B       		.uleb128 0xb
 2938 066f FC0B0000 		.4byte	.LASF189
 2939 0673 03       		.sleb128 3
 2940 0674 0B       		.uleb128 0xb
 2941 0675 E8070000 		.4byte	.LASF190
 2942 0679 04       		.sleb128 4
 2943 067a 0B       		.uleb128 0xb
 2944 067b 15140000 		.4byte	.LASF191
 2945 067f 05       		.sleb128 5
 2946 0680 0B       		.uleb128 0xb
 2947 0681 56150000 		.4byte	.LASF192
 2948 0685 06       		.sleb128 6
 2949 0686 0B       		.uleb128 0xb
 2950 0687 EE250000 		.4byte	.LASF193
 2951 068b 07       		.sleb128 7
 2952 068c 0B       		.uleb128 0xb
 2953 068d 68200000 		.4byte	.LASF194
 2954 0691 08       		.sleb128 8
 2955 0692 0B       		.uleb128 0xb
 2956 0693 91000000 		.4byte	.LASF195
 2957 0697 09       		.sleb128 9
 2958 0698 00       		.byte	0
 2959 0699 0C       		.uleb128 0xc
 2960 069a 01       		.byte	0x1
 2961 069b 09       		.byte	0x9
 2962 069c 4E       		.byte	0x4e
 2963 069d EA060000 		.4byte	0x6ea
 2964 06a1 0B       		.uleb128 0xb
 2965 06a2 E63A0000 		.4byte	.LASF196
 2966 06a6 00       		.sleb128 0
 2967 06a7 0B       		.uleb128 0xb
 2968 06a8 F81E0000 		.4byte	.LASF197
 2969 06ac 01       		.sleb128 1
 2970 06ad 0B       		.uleb128 0xb
 2971 06ae 741E0000 		.4byte	.LASF198
 2972 06b2 02       		.sleb128 2
 2973 06b3 0B       		.uleb128 0xb
 2974 06b4 07090000 		.4byte	.LASF199
 2975 06b8 03       		.sleb128 3
 2976 06b9 0B       		.uleb128 0xb
 2977 06ba C5180000 		.4byte	.LASF200
 2978 06be 04       		.sleb128 4
 2979 06bf 0B       		.uleb128 0xb
 2980 06c0 FD2F0000 		.4byte	.LASF201
 2981 06c4 05       		.sleb128 5
 2982 06c5 0B       		.uleb128 0xb
 2983 06c6 3A330000 		.4byte	.LASF202
 2984 06ca 06       		.sleb128 6
 2985 06cb 0B       		.uleb128 0xb
 2986 06cc A2390000 		.4byte	.LASF203
ARM GAS  C:\Users\akita\AppData\Local\Temp\ccIEDY99.s 			page 68


 2987 06d0 07       		.sleb128 7
 2988 06d1 0B       		.uleb128 0xb
 2989 06d2 3F070000 		.4byte	.LASF204
 2990 06d6 07       		.sleb128 7
 2991 06d7 0B       		.uleb128 0xb
 2992 06d8 283D0000 		.4byte	.LASF205
 2993 06dc 08       		.sleb128 8
 2994 06dd 0B       		.uleb128 0xb
 2995 06de F23B0000 		.4byte	.LASF206
 2996 06e2 08       		.sleb128 8
 2997 06e3 0B       		.uleb128 0xb
 2998 06e4 953E0000 		.4byte	.LASF207
 2999 06e8 09       		.sleb128 9
 3000 06e9 00       		.byte	0
 3001 06ea 10       		.uleb128 0x10
 3002 06eb DD110000 		.4byte	.LASF208
 3003 06ef 09       		.byte	0x9
 3004 06f0 5C       		.byte	0x5c
 3005 06f1 99060000 		.4byte	0x699
 3006 06f5 0C       		.uleb128 0xc
 3007 06f6 01       		.byte	0x1
 3008 06f7 09       		.byte	0x9
 3009 06f8 60       		.byte	0x60
 3010 06f9 16070000 		.4byte	0x716
 3011 06fd 0B       		.uleb128 0xb
 3012 06fe 16230000 		.4byte	.LASF209
 3013 0702 00       		.sleb128 0
 3014 0703 0B       		.uleb128 0xb
 3015 0704 A02B0000 		.4byte	.LASF210
 3016 0708 01       		.sleb128 1
 3017 0709 0B       		.uleb128 0xb
 3018 070a 18390000 		.4byte	.LASF211
 3019 070e 02       		.sleb128 2
 3020 070f 0B       		.uleb128 0xb
 3021 0710 55180000 		.4byte	.LASF212
 3022 0714 03       		.sleb128 3
 3023 0715 00       		.byte	0
 3024 0716 10       		.uleb128 0x10
 3025 0717 8E400000 		.4byte	.LASF213
 3026 071b 09       		.byte	0x9
 3027 071c 65       		.byte	0x65
 3028 071d F5060000 		.4byte	0x6f5
 3029 0721 11       		.uleb128 0x11
 3030 0722 06       		.byte	0x6
 3031 0723 09       		.byte	0x9
 3032 0724 7F       		.byte	0x7f
 3033 0725 4E070000 		.4byte	0x74e
 3034 0729 12       		.uleb128 0x12
 3035 072a B7280000 		.4byte	.LASF214
 3036 072e 09       		.byte	0x9
 3037 072f 81       		.byte	0x81
 3038 0730 86040000 		.4byte	0x486
 3039 0734 00       		.byte	0
 3040 0735 12       		.uleb128 0x12
 3041 0736 023D0000 		.4byte	.LASF215
 3042 073a 09       		.byte	0x9
 3043 073b 82       		.byte	0x82
ARM GAS  C:\Users\akita\AppData\Local\Temp\ccIEDY99.s 			page 69


 3044 073c 86040000 		.4byte	0x486
 3045 0740 02       		.byte	0x2
 3046 0741 12       		.uleb128 0x12
 3047 0742 95270000 		.4byte	.LASF216
 3048 0746 09       		.byte	0x9
 3049 0747 83       		.byte	0x83
 3050 0748 86040000 		.4byte	0x486
 3051 074c 04       		.byte	0x4
 3052 074d 00       		.byte	0
 3053 074e 10       		.uleb128 0x10
 3054 074f 89050000 		.4byte	.LASF217
 3055 0753 09       		.byte	0x9
 3056 0754 84       		.byte	0x84
 3057 0755 21070000 		.4byte	0x721
 3058 0759 11       		.uleb128 0x11
 3059 075a 28       		.byte	0x28
 3060 075b 09       		.byte	0x9
 3061 075c 87       		.byte	0x87
 3062 075d CE070000 		.4byte	0x7ce
 3063 0761 12       		.uleb128 0x12
 3064 0762 BB0C0000 		.4byte	.LASF218
 3065 0766 09       		.byte	0x9
 3066 0767 89       		.byte	0x89
 3067 0768 86040000 		.4byte	0x486
 3068 076c 00       		.byte	0
 3069 076d 12       		.uleb128 0x12
 3070 076e 040E0000 		.4byte	.LASF219
 3071 0772 09       		.byte	0x9
 3072 0773 8A       		.byte	0x8a
 3073 0774 86040000 		.4byte	0x486
 3074 0778 02       		.byte	0x2
 3075 0779 12       		.uleb128 0x12
 3076 077a 422D0000 		.4byte	.LASF220
 3077 077e 09       		.byte	0x9
 3078 077f 8B       		.byte	0x8b
 3079 0780 6B000000 		.4byte	0x6b
 3080 0784 04       		.byte	0x4
 3081 0785 12       		.uleb128 0x12
 3082 0786 2B200000 		.4byte	.LASF221
 3083 078a 09       		.byte	0x9
 3084 078b 8C       		.byte	0x8c
 3085 078c CE070000 		.4byte	0x7ce
 3086 0790 08       		.byte	0x8
 3087 0791 12       		.uleb128 0x12
 3088 0792 5F2E0000 		.4byte	.LASF222
 3089 0796 09       		.byte	0x9
 3090 0797 8D       		.byte	0x8d
 3091 0798 D9070000 		.4byte	0x7d9
 3092 079c 0C       		.byte	0xc
 3093 079d 12       		.uleb128 0x12
 3094 079e AF3C0000 		.4byte	.LASF223
 3095 07a2 09       		.byte	0x9
 3096 07a3 8E       		.byte	0x8e
 3097 07a4 86040000 		.4byte	0x486
 3098 07a8 1E       		.byte	0x1e
 3099 07a9 12       		.uleb128 0x12
 3100 07aa 221D0000 		.4byte	.LASF224
ARM GAS  C:\Users\akita\AppData\Local\Temp\ccIEDY99.s 			page 70


 3101 07ae 09       		.byte	0x9
 3102 07af 8F       		.byte	0x8f
 3103 07b0 86040000 		.4byte	0x486
 3104 07b4 20       		.byte	0x20
 3105 07b5 12       		.uleb128 0x12
 3106 07b6 06260000 		.4byte	.LASF225
 3107 07ba 09       		.byte	0x9
 3108 07bb 90       		.byte	0x90
 3109 07bc 86040000 		.4byte	0x486
 3110 07c0 22       		.byte	0x22
 3111 07c1 12       		.uleb128 0x12
 3112 07c2 EA2F0000 		.4byte	.LASF226
 3113 07c6 09       		.byte	0x9
 3114 07c7 91       		.byte	0x91
 3115 07c8 86040000 		.4byte	0x486
 3116 07cc 24       		.byte	0x24
 3117 07cd 00       		.byte	0
 3118 07ce 07       		.uleb128 0x7
 3119 07cf 04       		.byte	0x4
 3120 07d0 D4070000 		.4byte	0x7d4
 3121 07d4 15       		.uleb128 0x15
 3122 07d5 4E070000 		.4byte	0x74e
 3123 07d9 16       		.uleb128 0x16
 3124 07da 4E070000 		.4byte	0x74e
 3125 07de E9070000 		.4byte	0x7e9
 3126 07e2 17       		.uleb128 0x17
 3127 07e3 A9000000 		.4byte	0xa9
 3128 07e7 02       		.byte	0x2
 3129 07e8 00       		.byte	0
 3130 07e9 10       		.uleb128 0x10
 3131 07ea F2050000 		.4byte	.LASF227
 3132 07ee 09       		.byte	0x9
 3133 07ef 92       		.byte	0x92
 3134 07f0 59070000 		.4byte	0x759
 3135 07f4 11       		.uleb128 0x11
 3136 07f5 08       		.byte	0x8
 3137 07f6 09       		.byte	0x9
 3138 07f7 CA       		.byte	0xca
 3139 07f8 2D080000 		.4byte	0x82d
 3140 07fc 12       		.uleb128 0x12
 3141 07fd 1B300000 		.4byte	.LASF167
 3142 0801 09       		.byte	0x9
 3143 0802 CC       		.byte	0xcc
 3144 0803 B6040000 		.4byte	0x4b6
 3145 0807 00       		.byte	0
 3146 0808 12       		.uleb128 0x12
 3147 0809 770D0000 		.4byte	.LASF228
 3148 080d 09       		.byte	0x9
 3149 080e CD       		.byte	0xcd
 3150 080f 6B000000 		.4byte	0x6b
 3151 0813 02       		.byte	0x2
 3152 0814 12       		.uleb128 0x12
 3153 0815 8B010000 		.4byte	.LASF229
 3154 0819 09       		.byte	0x9
 3155 081a CE       		.byte	0xce
 3156 081b EA060000 		.4byte	0x6ea
 3157 081f 03       		.byte	0x3
ARM GAS  C:\Users\akita\AppData\Local\Temp\ccIEDY99.s 			page 71


 3158 0820 12       		.uleb128 0x12
 3159 0821 D22D0000 		.4byte	.LASF163
 3160 0825 09       		.byte	0x9
 3161 0826 CF       		.byte	0xcf
 3162 0827 4E060000 		.4byte	0x64e
 3163 082b 04       		.byte	0x4
 3164 082c 00       		.byte	0
 3165 082d 10       		.uleb128 0x10
 3166 082e 55290000 		.4byte	.LASF230
 3167 0832 09       		.byte	0x9
 3168 0833 D0       		.byte	0xd0
 3169 0834 F4070000 		.4byte	0x7f4
 3170 0838 0C       		.uleb128 0xc
 3171 0839 02       		.byte	0x2
 3172 083a 0A       		.byte	0xa
 3173 083b AE       		.byte	0xae
 3174 083c DC0F0000 		.4byte	0xfdc
 3175 0840 0B       		.uleb128 0xb
 3176 0841 BF260000 		.4byte	.LASF231
 3177 0845 8002     		.sleb128 256
 3178 0847 0B       		.uleb128 0xb
 3179 0848 2D3E0000 		.4byte	.LASF232
 3180 084c 8102     		.sleb128 257
 3181 084e 0B       		.uleb128 0xb
 3182 084f A40B0000 		.4byte	.LASF233
 3183 0853 8202     		.sleb128 258
 3184 0855 0B       		.uleb128 0xb
 3185 0856 E33D0000 		.4byte	.LASF234
 3186 085a 8302     		.sleb128 259
 3187 085c 0B       		.uleb128 0xb
 3188 085d B52C0000 		.4byte	.LASF235
 3189 0861 8402     		.sleb128 260
 3190 0863 0B       		.uleb128 0xb
 3191 0864 F4380000 		.4byte	.LASF236
 3192 0868 8502     		.sleb128 261
 3193 086a 0B       		.uleb128 0xb
 3194 086b 68100000 		.4byte	.LASF237
 3195 086f 8602     		.sleb128 262
 3196 0871 0B       		.uleb128 0xb
 3197 0872 52360000 		.4byte	.LASF238
 3198 0876 8702     		.sleb128 263
 3199 0878 0B       		.uleb128 0xb
 3200 0879 2C3C0000 		.4byte	.LASF239
 3201 087d 8802     		.sleb128 264
 3202 087f 0B       		.uleb128 0xb
 3203 0880 3D060000 		.4byte	.LASF240
 3204 0884 8902     		.sleb128 265
 3205 0886 0B       		.uleb128 0xb
 3206 0887 68030000 		.4byte	.LASF241
 3207 088b 8A02     		.sleb128 266
 3208 088d 0B       		.uleb128 0xb
 3209 088e D62E0000 		.4byte	.LASF242
 3210 0892 8B02     		.sleb128 267
 3211 0894 0B       		.uleb128 0xb
 3212 0895 79200000 		.4byte	.LASF243
 3213 0899 8C02     		.sleb128 268
 3214 089b 0B       		.uleb128 0xb
ARM GAS  C:\Users\akita\AppData\Local\Temp\ccIEDY99.s 			page 72


 3215 089c 3B2B0000 		.4byte	.LASF244
 3216 08a0 8D02     		.sleb128 269
 3217 08a2 0B       		.uleb128 0xb
 3218 08a3 37040000 		.4byte	.LASF245
 3219 08a7 8E02     		.sleb128 270
 3220 08a9 0B       		.uleb128 0xb
 3221 08aa B2010000 		.4byte	.LASF246
 3222 08ae 8F02     		.sleb128 271
 3223 08b0 0B       		.uleb128 0xb
 3224 08b1 37080000 		.4byte	.LASF247
 3225 08b5 9002     		.sleb128 272
 3226 08b7 0B       		.uleb128 0xb
 3227 08b8 FA390000 		.4byte	.LASF248
 3228 08bc 9102     		.sleb128 273
 3229 08be 0B       		.uleb128 0xb
 3230 08bf 43110000 		.4byte	.LASF249
 3231 08c3 9202     		.sleb128 274
 3232 08c5 0B       		.uleb128 0xb
 3233 08c6 C42F0000 		.4byte	.LASF250
 3234 08ca 9302     		.sleb128 275
 3235 08cc 0B       		.uleb128 0xb
 3236 08cd 0D3D0000 		.4byte	.LASF251
 3237 08d1 9402     		.sleb128 276
 3238 08d3 0B       		.uleb128 0xb
 3239 08d4 03340000 		.4byte	.LASF252
 3240 08d8 9502     		.sleb128 277
 3241 08da 0B       		.uleb128 0xb
 3242 08db A33F0000 		.4byte	.LASF253
 3243 08df 9602     		.sleb128 278
 3244 08e1 0B       		.uleb128 0xb
 3245 08e2 5D240000 		.4byte	.LASF254
 3246 08e6 9702     		.sleb128 279
 3247 08e8 0B       		.uleb128 0xb
 3248 08e9 FC150000 		.4byte	.LASF255
 3249 08ed 9802     		.sleb128 280
 3250 08ef 0B       		.uleb128 0xb
 3251 08f0 0F360000 		.4byte	.LASF256
 3252 08f4 9902     		.sleb128 281
 3253 08f6 0B       		.uleb128 0xb
 3254 08f7 CC270000 		.4byte	.LASF257
 3255 08fb 9A02     		.sleb128 282
 3256 08fd 0B       		.uleb128 0xb
 3257 08fe 06400000 		.4byte	.LASF258
 3258 0902 9B02     		.sleb128 283
 3259 0904 0B       		.uleb128 0xb
 3260 0905 9A360000 		.4byte	.LASF259
 3261 0909 9C02     		.sleb128 284
 3262 090b 0B       		.uleb128 0xb
 3263 090c CE3E0000 		.4byte	.LASF260
 3264 0910 9D02     		.sleb128 285
 3265 0912 0B       		.uleb128 0xb
 3266 0913 581C0000 		.4byte	.LASF261
 3267 0917 9E02     		.sleb128 286
 3268 0919 0B       		.uleb128 0xb
 3269 091a 921F0000 		.4byte	.LASF262
 3270 091e 9F02     		.sleb128 287
 3271 0920 0B       		.uleb128 0xb
ARM GAS  C:\Users\akita\AppData\Local\Temp\ccIEDY99.s 			page 73


 3272 0921 1F050000 		.4byte	.LASF263
 3273 0925 A002     		.sleb128 288
 3274 0927 0B       		.uleb128 0xb
 3275 0928 212C0000 		.4byte	.LASF264
 3276 092c A102     		.sleb128 289
 3277 092e 0B       		.uleb128 0xb
 3278 092f FE1C0000 		.4byte	.LASF265
 3279 0933 A202     		.sleb128 290
 3280 0935 0B       		.uleb128 0xb
 3281 0936 33300000 		.4byte	.LASF266
 3282 093a A302     		.sleb128 291
 3283 093c 0B       		.uleb128 0xb
 3284 093d DF2A0000 		.4byte	.LASF267
 3285 0941 A402     		.sleb128 292
 3286 0943 0B       		.uleb128 0xb
 3287 0944 4E380000 		.4byte	.LASF268
 3288 0948 A502     		.sleb128 293
 3289 094a 0B       		.uleb128 0xb
 3290 094b 920E0000 		.4byte	.LASF269
 3291 094f A602     		.sleb128 294
 3292 0951 0B       		.uleb128 0xb
 3293 0952 2E360000 		.4byte	.LASF270
 3294 0956 A702     		.sleb128 295
 3295 0958 0B       		.uleb128 0xb
 3296 0959 E5170000 		.4byte	.LASF271
 3297 095d A802     		.sleb128 296
 3298 095f 0B       		.uleb128 0xb
 3299 0960 69190000 		.4byte	.LASF272
 3300 0964 A902     		.sleb128 297
 3301 0966 0B       		.uleb128 0xb
 3302 0967 B4030000 		.4byte	.LASF273
 3303 096b AA02     		.sleb128 298
 3304 096d 0B       		.uleb128 0xb
 3305 096e D8030000 		.4byte	.LASF274
 3306 0972 AB02     		.sleb128 299
 3307 0974 0B       		.uleb128 0xb
 3308 0975 AF000000 		.4byte	.LASF275
 3309 0979 AC02     		.sleb128 300
 3310 097b 0B       		.uleb128 0xb
 3311 097c 4B0E0000 		.4byte	.LASF276
 3312 0980 AD02     		.sleb128 301
 3313 0982 0B       		.uleb128 0xb
 3314 0983 4F3E0000 		.4byte	.LASF277
 3315 0987 AE02     		.sleb128 302
 3316 0989 0B       		.uleb128 0xb
 3317 098a 66070000 		.4byte	.LASF278
 3318 098e AF02     		.sleb128 303
 3319 0990 0B       		.uleb128 0xb
 3320 0991 CB250000 		.4byte	.LASF279
 3321 0995 B002     		.sleb128 304
 3322 0997 0B       		.uleb128 0xb
 3323 0998 BB330000 		.4byte	.LASF280
 3324 099c B102     		.sleb128 305
 3325 099e 0B       		.uleb128 0xb
 3326 099f 32150000 		.4byte	.LASF281
 3327 09a3 B202     		.sleb128 306
 3328 09a5 0B       		.uleb128 0xb
ARM GAS  C:\Users\akita\AppData\Local\Temp\ccIEDY99.s 			page 74


 3329 09a6 07270000 		.4byte	.LASF282
 3330 09aa B302     		.sleb128 307
 3331 09ac 0B       		.uleb128 0xb
 3332 09ad F0000000 		.4byte	.LASF283
 3333 09b1 B402     		.sleb128 308
 3334 09b3 0B       		.uleb128 0xb
 3335 09b4 88070000 		.4byte	.LASF284
 3336 09b8 B502     		.sleb128 309
 3337 09ba 0B       		.uleb128 0xb
 3338 09bb BF020000 		.4byte	.LASF285
 3339 09bf B602     		.sleb128 310
 3340 09c1 0B       		.uleb128 0xb
 3341 09c2 190A0000 		.4byte	.LASF286
 3342 09c6 B702     		.sleb128 311
 3343 09c8 0B       		.uleb128 0xb
 3344 09c9 F42D0000 		.4byte	.LASF287
 3345 09cd B802     		.sleb128 312
 3346 09cf 0B       		.uleb128 0xb
 3347 09d0 02350000 		.4byte	.LASF288
 3348 09d4 B902     		.sleb128 313
 3349 09d6 0B       		.uleb128 0xb
 3350 09d7 3E090000 		.4byte	.LASF289
 3351 09db BA02     		.sleb128 314
 3352 09dd 0B       		.uleb128 0xb
 3353 09de 83250000 		.4byte	.LASF290
 3354 09e2 BB02     		.sleb128 315
 3355 09e4 0B       		.uleb128 0xb
 3356 09e5 4D390000 		.4byte	.LASF291
 3357 09e9 BC02     		.sleb128 316
 3358 09eb 0B       		.uleb128 0xb
 3359 09ec 4B210000 		.4byte	.LASF292
 3360 09f0 BD02     		.sleb128 317
 3361 09f2 0B       		.uleb128 0xb
 3362 09f3 B4390000 		.4byte	.LASF293
 3363 09f7 BE02     		.sleb128 318
 3364 09f9 0B       		.uleb128 0xb
 3365 09fa D0090000 		.4byte	.LASF294
 3366 09fe BF02     		.sleb128 319
 3367 0a00 0B       		.uleb128 0xb
 3368 0a01 FE290000 		.4byte	.LASF295
 3369 0a05 C002     		.sleb128 320
 3370 0a07 0B       		.uleb128 0xb
 3371 0a08 CC3B0000 		.4byte	.LASF296
 3372 0a0c C102     		.sleb128 321
 3373 0a0e 0B       		.uleb128 0xb
 3374 0a0f 1D3A0000 		.4byte	.LASF297
 3375 0a13 C202     		.sleb128 322
 3376 0a15 0B       		.uleb128 0xb
 3377 0a16 0A010000 		.4byte	.LASF298
 3378 0a1a C302     		.sleb128 323
 3379 0a1c 0B       		.uleb128 0xb
 3380 0a1d 90350000 		.4byte	.LASF299
 3381 0a21 C402     		.sleb128 324
 3382 0a23 0B       		.uleb128 0xb
 3383 0a24 D81D0000 		.4byte	.LASF300
 3384 0a28 C502     		.sleb128 325
 3385 0a2a 0B       		.uleb128 0xb
ARM GAS  C:\Users\akita\AppData\Local\Temp\ccIEDY99.s 			page 75


 3386 0a2b 2E340000 		.4byte	.LASF301
 3387 0a2f C602     		.sleb128 326
 3388 0a31 0B       		.uleb128 0xb
 3389 0a32 64310000 		.4byte	.LASF302
 3390 0a36 C702     		.sleb128 327
 3391 0a38 0B       		.uleb128 0xb
 3392 0a39 6A020000 		.4byte	.LASF303
 3393 0a3d C802     		.sleb128 328
 3394 0a3f 0B       		.uleb128 0xb
 3395 0a40 73300000 		.4byte	.LASF304
 3396 0a44 C902     		.sleb128 329
 3397 0a46 0B       		.uleb128 0xb
 3398 0a47 980F0000 		.4byte	.LASF305
 3399 0a4b CA02     		.sleb128 330
 3400 0a4d 0B       		.uleb128 0xb
 3401 0a4e 830A0000 		.4byte	.LASF306
 3402 0a52 CB02     		.sleb128 331
 3403 0a54 0B       		.uleb128 0xb
 3404 0a55 600A0000 		.4byte	.LASF307
 3405 0a59 CC02     		.sleb128 332
 3406 0a5b 0B       		.uleb128 0xb
 3407 0a5c 740F0000 		.4byte	.LASF308
 3408 0a60 CD02     		.sleb128 333
 3409 0a62 0B       		.uleb128 0xb
 3410 0a63 2B1F0000 		.4byte	.LASF309
 3411 0a67 CE02     		.sleb128 334
 3412 0a69 0B       		.uleb128 0xb
 3413 0a6a 6A3D0000 		.4byte	.LASF310
 3414 0a6e CF02     		.sleb128 335
 3415 0a70 0B       		.uleb128 0xb
 3416 0a71 4E140000 		.4byte	.LASF311
 3417 0a75 D002     		.sleb128 336
 3418 0a77 0B       		.uleb128 0xb
 3419 0a78 D82D0000 		.4byte	.LASF312
 3420 0a7c D102     		.sleb128 337
 3421 0a7e 0B       		.uleb128 0xb
 3422 0a7f DD280000 		.4byte	.LASF313
 3423 0a83 D202     		.sleb128 338
 3424 0a85 0B       		.uleb128 0xb
 3425 0a86 25020000 		.4byte	.LASF314
 3426 0a8a D302     		.sleb128 339
 3427 0a8c 0B       		.uleb128 0xb
 3428 0a8d 741D0000 		.4byte	.LASF315
 3429 0a91 D402     		.sleb128 340
 3430 0a93 0B       		.uleb128 0xb
 3431 0a94 25010000 		.4byte	.LASF316
 3432 0a98 D502     		.sleb128 341
 3433 0a9a 0B       		.uleb128 0xb
 3434 0a9b E70A0000 		.4byte	.LASF317
 3435 0a9f D602     		.sleb128 342
 3436 0aa1 0B       		.uleb128 0xb
 3437 0aa2 7D3A0000 		.4byte	.LASF318
 3438 0aa6 D702     		.sleb128 343
 3439 0aa8 0B       		.uleb128 0xb
 3440 0aa9 58170000 		.4byte	.LASF319
 3441 0aad D802     		.sleb128 344
 3442 0aaf 0B       		.uleb128 0xb
ARM GAS  C:\Users\akita\AppData\Local\Temp\ccIEDY99.s 			page 76


 3443 0ab0 69160000 		.4byte	.LASF320
 3444 0ab4 D902     		.sleb128 345
 3445 0ab6 0B       		.uleb128 0xb
 3446 0ab7 D4060000 		.4byte	.LASF321
 3447 0abb DA02     		.sleb128 346
 3448 0abd 0B       		.uleb128 0xb
 3449 0abe 5C0B0000 		.4byte	.LASF322
 3450 0ac2 DB02     		.sleb128 347
 3451 0ac4 0B       		.uleb128 0xb
 3452 0ac5 BD220000 		.4byte	.LASF323
 3453 0ac9 DC02     		.sleb128 348
 3454 0acb 0B       		.uleb128 0xb
 3455 0acc 591E0000 		.4byte	.LASF324
 3456 0ad0 DD02     		.sleb128 349
 3457 0ad2 0B       		.uleb128 0xb
 3458 0ad3 B6080000 		.4byte	.LASF325
 3459 0ad7 DE02     		.sleb128 350
 3460 0ad9 0B       		.uleb128 0xb
 3461 0ada B5070000 		.4byte	.LASF326
 3462 0ade DF02     		.sleb128 351
 3463 0ae0 0B       		.uleb128 0xb
 3464 0ae1 47020000 		.4byte	.LASF327
 3465 0ae5 E002     		.sleb128 352
 3466 0ae7 0B       		.uleb128 0xb
 3467 0ae8 141E0000 		.4byte	.LASF328
 3468 0aec E102     		.sleb128 353
 3469 0aee 0B       		.uleb128 0xb
 3470 0aef 783F0000 		.4byte	.LASF329
 3471 0af3 E202     		.sleb128 354
 3472 0af5 0B       		.uleb128 0xb
 3473 0af6 07190000 		.4byte	.LASF330
 3474 0afa E302     		.sleb128 355
 3475 0afc 0B       		.uleb128 0xb
 3476 0afd 8F160000 		.4byte	.LASF331
 3477 0b01 E402     		.sleb128 356
 3478 0b03 0B       		.uleb128 0xb
 3479 0b04 A6250000 		.4byte	.LASF332
 3480 0b08 E502     		.sleb128 357
 3481 0b0a 0B       		.uleb128 0xb
 3482 0b0b 42370000 		.4byte	.LASF333
 3483 0b0f E602     		.sleb128 358
 3484 0b11 0B       		.uleb128 0xb
 3485 0b12 083C0000 		.4byte	.LASF334
 3486 0b16 E702     		.sleb128 359
 3487 0b18 0B       		.uleb128 0xb
 3488 0b19 15040000 		.4byte	.LASF335
 3489 0b1d E802     		.sleb128 360
 3490 0b1f 0B       		.uleb128 0xb
 3491 0b20 1F2D0000 		.4byte	.LASF336
 3492 0b24 E902     		.sleb128 361
 3493 0b26 0B       		.uleb128 0xb
 3494 0b27 CE130000 		.4byte	.LASF337
 3495 0b2b EA02     		.sleb128 362
 3496 0b2d 0B       		.uleb128 0xb
 3497 0b2e 361D0000 		.4byte	.LASF338
 3498 0b32 EB02     		.sleb128 363
 3499 0b34 0B       		.uleb128 0xb
ARM GAS  C:\Users\akita\AppData\Local\Temp\ccIEDY99.s 			page 77


 3500 0b35 15290000 		.4byte	.LASF339
 3501 0b39 EC02     		.sleb128 364
 3502 0b3b 0B       		.uleb128 0xb
 3503 0b3c C9320000 		.4byte	.LASF340
 3504 0b40 ED02     		.sleb128 365
 3505 0b42 0B       		.uleb128 0xb
 3506 0b43 C6140000 		.4byte	.LASF341
 3507 0b47 EE02     		.sleb128 366
 3508 0b49 0B       		.uleb128 0xb
 3509 0b4a 66230000 		.4byte	.LASF342
 3510 0b4e EF02     		.sleb128 367
 3511 0b50 0B       		.uleb128 0xb
 3512 0b51 97210000 		.4byte	.LASF343
 3513 0b55 F002     		.sleb128 368
 3514 0b57 0B       		.uleb128 0xb
 3515 0b58 3E260000 		.4byte	.LASF344
 3516 0b5c F102     		.sleb128 369
 3517 0b5e 0B       		.uleb128 0xb
 3518 0b5f 95320000 		.4byte	.LASF345
 3519 0b63 F202     		.sleb128 370
 3520 0b65 0B       		.uleb128 0xb
 3521 0b66 4B230000 		.4byte	.LASF346
 3522 0b6a F302     		.sleb128 371
 3523 0b6c 0B       		.uleb128 0xb
 3524 0b6d CD230000 		.4byte	.LASF347
 3525 0b71 F402     		.sleb128 372
 3526 0b73 0B       		.uleb128 0xb
 3527 0b74 E2150000 		.4byte	.LASF348
 3528 0b78 F502     		.sleb128 373
 3529 0b7a 0B       		.uleb128 0xb
 3530 0b7b 840D0000 		.4byte	.LASF349
 3531 0b7f F602     		.sleb128 374
 3532 0b81 0B       		.uleb128 0xb
 3533 0b82 EC350000 		.4byte	.LASF350
 3534 0b86 F702     		.sleb128 375
 3535 0b88 0B       		.uleb128 0xb
 3536 0b89 1E1A0000 		.4byte	.LASF351
 3537 0b8d F802     		.sleb128 376
 3538 0b8f 0B       		.uleb128 0xb
 3539 0b90 200C0000 		.4byte	.LASF352
 3540 0b94 F902     		.sleb128 377
 3541 0b96 0B       		.uleb128 0xb
 3542 0b97 78360000 		.4byte	.LASF353
 3543 0b9b FA02     		.sleb128 378
 3544 0b9d 0B       		.uleb128 0xb
 3545 0b9e 872E0000 		.4byte	.LASF354
 3546 0ba2 FB02     		.sleb128 379
 3547 0ba4 0B       		.uleb128 0xb
 3548 0ba5 832C0000 		.4byte	.LASF355
 3549 0ba9 FC02     		.sleb128 380
 3550 0bab 0B       		.uleb128 0xb
 3551 0bac 9A200000 		.4byte	.LASF356
 3552 0bb0 FD02     		.sleb128 381
 3553 0bb2 0B       		.uleb128 0xb
 3554 0bb3 8F020000 		.4byte	.LASF357
 3555 0bb7 FE02     		.sleb128 382
 3556 0bb9 0B       		.uleb128 0xb
ARM GAS  C:\Users\akita\AppData\Local\Temp\ccIEDY99.s 			page 78


 3557 0bba E4290000 		.4byte	.LASF358
 3558 0bbe FF02     		.sleb128 383
 3559 0bc0 0B       		.uleb128 0xb
 3560 0bc1 503D0000 		.4byte	.LASF359
 3561 0bc5 8003     		.sleb128 384
 3562 0bc7 0B       		.uleb128 0xb
 3563 0bc8 70380000 		.4byte	.LASF360
 3564 0bcc 8103     		.sleb128 385
 3565 0bce 0B       		.uleb128 0xb
 3566 0bcf 701F0000 		.4byte	.LASF361
 3567 0bd3 8203     		.sleb128 386
 3568 0bd5 0B       		.uleb128 0xb
 3569 0bd6 3E030000 		.4byte	.LASF362
 3570 0bda 8303     		.sleb128 387
 3571 0bdc 0B       		.uleb128 0xb
 3572 0bdd 8F120000 		.4byte	.LASF363
 3573 0be1 8403     		.sleb128 388
 3574 0be3 0B       		.uleb128 0xb
 3575 0be4 383A0000 		.4byte	.LASF364
 3576 0be8 8503     		.sleb128 389
 3577 0bea 0B       		.uleb128 0xb
 3578 0beb 45400000 		.4byte	.LASF365
 3579 0bef 8603     		.sleb128 390
 3580 0bf1 0B       		.uleb128 0xb
 3581 0bf2 0E240000 		.4byte	.LASF366
 3582 0bf6 8703     		.sleb128 391
 3583 0bf8 0B       		.uleb128 0xb
 3584 0bf9 0C3F0000 		.4byte	.LASF367
 3585 0bfd 8803     		.sleb128 392
 3586 0bff 0B       		.uleb128 0xb
 3587 0c00 AB230000 		.4byte	.LASF368
 3588 0c04 8903     		.sleb128 393
 3589 0c06 0B       		.uleb128 0xb
 3590 0c07 D0070000 		.4byte	.LASF369
 3591 0c0b 8A03     		.sleb128 394
 3592 0c0d 0B       		.uleb128 0xb
 3593 0c0e 5B1A0000 		.4byte	.LASF370
 3594 0c12 8B03     		.sleb128 395
 3595 0c14 0B       		.uleb128 0xb
 3596 0c15 C3170000 		.4byte	.LASF371
 3597 0c19 8C03     		.sleb128 396
 3598 0c1b 0B       		.uleb128 0xb
 3599 0c1c A60D0000 		.4byte	.LASF372
 3600 0c20 8D03     		.sleb128 397
 3601 0c22 0B       		.uleb128 0xb
 3602 0c23 88310000 		.4byte	.LASF373
 3603 0c27 8E03     		.sleb128 398
 3604 0c29 0B       		.uleb128 0xb
 3605 0c2a 101B0000 		.4byte	.LASF374
 3606 0c2e 8F03     		.sleb128 399
 3607 0c30 0B       		.uleb128 0xb
 3608 0c31 8D2A0000 		.4byte	.LASF375
 3609 0c35 9003     		.sleb128 400
 3610 0c37 0B       		.uleb128 0xb
 3611 0c38 B9040000 		.4byte	.LASF376
 3612 0c3c 9103     		.sleb128 401
 3613 0c3e 0B       		.uleb128 0xb
ARM GAS  C:\Users\akita\AppData\Local\Temp\ccIEDY99.s 			page 79


 3614 0c3f 83100000 		.4byte	.LASF377
 3615 0c43 9203     		.sleb128 402
 3616 0c45 0B       		.uleb128 0xb
 3617 0c46 7B2B0000 		.4byte	.LASF378
 3618 0c4a 9303     		.sleb128 403
 3619 0c4c 0B       		.uleb128 0xb
 3620 0c4d A9170000 		.4byte	.LASF379
 3621 0c51 9403     		.sleb128 404
 3622 0c53 0B       		.uleb128 0xb
 3623 0c54 0F1F0000 		.4byte	.LASF380
 3624 0c58 9503     		.sleb128 405
 3625 0c5a 0B       		.uleb128 0xb
 3626 0c5b E6200000 		.4byte	.LASF381
 3627 0c5f 9603     		.sleb128 406
 3628 0c61 0B       		.uleb128 0xb
 3629 0c62 1F370000 		.4byte	.LASF382
 3630 0c66 9703     		.sleb128 407
 3631 0c68 0B       		.uleb128 0xb
 3632 0c69 6A150000 		.4byte	.LASF383
 3633 0c6d 9803     		.sleb128 408
 3634 0c6f 0B       		.uleb128 0xb
 3635 0c70 72270000 		.4byte	.LASF384
 3636 0c74 9903     		.sleb128 409
 3637 0c76 0B       		.uleb128 0xb
 3638 0c77 68140000 		.4byte	.LASF385
 3639 0c7b 9A03     		.sleb128 410
 3640 0c7d 0B       		.uleb128 0xb
 3641 0c7e 8C190000 		.4byte	.LASF386
 3642 0c82 9B03     		.sleb128 411
 3643 0c84 0B       		.uleb128 0xb
 3644 0c85 C6400000 		.4byte	.LASF387
 3645 0c89 9C03     		.sleb128 412
 3646 0c8b 0B       		.uleb128 0xb
 3647 0c8c 232A0000 		.4byte	.LASF388
 3648 0c90 9D03     		.sleb128 413
 3649 0c92 0B       		.uleb128 0xb
 3650 0c93 BD2A0000 		.4byte	.LASF389
 3651 0c97 9E03     		.sleb128 414
 3652 0c99 0B       		.uleb128 0xb
 3653 0c9a 73080000 		.4byte	.LASF390
 3654 0c9e 9F03     		.sleb128 415
 3655 0ca0 0B       		.uleb128 0xb
 3656 0ca1 35170000 		.4byte	.LASF391
 3657 0ca5 A003     		.sleb128 416
 3658 0ca7 0B       		.uleb128 0xb
 3659 0ca8 57320000 		.4byte	.LASF392
 3660 0cac A103     		.sleb128 417
 3661 0cae 0B       		.uleb128 0xb
 3662 0caf C90C0000 		.4byte	.LASF393
 3663 0cb3 A203     		.sleb128 418
 3664 0cb5 0B       		.uleb128 0xb
 3665 0cb6 51000000 		.4byte	.LASF394
 3666 0cba A303     		.sleb128 419
 3667 0cbc 0B       		.uleb128 0xb
 3668 0cbd EC370000 		.4byte	.LASF395
 3669 0cc1 A403     		.sleb128 420
 3670 0cc3 0B       		.uleb128 0xb
ARM GAS  C:\Users\akita\AppData\Local\Temp\ccIEDY99.s 			page 80


 3671 0cc4 ED120000 		.4byte	.LASF396
 3672 0cc8 A503     		.sleb128 421
 3673 0cca 0B       		.uleb128 0xb
 3674 0ccb 6A400000 		.4byte	.LASF397
 3675 0ccf A603     		.sleb128 422
 3676 0cd1 0B       		.uleb128 0xb
 3677 0cd2 B31C0000 		.4byte	.LASF398
 3678 0cd6 A703     		.sleb128 423
 3679 0cd8 0B       		.uleb128 0xb
 3680 0cd9 01200000 		.4byte	.LASF399
 3681 0cdd A803     		.sleb128 424
 3682 0cdf 0B       		.uleb128 0xb
 3683 0ce0 2B400000 		.4byte	.LASF400
 3684 0ce4 A903     		.sleb128 425
 3685 0ce6 0B       		.uleb128 0xb
 3686 0ce7 58340000 		.4byte	.LASF401
 3687 0ceb AA03     		.sleb128 426
 3688 0ced 0B       		.uleb128 0xb
 3689 0cee 4F270000 		.4byte	.LASF402
 3690 0cf2 AB03     		.sleb128 427
 3691 0cf4 0B       		.uleb128 0xb
 3692 0cf5 8B290000 		.4byte	.LASF403
 3693 0cf9 AC03     		.sleb128 428
 3694 0cfb 0B       		.uleb128 0xb
 3695 0cfc 393B0000 		.4byte	.LASF404
 3696 0d00 AD03     		.sleb128 429
 3697 0d02 0B       		.uleb128 0xb
 3698 0d03 691B0000 		.4byte	.LASF405
 3699 0d07 AE03     		.sleb128 430
 3700 0d09 0B       		.uleb128 0xb
 3701 0d0a ED080000 		.4byte	.LASF406
 3702 0d0e AF03     		.sleb128 431
 3703 0d10 0B       		.uleb128 0xb
 3704 0d11 CC100000 		.4byte	.LASF407
 3705 0d15 B003     		.sleb128 432
 3706 0d17 0B       		.uleb128 0xb
 3707 0d18 4D3F0000 		.4byte	.LASF408
 3708 0d1c B103     		.sleb128 433
 3709 0d1e 0B       		.uleb128 0xb
 3710 0d1f 980C0000 		.4byte	.LASF409
 3711 0d23 B203     		.sleb128 434
 3712 0d25 0B       		.uleb128 0xb
 3713 0d26 461B0000 		.4byte	.LASF410
 3714 0d2a B303     		.sleb128 435
 3715 0d2c 0B       		.uleb128 0xb
 3716 0d2d 4C1F0000 		.4byte	.LASF411
 3717 0d31 B403     		.sleb128 436
 3718 0d33 0B       		.uleb128 0xb
 3719 0d34 1B3B0000 		.4byte	.LASF412
 3720 0d38 B503     		.sleb128 437
 3721 0d3a 0B       		.uleb128 0xb
 3722 0d3b 7E370000 		.4byte	.LASF413
 3723 0d3f B603     		.sleb128 438
 3724 0d41 0B       		.uleb128 0xb
 3725 0d42 F2160000 		.4byte	.LASF414
 3726 0d46 B703     		.sleb128 439
 3727 0d48 0B       		.uleb128 0xb
ARM GAS  C:\Users\akita\AppData\Local\Temp\ccIEDY99.s 			page 81


 3728 0d49 9B220000 		.4byte	.LASF415
 3729 0d4d B803     		.sleb128 440
 3730 0d4f 0B       		.uleb128 0xb
 3731 0d50 00030000 		.4byte	.LASF416
 3732 0d54 B903     		.sleb128 441
 3733 0d56 0B       		.uleb128 0xb
 3734 0d57 F72E0000 		.4byte	.LASF417
 3735 0d5b BA03     		.sleb128 442
 3736 0d5d 0B       		.uleb128 0xb
 3737 0d5e F2030000 		.4byte	.LASF418
 3738 0d62 BB03     		.sleb128 443
 3739 0d64 0B       		.uleb128 0xb
 3740 0d65 DA2B0000 		.4byte	.LASF419
 3741 0d69 BC03     		.sleb128 444
 3742 0d6b 0B       		.uleb128 0xb
 3743 0d6c A50A0000 		.4byte	.LASF420
 3744 0d70 BD03     		.sleb128 445
 3745 0d72 0B       		.uleb128 0xb
 3746 0d73 370B0000 		.4byte	.LASF421
 3747 0d77 BE03     		.sleb128 446
 3748 0d79 0B       		.uleb128 0xb
 3749 0d7a 7B320000 		.4byte	.LASF422
 3750 0d7e BF03     		.sleb128 447
 3751 0d80 0B       		.uleb128 0xb
 3752 0d81 02070000 		.4byte	.LASF423
 3753 0d85 C003     		.sleb128 448
 3754 0d87 0B       		.uleb128 0xb
 3755 0d88 212E0000 		.4byte	.LASF424
 3756 0d8c C103     		.sleb128 449
 3757 0d8e 0B       		.uleb128 0xb
 3758 0d8f 452C0000 		.4byte	.LASF425
 3759 0d93 C203     		.sleb128 450
 3760 0d95 0B       		.uleb128 0xb
 3761 0d96 7C180000 		.4byte	.LASF426
 3762 0d9a C303     		.sleb128 451
 3763 0d9c 0B       		.uleb128 0xb
 3764 0d9d BF3C0000 		.4byte	.LASF427
 3765 0da1 C403     		.sleb128 452
 3766 0da3 0B       		.uleb128 0xb
 3767 0da4 53220000 		.4byte	.LASF428
 3768 0da8 C503     		.sleb128 453
 3769 0daa 0B       		.uleb128 0xb
 3770 0dab 182B0000 		.4byte	.LASF429
 3771 0daf C603     		.sleb128 454
 3772 0db1 0B       		.uleb128 0xb
 3773 0db2 9A1B0000 		.4byte	.LASF430
 3774 0db6 C703     		.sleb128 455
 3775 0db8 0B       		.uleb128 0xb
 3776 0db9 3E310000 		.4byte	.LASF431
 3777 0dbd C803     		.sleb128 456
 3778 0dbf 0B       		.uleb128 0xb
 3779 0dc0 591D0000 		.4byte	.LASF432
 3780 0dc4 C903     		.sleb128 457
 3781 0dc6 0B       		.uleb128 0xb
 3782 0dc7 BF1B0000 		.4byte	.LASF433
 3783 0dcb CA03     		.sleb128 458
 3784 0dcd 0B       		.uleb128 0xb
ARM GAS  C:\Users\akita\AppData\Local\Temp\ccIEDY99.s 			page 82


 3785 0dce 1C070000 		.4byte	.LASF434
 3786 0dd2 CB03     		.sleb128 459
 3787 0dd4 0B       		.uleb128 0xb
 3788 0dd5 FA190000 		.4byte	.LASF435
 3789 0dd9 CC03     		.sleb128 460
 3790 0ddb 0B       		.uleb128 0xb
 3791 0ddc 9E340000 		.4byte	.LASF436
 3792 0de0 CD03     		.sleb128 461
 3793 0de2 0B       		.uleb128 0xb
 3794 0de3 58300000 		.4byte	.LASF437
 3795 0de7 CE03     		.sleb128 462
 3796 0de9 0B       		.uleb128 0xb
 3797 0dea F5110000 		.4byte	.LASF438
 3798 0dee CF03     		.sleb128 463
 3799 0df0 0B       		.uleb128 0xb
 3800 0df1 321C0000 		.4byte	.LASF439
 3801 0df5 D003     		.sleb128 464
 3802 0df7 0B       		.uleb128 0xb
 3803 0df8 65260000 		.4byte	.LASF440
 3804 0dfc D103     		.sleb128 465
 3805 0dfe 0B       		.uleb128 0xb
 3806 0dff 8D1E0000 		.4byte	.LASF441
 3807 0e03 D203     		.sleb128 466
 3808 0e05 0B       		.uleb128 0xb
 3809 0e06 DA1F0000 		.4byte	.LASF442
 3810 0e0a D303     		.sleb128 467
 3811 0e0c 0B       		.uleb128 0xb
 3812 0e0d 34000000 		.4byte	.LASF443
 3813 0e11 D403     		.sleb128 468
 3814 0e13 0B       		.uleb128 0xb
 3815 0e14 7A040000 		.4byte	.LASF444
 3816 0e18 D503     		.sleb128 469
 3817 0e1a 0B       		.uleb128 0xb
 3818 0e1b 46190000 		.4byte	.LASF445
 3819 0e1f D603     		.sleb128 470
 3820 0e21 0B       		.uleb128 0xb
 3821 0e22 3C0A0000 		.4byte	.LASF446
 3822 0e26 D703     		.sleb128 471
 3823 0e28 0B       		.uleb128 0xb
 3824 0e29 48010000 		.4byte	.LASF447
 3825 0e2d D803     		.sleb128 472
 3826 0e2f 0B       		.uleb128 0xb
 3827 0e30 B51F0000 		.4byte	.LASF448
 3828 0e34 D903     		.sleb128 473
 3829 0e36 0B       		.uleb128 0xb
 3830 0e37 E13F0000 		.4byte	.LASF449
 3831 0e3b DA03     		.sleb128 474
 3832 0e3d 0B       		.uleb128 0xb
 3833 0e3e C51A0000 		.4byte	.LASF450
 3834 0e42 DB03     		.sleb128 475
 3835 0e44 0B       		.uleb128 0xb
 3836 0e45 250F0000 		.4byte	.LASF451
 3837 0e49 DC03     		.sleb128 476
 3838 0e4b 0B       		.uleb128 0xb
 3839 0e4c B3160000 		.4byte	.LASF452
 3840 0e50 DD03     		.sleb128 477
 3841 0e52 0B       		.uleb128 0xb
ARM GAS  C:\Users\akita\AppData\Local\Temp\ccIEDY99.s 			page 83


 3842 0e53 652A0000 		.4byte	.LASF453
 3843 0e57 DE03     		.sleb128 478
 3844 0e59 0B       		.uleb128 0xb
 3845 0e5a 5F040000 		.4byte	.LASF454
 3846 0e5e DF03     		.sleb128 479
 3847 0e60 0B       		.uleb128 0xb
 3848 0e61 57330000 		.4byte	.LASF455
 3849 0e65 E003     		.sleb128 480
 3850 0e67 0B       		.uleb128 0xb
 3851 0e68 BD0F0000 		.4byte	.LASF456
 3852 0e6c E103     		.sleb128 481
 3853 0e6e 0B       		.uleb128 0xb
 3854 0e6f B11E0000 		.4byte	.LASF457
 3855 0e73 E203     		.sleb128 482
 3856 0e75 0B       		.uleb128 0xb
 3857 0e76 21160000 		.4byte	.LASF458
 3858 0e7a E303     		.sleb128 483
 3859 0e7c 0B       		.uleb128 0xb
 3860 0e7d A13A0000 		.4byte	.LASF459
 3861 0e81 E403     		.sleb128 484
 3862 0e83 0B       		.uleb128 0xb
 3863 0e84 8F030000 		.4byte	.LASF460
 3864 0e88 E503     		.sleb128 485
 3865 0e8a 0B       		.uleb128 0xb
 3866 0e8b 6C010000 		.4byte	.LASF461
 3867 0e8f E603     		.sleb128 486
 3868 0e91 0B       		.uleb128 0xb
 3869 0e92 10130000 		.4byte	.LASF462
 3870 0e96 E703     		.sleb128 487
 3871 0e98 0B       		.uleb128 0xb
 3872 0e99 A7100000 		.4byte	.LASF463
 3873 0e9d E803     		.sleb128 488
 3874 0e9f 0B       		.uleb128 0xb
 3875 0ea0 18260000 		.4byte	.LASF464
 3876 0ea4 E903     		.sleb128 489
 3877 0ea6 0B       		.uleb128 0xb
 3878 0ea7 B5380000 		.4byte	.LASF465
 3879 0eab EA03     		.sleb128 490
 3880 0ead 0B       		.uleb128 0xb
 3881 0eae 8E230000 		.4byte	.LASF466
 3882 0eb2 EB03     		.sleb128 491
 3883 0eb4 0B       		.uleb128 0xb
 3884 0eb5 33320000 		.4byte	.LASF467
 3885 0eb9 EC03     		.sleb128 492
 3886 0ebb 0B       		.uleb128 0xb
 3887 0ebc 89110000 		.4byte	.LASF468
 3888 0ec0 ED03     		.sleb128 493
 3889 0ec2 0B       		.uleb128 0xb
 3890 0ec3 FB040000 		.4byte	.LASF469
 3891 0ec7 EE03     		.sleb128 494
 3892 0ec9 0B       		.uleb128 0xb
 3893 0eca 0E320000 		.4byte	.LASF470
 3894 0ece EF03     		.sleb128 495
 3895 0ed0 0B       		.uleb128 0xb
 3896 0ed1 C1110000 		.4byte	.LASF471
 3897 0ed5 F003     		.sleb128 496
 3898 0ed7 0B       		.uleb128 0xb
ARM GAS  C:\Users\akita\AppData\Local\Temp\ccIEDY99.s 			page 84


 3899 0ed8 46200000 		.4byte	.LASF472
 3900 0edc F103     		.sleb128 497
 3901 0ede 0B       		.uleb128 0xb
 3902 0edf 97300000 		.4byte	.LASF473
 3903 0ee3 F203     		.sleb128 498
 3904 0ee5 0B       		.uleb128 0xb
 3905 0ee6 45160000 		.4byte	.LASF474
 3906 0eea F303     		.sleb128 499
 3907 0eec 0B       		.uleb128 0xb
 3908 0eed 5C370000 		.4byte	.LASF475
 3909 0ef1 F403     		.sleb128 500
 3910 0ef3 0B       		.uleb128 0xb
 3911 0ef4 F2130000 		.4byte	.LASF476
 3912 0ef8 F503     		.sleb128 501
 3913 0efa 0B       		.uleb128 0xb
 3914 0efb 800B0000 		.4byte	.LASF477
 3915 0eff F603     		.sleb128 502
 3916 0f01 0B       		.uleb128 0xb
 3917 0f02 B62B0000 		.4byte	.LASF478
 3918 0f06 F703     		.sleb128 503
 3919 0f08 0B       		.uleb128 0xb
 3920 0f09 E2180000 		.4byte	.LASF479
 3921 0f0d F803     		.sleb128 504
 3922 0f0f 0B       		.uleb128 0xb
 3923 0f10 370D0000 		.4byte	.LASF480
 3924 0f14 F903     		.sleb128 505
 3925 0f16 0B       		.uleb128 0xb
 3926 0f17 2C190000 		.4byte	.LASF481
 3927 0f1b FA03     		.sleb128 506
 3928 0f1d 0B       		.uleb128 0xb
 3929 0f1e D3080000 		.4byte	.LASF482
 3930 0f22 FB03     		.sleb128 507
 3931 0f24 0B       		.uleb128 0xb
 3932 0f25 C1240000 		.4byte	.LASF483
 3933 0f29 FC03     		.sleb128 508
 3934 0f2b 0B       		.uleb128 0xb
 3935 0f2c 12000000 		.4byte	.LASF484
 3936 0f30 FD03     		.sleb128 509
 3937 0f32 0B       		.uleb128 0xb
 3938 0f33 21280000 		.4byte	.LASF485
 3939 0f37 FE03     		.sleb128 510
 3940 0f39 0B       		.uleb128 0xb
 3941 0f3a 0E380000 		.4byte	.LASF486
 3942 0f3e FF03     		.sleb128 511
 3943 0f40 0B       		.uleb128 0xb
 3944 0f41 95040000 		.4byte	.LASF487
 3945 0f45 8004     		.sleb128 512
 3946 0f47 0B       		.uleb128 0xb
 3947 0f48 E1300000 		.4byte	.LASF488
 3948 0f4c 8104     		.sleb128 513
 3949 0f4e 0B       		.uleb128 0xb
 3950 0f4f 01220000 		.4byte	.LASF489
 3951 0f53 8204     		.sleb128 514
 3952 0f55 0B       		.uleb128 0xb
 3953 0f56 FC140000 		.4byte	.LASF490
 3954 0f5a 8304     		.sleb128 515
 3955 0f5c 0B       		.uleb128 0xb
ARM GAS  C:\Users\akita\AppData\Local\Temp\ccIEDY99.s 			page 85


 3956 0f5d 0F1C0000 		.4byte	.LASF491
 3957 0f61 8404     		.sleb128 516
 3958 0f63 0B       		.uleb128 0xb
 3959 0f64 FB0F0000 		.4byte	.LASF492
 3960 0f68 8504     		.sleb128 517
 3961 0f6a 0B       		.uleb128 0xb
 3962 0f6b A1400000 		.4byte	.LASF493
 3963 0f6f 8604     		.sleb128 518
 3964 0f71 0B       		.uleb128 0xb
 3965 0f72 D7160000 		.4byte	.LASF494
 3966 0f76 8704     		.sleb128 519
 3967 0f78 0B       		.uleb128 0xb
 3968 0f79 95010000 		.4byte	.LASF495
 3969 0f7d 8804     		.sleb128 520
 3970 0f7f 0B       		.uleb128 0xb
 3971 0f80 44280000 		.4byte	.LASF496
 3972 0f84 8904     		.sleb128 521
 3973 0f86 0B       		.uleb128 0xb
 3974 0f87 DD240000 		.4byte	.LASF497
 3975 0f8b 8A04     		.sleb128 522
 3976 0f8d 0B       		.uleb128 0xb
 3977 0f8e 32180000 		.4byte	.LASF498
 3978 0f92 8B04     		.sleb128 523
 3979 0f94 0B       		.uleb128 0xb
 3980 0f95 DF330000 		.4byte	.LASF499
 3981 0f99 8C04     		.sleb128 524
 3982 0f9b 0B       		.uleb128 0xb
 3983 0f9c 813B0000 		.4byte	.LASF500
 3984 0fa0 8D04     		.sleb128 525
 3985 0fa2 0B       		.uleb128 0xb
 3986 0fa3 03020000 		.4byte	.LASF501
 3987 0fa7 8E04     		.sleb128 526
 3988 0fa9 0B       		.uleb128 0xb
 3989 0faa FE2B0000 		.4byte	.LASF502
 3990 0fae 8F04     		.sleb128 527
 3991 0fb0 0B       		.uleb128 0xb
 3992 0fb1 88130000 		.4byte	.LASF503
 3993 0fb5 9004     		.sleb128 528
 3994 0fb7 0B       		.uleb128 0xb
 3995 0fb8 8E150000 		.4byte	.LASF504
 3996 0fbc 9104     		.sleb128 529
 3997 0fbe 0B       		.uleb128 0xb
 3998 0fbf 733E0000 		.4byte	.LASF505
 3999 0fc3 9204     		.sleb128 530
 4000 0fc5 0B       		.uleb128 0xb
 4001 0fc6 D80F0000 		.4byte	.LASF506
 4002 0fca 9304     		.sleb128 531
 4003 0fcc 0B       		.uleb128 0xb
 4004 0fcd 6E0E0000 		.4byte	.LASF507
 4005 0fd1 9404     		.sleb128 532
 4006 0fd3 0B       		.uleb128 0xb
 4007 0fd4 AE290000 		.4byte	.LASF508
 4008 0fd8 80C003   		.sleb128 57344
 4009 0fdb 00       		.byte	0
 4010 0fdc 0A       		.uleb128 0xa
 4011 0fdd 01       		.byte	0x1
 4012 0fde 0A       		.byte	0xa
ARM GAS  C:\Users\akita\AppData\Local\Temp\ccIEDY99.s 			page 86


 4013 0fdf F607     		.2byte	0x7f6
 4014 0fe1 04100000 		.4byte	0x1004
 4015 0fe5 0B       		.uleb128 0xb
 4016 0fe6 110F0000 		.4byte	.LASF509
 4017 0fea 00       		.sleb128 0
 4018 0feb 0B       		.uleb128 0xb
 4019 0fec FB1D0000 		.4byte	.LASF510
 4020 0ff0 01       		.sleb128 1
 4021 0ff1 0B       		.uleb128 0xb
 4022 0ff2 E23C0000 		.4byte	.LASF511
 4023 0ff6 02       		.sleb128 2
 4024 0ff7 0B       		.uleb128 0xb
 4025 0ff8 60090000 		.4byte	.LASF512
 4026 0ffc 03       		.sleb128 3
 4027 0ffd 0B       		.uleb128 0xb
 4028 0ffe 09330000 		.4byte	.LASF513
 4029 1002 04       		.sleb128 4
 4030 1003 00       		.byte	0
 4031 1004 04       		.uleb128 0x4
 4032 1005 A72C0000 		.4byte	.LASF514
 4033 1009 0A       		.byte	0xa
 4034 100a 0408     		.2byte	0x804
 4035 100c DC0F0000 		.4byte	0xfdc
 4036 1010 18       		.uleb128 0x18
 4037 1011 37200000 		.4byte	.LASF552
 4038 1015 01       		.byte	0x1
 4039 1016 57       		.byte	0x57
 4040 1017 00000000 		.4byte	.LFB2
 4041 101b 08000000 		.4byte	.LFE2-.LFB2
 4042 101f 01       		.uleb128 0x1
 4043 1020 9C       		.byte	0x9c
 4044 1021 19       		.uleb128 0x19
 4045 1022 D6310000 		.4byte	.LASF538
 4046 1026 01       		.byte	0x1
 4047 1027 85       		.byte	0x85
 4048 1028 00000000 		.4byte	.LFB3
 4049 102c 18000000 		.4byte	.LFE3-.LFB3
 4050 1030 01       		.uleb128 0x1
 4051 1031 9C       		.byte	0x9c
 4052 1032 45100000 		.4byte	0x1045
 4053 1036 1A       		.uleb128 0x1a
 4054 1037 130C0000 		.4byte	.LASF515
 4055 103b 01       		.byte	0x1
 4056 103c 85       		.byte	0x85
 4057 103d 42060000 		.4byte	0x642
 4058 1041 02       		.uleb128 0x2
 4059 1042 91       		.byte	0x91
 4060 1043 74       		.sleb128 -12
 4061 1044 00       		.byte	0
 4062 1045 1B       		.uleb128 0x1b
 4063 1046 D8390000 		.4byte	.LASF521
 4064 104a 01       		.byte	0x1
 4065 104b AD       		.byte	0xad
 4066 104c 67030000 		.4byte	0x367
 4067 1050 00000000 		.4byte	.LFB4
 4068 1054 D0010000 		.4byte	.LFE4-.LFB4
 4069 1058 01       		.uleb128 0x1
ARM GAS  C:\Users\akita\AppData\Local\Temp\ccIEDY99.s 			page 87


 4070 1059 9C       		.byte	0x9c
 4071 105a C1100000 		.4byte	0x10c1
 4072 105e 1A       		.uleb128 0x1a
 4073 105f 770D0000 		.4byte	.LASF228
 4074 1063 01       		.byte	0x1
 4075 1064 AD       		.byte	0xad
 4076 1065 6B000000 		.4byte	0x6b
 4077 1069 02       		.uleb128 0x2
 4078 106a 91       		.byte	0x91
 4079 106b 5F       		.sleb128 -33
 4080 106c 1A       		.uleb128 0x1a
 4081 106d 8B010000 		.4byte	.LASF229
 4082 1071 01       		.byte	0x1
 4083 1072 AD       		.byte	0xad
 4084 1073 EA060000 		.4byte	0x6ea
 4085 1077 02       		.uleb128 0x2
 4086 1078 91       		.byte	0x91
 4087 1079 5E       		.sleb128 -34
 4088 107a 1A       		.uleb128 0x1a
 4089 107b B6260000 		.4byte	.LASF516
 4090 107f 01       		.byte	0x1
 4091 1080 AE       		.byte	0xae
 4092 1081 6B000000 		.4byte	0x6b
 4093 1085 02       		.uleb128 0x2
 4094 1086 91       		.byte	0x91
 4095 1087 5D       		.sleb128 -35
 4096 1088 1A       		.uleb128 0x1a
 4097 1089 7D170000 		.4byte	.LASF517
 4098 108d 01       		.byte	0x1
 4099 108e AE       		.byte	0xae
 4100 108f 73030000 		.4byte	0x373
 4101 1093 02       		.uleb128 0x2
 4102 1094 91       		.byte	0x91
 4103 1095 58       		.sleb128 -40
 4104 1096 1C       		.uleb128 0x1c
 4105 1097 CC310000 		.4byte	.LASF518
 4106 109b 01       		.byte	0x1
 4107 109c B0       		.byte	0xb0
 4108 109d 67030000 		.4byte	0x367
 4109 10a1 02       		.uleb128 0x2
 4110 10a2 91       		.byte	0x91
 4111 10a3 6E       		.sleb128 -18
 4112 10a4 1C       		.uleb128 0x1c
 4113 10a5 22150000 		.4byte	.LASF519
 4114 10a9 01       		.byte	0x1
 4115 10aa B1       		.byte	0xb1
 4116 10ab 86040000 		.4byte	0x486
 4117 10af 02       		.uleb128 0x2
 4118 10b0 91       		.byte	0x91
 4119 10b1 6C       		.sleb128 -20
 4120 10b2 1C       		.uleb128 0x1c
 4121 10b3 871B0000 		.4byte	.LASF520
 4122 10b7 01       		.byte	0x1
 4123 10b8 B2       		.byte	0xb2
 4124 10b9 23050000 		.4byte	0x523
 4125 10bd 02       		.uleb128 0x2
 4126 10be 91       		.byte	0x91
ARM GAS  C:\Users\akita\AppData\Local\Temp\ccIEDY99.s 			page 88


 4127 10bf 60       		.sleb128 -32
 4128 10c0 00       		.byte	0
 4129 10c1 1D       		.uleb128 0x1d
 4130 10c2 3D2E0000 		.4byte	.LASF522
 4131 10c6 01       		.byte	0x1
 4132 10c7 1701     		.2byte	0x117
 4133 10c9 67030000 		.4byte	0x367
 4134 10cd 00000000 		.4byte	.LFB5
 4135 10d1 D0010000 		.4byte	.LFE5-.LFB5
 4136 10d5 01       		.uleb128 0x1
 4137 10d6 9C       		.byte	0x9c
 4138 10d7 45110000 		.4byte	0x1145
 4139 10db 1E       		.uleb128 0x1e
 4140 10dc 770D0000 		.4byte	.LASF228
 4141 10e0 01       		.byte	0x1
 4142 10e1 1701     		.2byte	0x117
 4143 10e3 6B000000 		.4byte	0x6b
 4144 10e7 02       		.uleb128 0x2
 4145 10e8 91       		.byte	0x91
 4146 10e9 5F       		.sleb128 -33
 4147 10ea 1E       		.uleb128 0x1e
 4148 10eb 8B010000 		.4byte	.LASF229
 4149 10ef 01       		.byte	0x1
 4150 10f0 1701     		.2byte	0x117
 4151 10f2 EA060000 		.4byte	0x6ea
 4152 10f6 02       		.uleb128 0x2
 4153 10f7 91       		.byte	0x91
 4154 10f8 5E       		.sleb128 -34
 4155 10f9 1E       		.uleb128 0x1e
 4156 10fa B6260000 		.4byte	.LASF516
 4157 10fe 01       		.byte	0x1
 4158 10ff 1801     		.2byte	0x118
 4159 1101 6B000000 		.4byte	0x6b
 4160 1105 02       		.uleb128 0x2
 4161 1106 91       		.byte	0x91
 4162 1107 5D       		.sleb128 -35
 4163 1108 1E       		.uleb128 0x1e
 4164 1109 7D170000 		.4byte	.LASF517
 4165 110d 01       		.byte	0x1
 4166 110e 1801     		.2byte	0x118
 4167 1110 73030000 		.4byte	0x373
 4168 1114 02       		.uleb128 0x2
 4169 1115 91       		.byte	0x91
 4170 1116 58       		.sleb128 -40
 4171 1117 1F       		.uleb128 0x1f
 4172 1118 CC310000 		.4byte	.LASF518
 4173 111c 01       		.byte	0x1
 4174 111d 1A01     		.2byte	0x11a
 4175 111f 67030000 		.4byte	0x367
 4176 1123 02       		.uleb128 0x2
 4177 1124 91       		.byte	0x91
 4178 1125 6E       		.sleb128 -18
 4179 1126 1F       		.uleb128 0x1f
 4180 1127 22150000 		.4byte	.LASF519
 4181 112b 01       		.byte	0x1
 4182 112c 1B01     		.2byte	0x11b
 4183 112e 86040000 		.4byte	0x486
ARM GAS  C:\Users\akita\AppData\Local\Temp\ccIEDY99.s 			page 89


 4184 1132 02       		.uleb128 0x2
 4185 1133 91       		.byte	0x91
 4186 1134 6C       		.sleb128 -20
 4187 1135 1F       		.uleb128 0x1f
 4188 1136 871B0000 		.4byte	.LASF520
 4189 113a 01       		.byte	0x1
 4190 113b 1C01     		.2byte	0x11c
 4191 113d 23050000 		.4byte	0x523
 4192 1141 02       		.uleb128 0x2
 4193 1142 91       		.byte	0x91
 4194 1143 60       		.sleb128 -32
 4195 1144 00       		.byte	0
 4196 1145 1D       		.uleb128 0x1d
 4197 1146 C3340000 		.4byte	.LASF523
 4198 114a 01       		.byte	0x1
 4199 114b 8401     		.2byte	0x184
 4200 114d 67030000 		.4byte	0x367
 4201 1151 00000000 		.4byte	.LFB6
 4202 1155 9C010000 		.4byte	.LFE6-.LFB6
 4203 1159 01       		.uleb128 0x1
 4204 115a 9C       		.byte	0x9c
 4205 115b E7110000 		.4byte	0x11e7
 4206 115f 1E       		.uleb128 0x1e
 4207 1160 770D0000 		.4byte	.LASF228
 4208 1164 01       		.byte	0x1
 4209 1165 8401     		.2byte	0x184
 4210 1167 6B000000 		.4byte	0x6b
 4211 116b 02       		.uleb128 0x2
 4212 116c 91       		.byte	0x91
 4213 116d 57       		.sleb128 -41
 4214 116e 1E       		.uleb128 0x1e
 4215 116f 8B010000 		.4byte	.LASF229
 4216 1173 01       		.byte	0x1
 4217 1174 8401     		.2byte	0x184
 4218 1176 EA060000 		.4byte	0x6ea
 4219 117a 02       		.uleb128 0x2
 4220 117b 91       		.byte	0x91
 4221 117c 56       		.sleb128 -42
 4222 117d 1E       		.uleb128 0x1e
 4223 117e AB240000 		.4byte	.LASF524
 4224 1182 01       		.byte	0x1
 4225 1183 8501     		.2byte	0x185
 4226 1185 16070000 		.4byte	0x716
 4227 1189 02       		.uleb128 0x2
 4228 118a 91       		.byte	0x91
 4229 118b 55       		.sleb128 -43
 4230 118c 1E       		.uleb128 0x1e
 4231 118d B6260000 		.4byte	.LASF516
 4232 1191 01       		.byte	0x1
 4233 1192 8501     		.2byte	0x185
 4234 1194 6B000000 		.4byte	0x6b
 4235 1198 02       		.uleb128 0x2
 4236 1199 91       		.byte	0x91
 4237 119a 54       		.sleb128 -44
 4238 119b 1E       		.uleb128 0x1e
 4239 119c 7D170000 		.4byte	.LASF517
 4240 11a0 01       		.byte	0x1
ARM GAS  C:\Users\akita\AppData\Local\Temp\ccIEDY99.s 			page 90


 4241 11a1 8501     		.2byte	0x185
 4242 11a3 73030000 		.4byte	0x373
 4243 11a7 02       		.uleb128 0x2
 4244 11a8 91       		.byte	0x91
 4245 11a9 00       		.sleb128 0
 4246 11aa 1F       		.uleb128 0x1f
 4247 11ab CC310000 		.4byte	.LASF518
 4248 11af 01       		.byte	0x1
 4249 11b0 8701     		.2byte	0x187
 4250 11b2 67030000 		.4byte	0x367
 4251 11b6 02       		.uleb128 0x2
 4252 11b7 91       		.byte	0x91
 4253 11b8 6E       		.sleb128 -18
 4254 11b9 1F       		.uleb128 0x1f
 4255 11ba BA300000 		.4byte	.LASF525
 4256 11be 01       		.byte	0x1
 4257 11bf 8801     		.2byte	0x188
 4258 11c1 86040000 		.4byte	0x486
 4259 11c5 02       		.uleb128 0x2
 4260 11c6 91       		.byte	0x91
 4261 11c7 6C       		.sleb128 -20
 4262 11c8 1F       		.uleb128 0x1f
 4263 11c9 B4360000 		.4byte	.LASF526
 4264 11cd 01       		.byte	0x1
 4265 11ce 8901     		.2byte	0x189
 4266 11d0 CE070000 		.4byte	0x7ce
 4267 11d4 02       		.uleb128 0x2
 4268 11d5 91       		.byte	0x91
 4269 11d6 68       		.sleb128 -24
 4270 11d7 1F       		.uleb128 0x1f
 4271 11d8 871B0000 		.4byte	.LASF520
 4272 11dc 01       		.byte	0x1
 4273 11dd 8A01     		.2byte	0x18a
 4274 11df 23050000 		.4byte	0x523
 4275 11e3 02       		.uleb128 0x2
 4276 11e4 91       		.byte	0x91
 4277 11e5 5C       		.sleb128 -36
 4278 11e6 00       		.byte	0
 4279 11e7 20       		.uleb128 0x20
 4280 11e8 00060000 		.4byte	.LASF553
 4281 11ec 01       		.byte	0x1
 4282 11ed DF01     		.2byte	0x1df
 4283 11ef 83000000 		.4byte	0x83
 4284 11f3 00000000 		.4byte	.LFB7
 4285 11f7 70000000 		.4byte	.LFE7-.LFB7
 4286 11fb 01       		.uleb128 0x1
 4287 11fc 9C       		.byte	0x9c
 4288 11fd 2F120000 		.4byte	0x122f
 4289 1201 1E       		.uleb128 0x1e
 4290 1202 770D0000 		.4byte	.LASF228
 4291 1206 01       		.byte	0x1
 4292 1207 DF01     		.2byte	0x1df
 4293 1209 6B000000 		.4byte	0x6b
 4294 120d 02       		.uleb128 0x2
 4295 120e 91       		.byte	0x91
 4296 120f 6F       		.sleb128 -17
 4297 1210 1E       		.uleb128 0x1e
ARM GAS  C:\Users\akita\AppData\Local\Temp\ccIEDY99.s 			page 91


 4298 1211 B4020000 		.4byte	.LASF527
 4299 1215 01       		.byte	0x1
 4300 1216 DF01     		.2byte	0x1df
 4301 1218 2F120000 		.4byte	0x122f
 4302 121c 02       		.uleb128 0x2
 4303 121d 91       		.byte	0x91
 4304 121e 68       		.sleb128 -24
 4305 121f 1F       		.uleb128 0x1f
 4306 1220 C53A0000 		.4byte	.LASF528
 4307 1224 01       		.byte	0x1
 4308 1225 E101     		.2byte	0x1e1
 4309 1227 83000000 		.4byte	0x83
 4310 122b 02       		.uleb128 0x2
 4311 122c 91       		.byte	0x91
 4312 122d 74       		.sleb128 -12
 4313 122e 00       		.byte	0
 4314 122f 07       		.uleb128 0x7
 4315 1230 04       		.byte	0x4
 4316 1231 35120000 		.4byte	0x1235
 4317 1235 15       		.uleb128 0x15
 4318 1236 5B050000 		.4byte	0x55b
 4319 123a 1D       		.uleb128 0x1d
 4320 123b 192F0000 		.4byte	.LASF529
 4321 123f 01       		.byte	0x1
 4322 1240 0602     		.2byte	0x206
 4323 1242 7A040000 		.4byte	0x47a
 4324 1246 00000000 		.4byte	.LFB8
 4325 124a 18040000 		.4byte	.LFE8-.LFB8
 4326 124e 01       		.uleb128 0x1
 4327 124f 9C       		.byte	0x9c
 4328 1250 D7120000 		.4byte	0x12d7
 4329 1254 1E       		.uleb128 0x1e
 4330 1255 B4020000 		.4byte	.LASF527
 4331 1259 01       		.byte	0x1
 4332 125a 0602     		.2byte	0x206
 4333 125c D7120000 		.4byte	0x12d7
 4334 1260 02       		.uleb128 0x2
 4335 1261 91       		.byte	0x91
 4336 1262 54       		.sleb128 -44
 4337 1263 1F       		.uleb128 0x1f
 4338 1264 243C0000 		.4byte	.LASF530
 4339 1268 01       		.byte	0x1
 4340 1269 0802     		.2byte	0x208
 4341 126b 7A040000 		.4byte	0x47a
 4342 126f 02       		.uleb128 0x2
 4343 1270 91       		.byte	0x91
 4344 1271 6F       		.sleb128 -17
 4345 1272 1F       		.uleb128 0x1f
 4346 1273 EE100000 		.4byte	.LASF531
 4347 1277 01       		.byte	0x1
 4348 1278 0902     		.2byte	0x209
 4349 127a 6B000000 		.4byte	0x6b
 4350 127e 02       		.uleb128 0x2
 4351 127f 91       		.byte	0x91
 4352 1280 6E       		.sleb128 -18
 4353 1281 1F       		.uleb128 0x1f
 4354 1282 CA2E0000 		.4byte	.LASF532
ARM GAS  C:\Users\akita\AppData\Local\Temp\ccIEDY99.s 			page 92


 4355 1286 01       		.byte	0x1
 4356 1287 0A02     		.2byte	0x20a
 4357 1289 6B000000 		.4byte	0x6b
 4358 128d 02       		.uleb128 0x2
 4359 128e 91       		.byte	0x91
 4360 128f 6D       		.sleb128 -19
 4361 1290 1F       		.uleb128 0x1f
 4362 1291 01320000 		.4byte	.LASF533
 4363 1295 01       		.byte	0x1
 4364 1296 0B02     		.2byte	0x20b
 4365 1298 EA060000 		.4byte	0x6ea
 4366 129c 02       		.uleb128 0x2
 4367 129d 91       		.byte	0x91
 4368 129e 6C       		.sleb128 -20
 4369 129f 1F       		.uleb128 0x1f
 4370 12a0 DD0E0000 		.4byte	.LASF534
 4371 12a4 01       		.byte	0x1
 4372 12a5 0C02     		.2byte	0x20c
 4373 12a7 2D080000 		.4byte	0x82d
 4374 12ab 02       		.uleb128 0x2
 4375 12ac 91       		.byte	0x91
 4376 12ad 5C       		.sleb128 -36
 4377 12ae 1F       		.uleb128 0x1f
 4378 12af C53A0000 		.4byte	.LASF528
 4379 12b3 01       		.byte	0x1
 4380 12b4 0D02     		.2byte	0x20d
 4381 12b6 83000000 		.4byte	0x83
 4382 12ba 02       		.uleb128 0x2
 4383 12bb 91       		.byte	0x91
 4384 12bc 68       		.sleb128 -24
 4385 12bd 21       		.uleb128 0x21
 4386 12be 76020000 		.4byte	.LBB2
 4387 12c2 28010000 		.4byte	.LBE2-.LBB2
 4388 12c6 1F       		.uleb128 0x1f
 4389 12c7 582A0000 		.4byte	.LASF535
 4390 12cb 01       		.byte	0x1
 4391 12cc 6602     		.2byte	0x266
 4392 12ce 6B000000 		.4byte	0x6b
 4393 12d2 02       		.uleb128 0x2
 4394 12d3 91       		.byte	0x91
 4395 12d4 67       		.sleb128 -25
 4396 12d5 00       		.byte	0
 4397 12d6 00       		.byte	0
 4398 12d7 07       		.uleb128 0x7
 4399 12d8 04       		.byte	0x4
 4400 12d9 5B050000 		.4byte	0x55b
 4401 12dd 1D       		.uleb128 0x1d
 4402 12de ED320000 		.4byte	.LASF536
 4403 12e2 01       		.byte	0x1
 4404 12e3 B302     		.2byte	0x2b3
 4405 12e5 67030000 		.4byte	0x367
 4406 12e9 00000000 		.4byte	.LFB9
 4407 12ed D4010000 		.4byte	.LFE9-.LFB9
 4408 12f1 01       		.uleb128 0x1
 4409 12f2 9C       		.byte	0x9c
 4410 12f3 7F130000 		.4byte	0x137f
 4411 12f7 1E       		.uleb128 0x1e
ARM GAS  C:\Users\akita\AppData\Local\Temp\ccIEDY99.s 			page 93


 4412 12f8 1B300000 		.4byte	.LASF167
 4413 12fc 01       		.byte	0x1
 4414 12fd B302     		.2byte	0x2b3
 4415 12ff B6040000 		.4byte	0x4b6
 4416 1303 02       		.uleb128 0x2
 4417 1304 91       		.byte	0x91
 4418 1305 4C       		.sleb128 -52
 4419 1306 1E       		.uleb128 0x1e
 4420 1307 770D0000 		.4byte	.LASF228
 4421 130b 01       		.byte	0x1
 4422 130c B402     		.2byte	0x2b4
 4423 130e 6B000000 		.4byte	0x6b
 4424 1312 02       		.uleb128 0x2
 4425 1313 91       		.byte	0x91
 4426 1314 4B       		.sleb128 -53
 4427 1315 1E       		.uleb128 0x1e
 4428 1316 8B010000 		.4byte	.LASF229
 4429 131a 01       		.byte	0x1
 4430 131b B402     		.2byte	0x2b4
 4431 131d EA060000 		.4byte	0x6ea
 4432 1321 02       		.uleb128 0x2
 4433 1322 91       		.byte	0x91
 4434 1323 4A       		.sleb128 -54
 4435 1324 1E       		.uleb128 0x1e
 4436 1325 B6260000 		.4byte	.LASF516
 4437 1329 01       		.byte	0x1
 4438 132a B402     		.2byte	0x2b4
 4439 132c 6B000000 		.4byte	0x6b
 4440 1330 02       		.uleb128 0x2
 4441 1331 91       		.byte	0x91
 4442 1332 49       		.sleb128 -55
 4443 1333 1E       		.uleb128 0x1e
 4444 1334 7D170000 		.4byte	.LASF517
 4445 1338 01       		.byte	0x1
 4446 1339 B402     		.2byte	0x2b4
 4447 133b 73030000 		.4byte	0x373
 4448 133f 02       		.uleb128 0x2
 4449 1340 91       		.byte	0x91
 4450 1341 00       		.sleb128 0
 4451 1342 1F       		.uleb128 0x1f
 4452 1343 CC310000 		.4byte	.LASF518
 4453 1347 01       		.byte	0x1
 4454 1348 B602     		.2byte	0x2b6
 4455 134a 67030000 		.4byte	0x367
 4456 134e 02       		.uleb128 0x2
 4457 134f 91       		.byte	0x91
 4458 1350 6E       		.sleb128 -18
 4459 1351 1F       		.uleb128 0x1f
 4460 1352 B4360000 		.4byte	.LASF526
 4461 1356 01       		.byte	0x1
 4462 1357 B702     		.2byte	0x2b7
 4463 1359 CE070000 		.4byte	0x7ce
 4464 135d 02       		.uleb128 0x2
 4465 135e 91       		.byte	0x91
 4466 135f 68       		.sleb128 -24
 4467 1360 1F       		.uleb128 0x1f
 4468 1361 B12A0000 		.4byte	.LASF537
ARM GAS  C:\Users\akita\AppData\Local\Temp\ccIEDY99.s 			page 94


 4469 1365 01       		.byte	0x1
 4470 1366 B802     		.2byte	0x2b8
 4471 1368 2F050000 		.4byte	0x52f
 4472 136c 02       		.uleb128 0x2
 4473 136d 91       		.byte	0x91
 4474 136e 5C       		.sleb128 -36
 4475 136f 1F       		.uleb128 0x1f
 4476 1370 871B0000 		.4byte	.LASF520
 4477 1374 01       		.byte	0x1
 4478 1375 B902     		.2byte	0x2b9
 4479 1377 23050000 		.4byte	0x523
 4480 137b 02       		.uleb128 0x2
 4481 137c 91       		.byte	0x91
 4482 137d 50       		.sleb128 -48
 4483 137e 00       		.byte	0
 4484 137f 22       		.uleb128 0x22
 4485 1380 DE040000 		.4byte	.LASF539
 4486 1384 01       		.byte	0x1
 4487 1385 0F03     		.2byte	0x30f
 4488 1387 00000000 		.4byte	.LFB10
 4489 138b 74000000 		.4byte	.LFE10-.LFB10
 4490 138f 01       		.uleb128 0x1
 4491 1390 9C       		.byte	0x9c
 4492 1391 B4130000 		.4byte	0x13b4
 4493 1395 1F       		.uleb128 0x1f
 4494 1396 A31C0000 		.4byte	.LASF540
 4495 139a 01       		.byte	0x1
 4496 139b 1303     		.2byte	0x313
 4497 139d 6B000000 		.4byte	0x6b
 4498 13a1 02       		.uleb128 0x2
 4499 13a2 91       		.byte	0x91
 4500 13a3 76       		.sleb128 -10
 4501 13a4 1F       		.uleb128 0x1f
 4502 13a5 EE100000 		.4byte	.LASF531
 4503 13a9 01       		.byte	0x1
 4504 13aa 1403     		.2byte	0x314
 4505 13ac 6B000000 		.4byte	0x6b
 4506 13b0 02       		.uleb128 0x2
 4507 13b1 91       		.byte	0x91
 4508 13b2 77       		.sleb128 -9
 4509 13b3 00       		.byte	0
 4510 13b4 1C       		.uleb128 0x1c
 4511 13b5 63060000 		.4byte	.LASF541
 4512 13b9 01       		.byte	0x1
 4513 13ba 12       		.byte	0x12
 4514 13bb 42060000 		.4byte	0x642
 4515 13bf 05       		.uleb128 0x5
 4516 13c0 03       		.byte	0x3
 4517 13c1 00000000 		.4byte	CyBle_HidsApplCallback
 4518 13c5 16       		.uleb128 0x16
 4519 13c6 4E070000 		.4byte	0x74e
 4520 13ca D5130000 		.4byte	0x13d5
 4521 13ce 17       		.uleb128 0x17
 4522 13cf A9000000 		.4byte	0xa9
 4523 13d3 01       		.byte	0x1
 4524 13d4 00       		.byte	0
 4525 13d5 1C       		.uleb128 0x1c
ARM GAS  C:\Users\akita\AppData\Local\Temp\ccIEDY99.s 			page 95


 4526 13d6 F0270000 		.4byte	.LASF542
 4527 13da 01       		.byte	0x1
 4528 13db 16       		.byte	0x16
 4529 13dc E6130000 		.4byte	0x13e6
 4530 13e0 05       		.uleb128 0x5
 4531 13e1 03       		.byte	0x3
 4532 13e2 00000000 		.4byte	cyBle_hids1ReportArray
 4533 13e6 15       		.uleb128 0x15
 4534 13e7 C5130000 		.4byte	0x13c5
 4535 13eb 23       		.uleb128 0x23
 4536 13ec DD380000 		.4byte	.LASF543
 4537 13f0 07       		.byte	0x7
 4538 13f1 8B02     		.2byte	0x28b
 4539 13f3 A4000000 		.4byte	0xa4
 4540 13f7 23       		.uleb128 0x23
 4541 13f8 C9300000 		.4byte	.LASF544
 4542 13fc 07       		.byte	0x7
 4543 13fd AA02     		.2byte	0x2aa
 4544 13ff 6B000000 		.4byte	0x6b
 4545 1403 23       		.uleb128 0x23
 4546 1404 00000000 		.4byte	.LASF545
 4547 1408 07       		.byte	0x7
 4548 1409 B002     		.2byte	0x2b0
 4549 140b 6B000000 		.4byte	0x6b
 4550 140f 16       		.uleb128 0x16
 4551 1410 36060000 		.4byte	0x636
 4552 1414 1F140000 		.4byte	0x141f
 4553 1418 17       		.uleb128 0x17
 4554 1419 A9000000 		.4byte	0xa9
 4555 141d 31       		.byte	0x31
 4556 141e 00       		.byte	0
 4557 141f 24       		.uleb128 0x24
 4558 1420 09230000 		.4byte	.LASF546
 4559 1424 0B       		.byte	0xb
 4560 1425 EE       		.byte	0xee
 4561 1426 2A140000 		.4byte	0x142a
 4562 142a 15       		.uleb128 0x15
 4563 142b 0F140000 		.4byte	0x140f
 4564 142f 16       		.uleb128 0x16
 4565 1430 E9070000 		.4byte	0x7e9
 4566 1434 3F140000 		.4byte	0x143f
 4567 1438 17       		.uleb128 0x17
 4568 1439 A9000000 		.4byte	0xa9
 4569 143d 00       		.byte	0
 4570 143e 00       		.byte	0
 4571 143f 25       		.uleb128 0x25
 4572 1440 080D0000 		.4byte	.LASF547
 4573 1444 01       		.byte	0x1
 4574 1445 23       		.byte	0x23
 4575 1446 50140000 		.4byte	0x1450
 4576 144a 05       		.uleb128 0x5
 4577 144b 03       		.byte	0x3
 4578 144c 00000000 		.4byte	cyBle_hidss
 4579 1450 15       		.uleb128 0x15
 4580 1451 2F140000 		.4byte	0x142f
 4581 1455 23       		.uleb128 0x23
 4582 1456 F5310000 		.4byte	.LASF548
ARM GAS  C:\Users\akita\AppData\Local\Temp\ccIEDY99.s 			page 96


 4583 145a 0A       		.byte	0xa
 4584 145b 2A0A     		.2byte	0xa2a
 4585 145d 04100000 		.4byte	0x1004
 4586 1461 00       		.byte	0
 4587              		.section	.debug_abbrev,"",%progbits
 4588              	.Ldebug_abbrev0:
 4589 0000 01       		.uleb128 0x1
 4590 0001 11       		.uleb128 0x11
 4591 0002 01       		.byte	0x1
 4592 0003 25       		.uleb128 0x25
 4593 0004 0E       		.uleb128 0xe
 4594 0005 13       		.uleb128 0x13
 4595 0006 0B       		.uleb128 0xb
 4596 0007 03       		.uleb128 0x3
 4597 0008 0E       		.uleb128 0xe
 4598 0009 1B       		.uleb128 0x1b
 4599 000a 0E       		.uleb128 0xe
 4600 000b 55       		.uleb128 0x55
 4601 000c 17       		.uleb128 0x17
 4602 000d 11       		.uleb128 0x11
 4603 000e 01       		.uleb128 0x1
 4604 000f 10       		.uleb128 0x10
 4605 0010 17       		.uleb128 0x17
 4606 0011 00       		.byte	0
 4607 0012 00       		.byte	0
 4608 0013 02       		.uleb128 0x2
 4609 0014 24       		.uleb128 0x24
 4610 0015 00       		.byte	0
 4611 0016 0B       		.uleb128 0xb
 4612 0017 0B       		.uleb128 0xb
 4613 0018 3E       		.uleb128 0x3e
 4614 0019 0B       		.uleb128 0xb
 4615 001a 03       		.uleb128 0x3
 4616 001b 0E       		.uleb128 0xe
 4617 001c 00       		.byte	0
 4618 001d 00       		.byte	0
 4619 001e 03       		.uleb128 0x3
 4620 001f 24       		.uleb128 0x24
 4621 0020 00       		.byte	0
 4622 0021 0B       		.uleb128 0xb
 4623 0022 0B       		.uleb128 0xb
 4624 0023 3E       		.uleb128 0x3e
 4625 0024 0B       		.uleb128 0xb
 4626 0025 03       		.uleb128 0x3
 4627 0026 08       		.uleb128 0x8
 4628 0027 00       		.byte	0
 4629 0028 00       		.byte	0
 4630 0029 04       		.uleb128 0x4
 4631 002a 16       		.uleb128 0x16
 4632 002b 00       		.byte	0
 4633 002c 03       		.uleb128 0x3
 4634 002d 0E       		.uleb128 0xe
 4635 002e 3A       		.uleb128 0x3a
 4636 002f 0B       		.uleb128 0xb
 4637 0030 3B       		.uleb128 0x3b
 4638 0031 05       		.uleb128 0x5
 4639 0032 49       		.uleb128 0x49
ARM GAS  C:\Users\akita\AppData\Local\Temp\ccIEDY99.s 			page 97


 4640 0033 13       		.uleb128 0x13
 4641 0034 00       		.byte	0
 4642 0035 00       		.byte	0
 4643 0036 05       		.uleb128 0x5
 4644 0037 35       		.uleb128 0x35
 4645 0038 00       		.byte	0
 4646 0039 49       		.uleb128 0x49
 4647 003a 13       		.uleb128 0x13
 4648 003b 00       		.byte	0
 4649 003c 00       		.byte	0
 4650 003d 06       		.uleb128 0x6
 4651 003e 0F       		.uleb128 0xf
 4652 003f 00       		.byte	0
 4653 0040 0B       		.uleb128 0xb
 4654 0041 0B       		.uleb128 0xb
 4655 0042 00       		.byte	0
 4656 0043 00       		.byte	0
 4657 0044 07       		.uleb128 0x7
 4658 0045 0F       		.uleb128 0xf
 4659 0046 00       		.byte	0
 4660 0047 0B       		.uleb128 0xb
 4661 0048 0B       		.uleb128 0xb
 4662 0049 49       		.uleb128 0x49
 4663 004a 13       		.uleb128 0x13
 4664 004b 00       		.byte	0
 4665 004c 00       		.byte	0
 4666 004d 08       		.uleb128 0x8
 4667 004e 15       		.uleb128 0x15
 4668 004f 01       		.byte	0x1
 4669 0050 27       		.uleb128 0x27
 4670 0051 19       		.uleb128 0x19
 4671 0052 01       		.uleb128 0x1
 4672 0053 13       		.uleb128 0x13
 4673 0054 00       		.byte	0
 4674 0055 00       		.byte	0
 4675 0056 09       		.uleb128 0x9
 4676 0057 05       		.uleb128 0x5
 4677 0058 00       		.byte	0
 4678 0059 49       		.uleb128 0x49
 4679 005a 13       		.uleb128 0x13
 4680 005b 00       		.byte	0
 4681 005c 00       		.byte	0
 4682 005d 0A       		.uleb128 0xa
 4683 005e 04       		.uleb128 0x4
 4684 005f 01       		.byte	0x1
 4685 0060 0B       		.uleb128 0xb
 4686 0061 0B       		.uleb128 0xb
 4687 0062 3A       		.uleb128 0x3a
 4688 0063 0B       		.uleb128 0xb
 4689 0064 3B       		.uleb128 0x3b
 4690 0065 05       		.uleb128 0x5
 4691 0066 01       		.uleb128 0x1
 4692 0067 13       		.uleb128 0x13
 4693 0068 00       		.byte	0
 4694 0069 00       		.byte	0
 4695 006a 0B       		.uleb128 0xb
 4696 006b 28       		.uleb128 0x28
ARM GAS  C:\Users\akita\AppData\Local\Temp\ccIEDY99.s 			page 98


 4697 006c 00       		.byte	0
 4698 006d 03       		.uleb128 0x3
 4699 006e 0E       		.uleb128 0xe
 4700 006f 1C       		.uleb128 0x1c
 4701 0070 0D       		.uleb128 0xd
 4702 0071 00       		.byte	0
 4703 0072 00       		.byte	0
 4704 0073 0C       		.uleb128 0xc
 4705 0074 04       		.uleb128 0x4
 4706 0075 01       		.byte	0x1
 4707 0076 0B       		.uleb128 0xb
 4708 0077 0B       		.uleb128 0xb
 4709 0078 3A       		.uleb128 0x3a
 4710 0079 0B       		.uleb128 0xb
 4711 007a 3B       		.uleb128 0x3b
 4712 007b 0B       		.uleb128 0xb
 4713 007c 01       		.uleb128 0x1
 4714 007d 13       		.uleb128 0x13
 4715 007e 00       		.byte	0
 4716 007f 00       		.byte	0
 4717 0080 0D       		.uleb128 0xd
 4718 0081 13       		.uleb128 0x13
 4719 0082 01       		.byte	0x1
 4720 0083 0B       		.uleb128 0xb
 4721 0084 0B       		.uleb128 0xb
 4722 0085 3A       		.uleb128 0x3a
 4723 0086 0B       		.uleb128 0xb
 4724 0087 3B       		.uleb128 0x3b
 4725 0088 05       		.uleb128 0x5
 4726 0089 01       		.uleb128 0x1
 4727 008a 13       		.uleb128 0x13
 4728 008b 00       		.byte	0
 4729 008c 00       		.byte	0
 4730 008d 0E       		.uleb128 0xe
 4731 008e 0D       		.uleb128 0xd
 4732 008f 00       		.byte	0
 4733 0090 03       		.uleb128 0x3
 4734 0091 0E       		.uleb128 0xe
 4735 0092 3A       		.uleb128 0x3a
 4736 0093 0B       		.uleb128 0xb
 4737 0094 3B       		.uleb128 0x3b
 4738 0095 05       		.uleb128 0x5
 4739 0096 49       		.uleb128 0x49
 4740 0097 13       		.uleb128 0x13
 4741 0098 38       		.uleb128 0x38
 4742 0099 0B       		.uleb128 0xb
 4743 009a 00       		.byte	0
 4744 009b 00       		.byte	0
 4745 009c 0F       		.uleb128 0xf
 4746 009d 0D       		.uleb128 0xd
 4747 009e 00       		.byte	0
 4748 009f 03       		.uleb128 0x3
 4749 00a0 08       		.uleb128 0x8
 4750 00a1 3A       		.uleb128 0x3a
 4751 00a2 0B       		.uleb128 0xb
 4752 00a3 3B       		.uleb128 0x3b
 4753 00a4 05       		.uleb128 0x5
ARM GAS  C:\Users\akita\AppData\Local\Temp\ccIEDY99.s 			page 99


 4754 00a5 49       		.uleb128 0x49
 4755 00a6 13       		.uleb128 0x13
 4756 00a7 38       		.uleb128 0x38
 4757 00a8 0B       		.uleb128 0xb
 4758 00a9 00       		.byte	0
 4759 00aa 00       		.byte	0
 4760 00ab 10       		.uleb128 0x10
 4761 00ac 16       		.uleb128 0x16
 4762 00ad 00       		.byte	0
 4763 00ae 03       		.uleb128 0x3
 4764 00af 0E       		.uleb128 0xe
 4765 00b0 3A       		.uleb128 0x3a
 4766 00b1 0B       		.uleb128 0xb
 4767 00b2 3B       		.uleb128 0x3b
 4768 00b3 0B       		.uleb128 0xb
 4769 00b4 49       		.uleb128 0x49
 4770 00b5 13       		.uleb128 0x13
 4771 00b6 00       		.byte	0
 4772 00b7 00       		.byte	0
 4773 00b8 11       		.uleb128 0x11
 4774 00b9 13       		.uleb128 0x13
 4775 00ba 01       		.byte	0x1
 4776 00bb 0B       		.uleb128 0xb
 4777 00bc 0B       		.uleb128 0xb
 4778 00bd 3A       		.uleb128 0x3a
 4779 00be 0B       		.uleb128 0xb
 4780 00bf 3B       		.uleb128 0x3b
 4781 00c0 0B       		.uleb128 0xb
 4782 00c1 01       		.uleb128 0x1
 4783 00c2 13       		.uleb128 0x13
 4784 00c3 00       		.byte	0
 4785 00c4 00       		.byte	0
 4786 00c5 12       		.uleb128 0x12
 4787 00c6 0D       		.uleb128 0xd
 4788 00c7 00       		.byte	0
 4789 00c8 03       		.uleb128 0x3
 4790 00c9 0E       		.uleb128 0xe
 4791 00ca 3A       		.uleb128 0x3a
 4792 00cb 0B       		.uleb128 0xb
 4793 00cc 3B       		.uleb128 0x3b
 4794 00cd 0B       		.uleb128 0xb
 4795 00ce 49       		.uleb128 0x49
 4796 00cf 13       		.uleb128 0x13
 4797 00d0 38       		.uleb128 0x38
 4798 00d1 0B       		.uleb128 0xb
 4799 00d2 00       		.byte	0
 4800 00d3 00       		.byte	0
 4801 00d4 13       		.uleb128 0x13
 4802 00d5 17       		.uleb128 0x17
 4803 00d6 01       		.byte	0x1
 4804 00d7 0B       		.uleb128 0xb
 4805 00d8 0B       		.uleb128 0xb
 4806 00d9 3A       		.uleb128 0x3a
 4807 00da 0B       		.uleb128 0xb
 4808 00db 3B       		.uleb128 0x3b
 4809 00dc 0B       		.uleb128 0xb
 4810 00dd 01       		.uleb128 0x1
ARM GAS  C:\Users\akita\AppData\Local\Temp\ccIEDY99.s 			page 100


 4811 00de 13       		.uleb128 0x13
 4812 00df 00       		.byte	0
 4813 00e0 00       		.byte	0
 4814 00e1 14       		.uleb128 0x14
 4815 00e2 0D       		.uleb128 0xd
 4816 00e3 00       		.byte	0
 4817 00e4 03       		.uleb128 0x3
 4818 00e5 0E       		.uleb128 0xe
 4819 00e6 3A       		.uleb128 0x3a
 4820 00e7 0B       		.uleb128 0xb
 4821 00e8 3B       		.uleb128 0x3b
 4822 00e9 0B       		.uleb128 0xb
 4823 00ea 49       		.uleb128 0x49
 4824 00eb 13       		.uleb128 0x13
 4825 00ec 00       		.byte	0
 4826 00ed 00       		.byte	0
 4827 00ee 15       		.uleb128 0x15
 4828 00ef 26       		.uleb128 0x26
 4829 00f0 00       		.byte	0
 4830 00f1 49       		.uleb128 0x49
 4831 00f2 13       		.uleb128 0x13
 4832 00f3 00       		.byte	0
 4833 00f4 00       		.byte	0
 4834 00f5 16       		.uleb128 0x16
 4835 00f6 01       		.uleb128 0x1
 4836 00f7 01       		.byte	0x1
 4837 00f8 49       		.uleb128 0x49
 4838 00f9 13       		.uleb128 0x13
 4839 00fa 01       		.uleb128 0x1
 4840 00fb 13       		.uleb128 0x13
 4841 00fc 00       		.byte	0
 4842 00fd 00       		.byte	0
 4843 00fe 17       		.uleb128 0x17
 4844 00ff 21       		.uleb128 0x21
 4845 0100 00       		.byte	0
 4846 0101 49       		.uleb128 0x49
 4847 0102 13       		.uleb128 0x13
 4848 0103 2F       		.uleb128 0x2f
 4849 0104 0B       		.uleb128 0xb
 4850 0105 00       		.byte	0
 4851 0106 00       		.byte	0
 4852 0107 18       		.uleb128 0x18
 4853 0108 2E       		.uleb128 0x2e
 4854 0109 00       		.byte	0
 4855 010a 3F       		.uleb128 0x3f
 4856 010b 19       		.uleb128 0x19
 4857 010c 03       		.uleb128 0x3
 4858 010d 0E       		.uleb128 0xe
 4859 010e 3A       		.uleb128 0x3a
 4860 010f 0B       		.uleb128 0xb
 4861 0110 3B       		.uleb128 0x3b
 4862 0111 0B       		.uleb128 0xb
 4863 0112 27       		.uleb128 0x27
 4864 0113 19       		.uleb128 0x19
 4865 0114 11       		.uleb128 0x11
 4866 0115 01       		.uleb128 0x1
 4867 0116 12       		.uleb128 0x12
ARM GAS  C:\Users\akita\AppData\Local\Temp\ccIEDY99.s 			page 101


 4868 0117 06       		.uleb128 0x6
 4869 0118 40       		.uleb128 0x40
 4870 0119 18       		.uleb128 0x18
 4871 011a 9742     		.uleb128 0x2117
 4872 011c 19       		.uleb128 0x19
 4873 011d 00       		.byte	0
 4874 011e 00       		.byte	0
 4875 011f 19       		.uleb128 0x19
 4876 0120 2E       		.uleb128 0x2e
 4877 0121 01       		.byte	0x1
 4878 0122 3F       		.uleb128 0x3f
 4879 0123 19       		.uleb128 0x19
 4880 0124 03       		.uleb128 0x3
 4881 0125 0E       		.uleb128 0xe
 4882 0126 3A       		.uleb128 0x3a
 4883 0127 0B       		.uleb128 0xb
 4884 0128 3B       		.uleb128 0x3b
 4885 0129 0B       		.uleb128 0xb
 4886 012a 27       		.uleb128 0x27
 4887 012b 19       		.uleb128 0x19
 4888 012c 11       		.uleb128 0x11
 4889 012d 01       		.uleb128 0x1
 4890 012e 12       		.uleb128 0x12
 4891 012f 06       		.uleb128 0x6
 4892 0130 40       		.uleb128 0x40
 4893 0131 18       		.uleb128 0x18
 4894 0132 9742     		.uleb128 0x2117
 4895 0134 19       		.uleb128 0x19
 4896 0135 01       		.uleb128 0x1
 4897 0136 13       		.uleb128 0x13
 4898 0137 00       		.byte	0
 4899 0138 00       		.byte	0
 4900 0139 1A       		.uleb128 0x1a
 4901 013a 05       		.uleb128 0x5
 4902 013b 00       		.byte	0
 4903 013c 03       		.uleb128 0x3
 4904 013d 0E       		.uleb128 0xe
 4905 013e 3A       		.uleb128 0x3a
 4906 013f 0B       		.uleb128 0xb
 4907 0140 3B       		.uleb128 0x3b
 4908 0141 0B       		.uleb128 0xb
 4909 0142 49       		.uleb128 0x49
 4910 0143 13       		.uleb128 0x13
 4911 0144 02       		.uleb128 0x2
 4912 0145 18       		.uleb128 0x18
 4913 0146 00       		.byte	0
 4914 0147 00       		.byte	0
 4915 0148 1B       		.uleb128 0x1b
 4916 0149 2E       		.uleb128 0x2e
 4917 014a 01       		.byte	0x1
 4918 014b 3F       		.uleb128 0x3f
 4919 014c 19       		.uleb128 0x19
 4920 014d 03       		.uleb128 0x3
 4921 014e 0E       		.uleb128 0xe
 4922 014f 3A       		.uleb128 0x3a
 4923 0150 0B       		.uleb128 0xb
 4924 0151 3B       		.uleb128 0x3b
ARM GAS  C:\Users\akita\AppData\Local\Temp\ccIEDY99.s 			page 102


 4925 0152 0B       		.uleb128 0xb
 4926 0153 27       		.uleb128 0x27
 4927 0154 19       		.uleb128 0x19
 4928 0155 49       		.uleb128 0x49
 4929 0156 13       		.uleb128 0x13
 4930 0157 11       		.uleb128 0x11
 4931 0158 01       		.uleb128 0x1
 4932 0159 12       		.uleb128 0x12
 4933 015a 06       		.uleb128 0x6
 4934 015b 40       		.uleb128 0x40
 4935 015c 18       		.uleb128 0x18
 4936 015d 9642     		.uleb128 0x2116
 4937 015f 19       		.uleb128 0x19
 4938 0160 01       		.uleb128 0x1
 4939 0161 13       		.uleb128 0x13
 4940 0162 00       		.byte	0
 4941 0163 00       		.byte	0
 4942 0164 1C       		.uleb128 0x1c
 4943 0165 34       		.uleb128 0x34
 4944 0166 00       		.byte	0
 4945 0167 03       		.uleb128 0x3
 4946 0168 0E       		.uleb128 0xe
 4947 0169 3A       		.uleb128 0x3a
 4948 016a 0B       		.uleb128 0xb
 4949 016b 3B       		.uleb128 0x3b
 4950 016c 0B       		.uleb128 0xb
 4951 016d 49       		.uleb128 0x49
 4952 016e 13       		.uleb128 0x13
 4953 016f 02       		.uleb128 0x2
 4954 0170 18       		.uleb128 0x18
 4955 0171 00       		.byte	0
 4956 0172 00       		.byte	0
 4957 0173 1D       		.uleb128 0x1d
 4958 0174 2E       		.uleb128 0x2e
 4959 0175 01       		.byte	0x1
 4960 0176 3F       		.uleb128 0x3f
 4961 0177 19       		.uleb128 0x19
 4962 0178 03       		.uleb128 0x3
 4963 0179 0E       		.uleb128 0xe
 4964 017a 3A       		.uleb128 0x3a
 4965 017b 0B       		.uleb128 0xb
 4966 017c 3B       		.uleb128 0x3b
 4967 017d 05       		.uleb128 0x5
 4968 017e 27       		.uleb128 0x27
 4969 017f 19       		.uleb128 0x19
 4970 0180 49       		.uleb128 0x49
 4971 0181 13       		.uleb128 0x13
 4972 0182 11       		.uleb128 0x11
 4973 0183 01       		.uleb128 0x1
 4974 0184 12       		.uleb128 0x12
 4975 0185 06       		.uleb128 0x6
 4976 0186 40       		.uleb128 0x40
 4977 0187 18       		.uleb128 0x18
 4978 0188 9642     		.uleb128 0x2116
 4979 018a 19       		.uleb128 0x19
 4980 018b 01       		.uleb128 0x1
 4981 018c 13       		.uleb128 0x13
ARM GAS  C:\Users\akita\AppData\Local\Temp\ccIEDY99.s 			page 103


 4982 018d 00       		.byte	0
 4983 018e 00       		.byte	0
 4984 018f 1E       		.uleb128 0x1e
 4985 0190 05       		.uleb128 0x5
 4986 0191 00       		.byte	0
 4987 0192 03       		.uleb128 0x3
 4988 0193 0E       		.uleb128 0xe
 4989 0194 3A       		.uleb128 0x3a
 4990 0195 0B       		.uleb128 0xb
 4991 0196 3B       		.uleb128 0x3b
 4992 0197 05       		.uleb128 0x5
 4993 0198 49       		.uleb128 0x49
 4994 0199 13       		.uleb128 0x13
 4995 019a 02       		.uleb128 0x2
 4996 019b 18       		.uleb128 0x18
 4997 019c 00       		.byte	0
 4998 019d 00       		.byte	0
 4999 019e 1F       		.uleb128 0x1f
 5000 019f 34       		.uleb128 0x34
 5001 01a0 00       		.byte	0
 5002 01a1 03       		.uleb128 0x3
 5003 01a2 0E       		.uleb128 0xe
 5004 01a3 3A       		.uleb128 0x3a
 5005 01a4 0B       		.uleb128 0xb
 5006 01a5 3B       		.uleb128 0x3b
 5007 01a6 05       		.uleb128 0x5
 5008 01a7 49       		.uleb128 0x49
 5009 01a8 13       		.uleb128 0x13
 5010 01a9 02       		.uleb128 0x2
 5011 01aa 18       		.uleb128 0x18
 5012 01ab 00       		.byte	0
 5013 01ac 00       		.byte	0
 5014 01ad 20       		.uleb128 0x20
 5015 01ae 2E       		.uleb128 0x2e
 5016 01af 01       		.byte	0x1
 5017 01b0 03       		.uleb128 0x3
 5018 01b1 0E       		.uleb128 0xe
 5019 01b2 3A       		.uleb128 0x3a
 5020 01b3 0B       		.uleb128 0xb
 5021 01b4 3B       		.uleb128 0x3b
 5022 01b5 05       		.uleb128 0x5
 5023 01b6 27       		.uleb128 0x27
 5024 01b7 19       		.uleb128 0x19
 5025 01b8 49       		.uleb128 0x49
 5026 01b9 13       		.uleb128 0x13
 5027 01ba 11       		.uleb128 0x11
 5028 01bb 01       		.uleb128 0x1
 5029 01bc 12       		.uleb128 0x12
 5030 01bd 06       		.uleb128 0x6
 5031 01be 40       		.uleb128 0x40
 5032 01bf 18       		.uleb128 0x18
 5033 01c0 9642     		.uleb128 0x2116
 5034 01c2 19       		.uleb128 0x19
 5035 01c3 01       		.uleb128 0x1
 5036 01c4 13       		.uleb128 0x13
 5037 01c5 00       		.byte	0
 5038 01c6 00       		.byte	0
ARM GAS  C:\Users\akita\AppData\Local\Temp\ccIEDY99.s 			page 104


 5039 01c7 21       		.uleb128 0x21
 5040 01c8 0B       		.uleb128 0xb
 5041 01c9 01       		.byte	0x1
 5042 01ca 11       		.uleb128 0x11
 5043 01cb 01       		.uleb128 0x1
 5044 01cc 12       		.uleb128 0x12
 5045 01cd 06       		.uleb128 0x6
 5046 01ce 00       		.byte	0
 5047 01cf 00       		.byte	0
 5048 01d0 22       		.uleb128 0x22
 5049 01d1 2E       		.uleb128 0x2e
 5050 01d2 01       		.byte	0x1
 5051 01d3 3F       		.uleb128 0x3f
 5052 01d4 19       		.uleb128 0x19
 5053 01d5 03       		.uleb128 0x3
 5054 01d6 0E       		.uleb128 0xe
 5055 01d7 3A       		.uleb128 0x3a
 5056 01d8 0B       		.uleb128 0xb
 5057 01d9 3B       		.uleb128 0x3b
 5058 01da 05       		.uleb128 0x5
 5059 01db 27       		.uleb128 0x27
 5060 01dc 19       		.uleb128 0x19
 5061 01dd 11       		.uleb128 0x11
 5062 01de 01       		.uleb128 0x1
 5063 01df 12       		.uleb128 0x12
 5064 01e0 06       		.uleb128 0x6
 5065 01e1 40       		.uleb128 0x40
 5066 01e2 18       		.uleb128 0x18
 5067 01e3 9742     		.uleb128 0x2117
 5068 01e5 19       		.uleb128 0x19
 5069 01e6 01       		.uleb128 0x1
 5070 01e7 13       		.uleb128 0x13
 5071 01e8 00       		.byte	0
 5072 01e9 00       		.byte	0
 5073 01ea 23       		.uleb128 0x23
 5074 01eb 34       		.uleb128 0x34
 5075 01ec 00       		.byte	0
 5076 01ed 03       		.uleb128 0x3
 5077 01ee 0E       		.uleb128 0xe
 5078 01ef 3A       		.uleb128 0x3a
 5079 01f0 0B       		.uleb128 0xb
 5080 01f1 3B       		.uleb128 0x3b
 5081 01f2 05       		.uleb128 0x5
 5082 01f3 49       		.uleb128 0x49
 5083 01f4 13       		.uleb128 0x13
 5084 01f5 3F       		.uleb128 0x3f
 5085 01f6 19       		.uleb128 0x19
 5086 01f7 3C       		.uleb128 0x3c
 5087 01f8 19       		.uleb128 0x19
 5088 01f9 00       		.byte	0
 5089 01fa 00       		.byte	0
 5090 01fb 24       		.uleb128 0x24
 5091 01fc 34       		.uleb128 0x34
 5092 01fd 00       		.byte	0
 5093 01fe 03       		.uleb128 0x3
 5094 01ff 0E       		.uleb128 0xe
 5095 0200 3A       		.uleb128 0x3a
ARM GAS  C:\Users\akita\AppData\Local\Temp\ccIEDY99.s 			page 105


 5096 0201 0B       		.uleb128 0xb
 5097 0202 3B       		.uleb128 0x3b
 5098 0203 0B       		.uleb128 0xb
 5099 0204 49       		.uleb128 0x49
 5100 0205 13       		.uleb128 0x13
 5101 0206 3F       		.uleb128 0x3f
 5102 0207 19       		.uleb128 0x19
 5103 0208 3C       		.uleb128 0x3c
 5104 0209 19       		.uleb128 0x19
 5105 020a 00       		.byte	0
 5106 020b 00       		.byte	0
 5107 020c 25       		.uleb128 0x25
 5108 020d 34       		.uleb128 0x34
 5109 020e 00       		.byte	0
 5110 020f 03       		.uleb128 0x3
 5111 0210 0E       		.uleb128 0xe
 5112 0211 3A       		.uleb128 0x3a
 5113 0212 0B       		.uleb128 0xb
 5114 0213 3B       		.uleb128 0x3b
 5115 0214 0B       		.uleb128 0xb
 5116 0215 49       		.uleb128 0x49
 5117 0216 13       		.uleb128 0x13
 5118 0217 3F       		.uleb128 0x3f
 5119 0218 19       		.uleb128 0x19
 5120 0219 02       		.uleb128 0x2
 5121 021a 18       		.uleb128 0x18
 5122 021b 00       		.byte	0
 5123 021c 00       		.byte	0
 5124 021d 00       		.byte	0
 5125              		.section	.debug_aranges,"",%progbits
 5126 0000 5C000000 		.4byte	0x5c
 5127 0004 0200     		.2byte	0x2
 5128 0006 00000000 		.4byte	.Ldebug_info0
 5129 000a 04       		.byte	0x4
 5130 000b 00       		.byte	0
 5131 000c 0000     		.2byte	0
 5132 000e 0000     		.2byte	0
 5133 0010 00000000 		.4byte	.LFB2
 5134 0014 08000000 		.4byte	.LFE2-.LFB2
 5135 0018 00000000 		.4byte	.LFB3
 5136 001c 18000000 		.4byte	.LFE3-.LFB3
 5137 0020 00000000 		.4byte	.LFB4
 5138 0024 D0010000 		.4byte	.LFE4-.LFB4
 5139 0028 00000000 		.4byte	.LFB5
 5140 002c D0010000 		.4byte	.LFE5-.LFB5
 5141 0030 00000000 		.4byte	.LFB6
 5142 0034 9C010000 		.4byte	.LFE6-.LFB6
 5143 0038 00000000 		.4byte	.LFB7
 5144 003c 70000000 		.4byte	.LFE7-.LFB7
 5145 0040 00000000 		.4byte	.LFB8
 5146 0044 18040000 		.4byte	.LFE8-.LFB8
 5147 0048 00000000 		.4byte	.LFB9
 5148 004c D4010000 		.4byte	.LFE9-.LFB9
 5149 0050 00000000 		.4byte	.LFB10
 5150 0054 74000000 		.4byte	.LFE10-.LFB10
 5151 0058 00000000 		.4byte	0
 5152 005c 00000000 		.4byte	0
ARM GAS  C:\Users\akita\AppData\Local\Temp\ccIEDY99.s 			page 106


 5153              		.section	.debug_ranges,"",%progbits
 5154              	.Ldebug_ranges0:
 5155 0000 00000000 		.4byte	.LFB2
 5156 0004 08000000 		.4byte	.LFE2
 5157 0008 00000000 		.4byte	.LFB3
 5158 000c 18000000 		.4byte	.LFE3
 5159 0010 00000000 		.4byte	.LFB4
 5160 0014 D0010000 		.4byte	.LFE4
 5161 0018 00000000 		.4byte	.LFB5
 5162 001c D0010000 		.4byte	.LFE5
 5163 0020 00000000 		.4byte	.LFB6
 5164 0024 9C010000 		.4byte	.LFE6
 5165 0028 00000000 		.4byte	.LFB7
 5166 002c 70000000 		.4byte	.LFE7
 5167 0030 00000000 		.4byte	.LFB8
 5168 0034 18040000 		.4byte	.LFE8
 5169 0038 00000000 		.4byte	.LFB9
 5170 003c D4010000 		.4byte	.LFE9
 5171 0040 00000000 		.4byte	.LFB10
 5172 0044 74000000 		.4byte	.LFE10
 5173 0048 00000000 		.4byte	0
 5174 004c 00000000 		.4byte	0
 5175              		.section	.debug_line,"",%progbits
 5176              	.Ldebug_line0:
 5177 0000 BD020000 		.section	.debug_str,"MS",%progbits,1
 5177      0200DD00 
 5177      00000201 
 5177      FB0E0D00 
 5177      01010101 
 5178              	.LASF545:
 5179 0000 6379426C 		.ascii	"cyBle_peerBonding\000"
 5179      655F7065 
 5179      6572426F 
 5179      6E64696E 
 5179      6700
 5180              	.LASF484:
 5181 0012 4359424C 		.ascii	"CYBLE_EVT_UDSC_READ_CHAR_RESPONSE\000"
 5181      455F4556 
 5181      545F5544 
 5181      53435F52 
 5181      4541445F 
 5182              	.LASF443:
 5183 0034 4359424C 		.ascii	"CYBLE_EVT_PLXSC_NOTIFICATION\000"
 5183      455F4556 
 5183      545F504C 
 5183      5853435F 
 5183      4E4F5449 
 5184              	.LASF394:
 5185 0051 4359424C 		.ascii	"CYBLE_EVT_HTSS_NOTIFICATION_DISABLED\000"
 5185      455F4556 
 5185      545F4854 
 5185      53535F4E 
 5185      4F544946 
 5186              	.LASF145:
 5187 0076 4359424C 		.ascii	"CYBLE_GATT_ERR_INVALID_CRC\000"
 5187      455F4741 
 5187      54545F45 
ARM GAS  C:\Users\akita\AppData\Local\Temp\ccIEDY99.s 			page 107


 5187      52525F49 
 5187      4E56414C 
 5188              	.LASF195:
 5189 0091 4359424C 		.ascii	"CYBLE_DIS_CHAR_COUNT\000"
 5189      455F4449 
 5189      535F4348 
 5189      41525F43 
 5189      4F554E54 
 5190              	.LASF15:
 5191 00a6 73697A65 		.ascii	"sizetype\000"
 5191      74797065 
 5191      00
 5192              	.LASF275:
 5193 00af 4359424C 		.ascii	"CYBLE_EVT_BCSC_READ_CHAR_RESPONSE\000"
 5193      455F4556 
 5193      545F4243 
 5193      53435F52 
 5193      4541445F 
 5194              	.LASF166:
 5195 00d1 4359424C 		.ascii	"CYBLE_GATTS_HANDLE_VALUE_NTF_T\000"
 5195      455F4741 
 5195      5454535F 
 5195      48414E44 
 5195      4C455F56 
 5196              	.LASF283:
 5197 00f0 4359424C 		.ascii	"CYBLE_EVT_BLSC_INDICATION\000"
 5197      455F4556 
 5197      545F424C 
 5197      53435F49 
 5197      4E444943 
 5198              	.LASF298:
 5199 010a 4359424C 		.ascii	"CYBLE_EVT_CGMSC_INDICATION\000"
 5199      455F4556 
 5199      545F4347 
 5199      4D53435F 
 5199      494E4449 
 5200              	.LASF316:
 5201 0125 4359424C 		.ascii	"CYBLE_EVT_CPSC_READ_DESCR_RESPONSE\000"
 5201      455F4556 
 5201      545F4350 
 5201      53435F52 
 5201      4541445F 
 5202              	.LASF447:
 5203 0148 4359424C 		.ascii	"CYBLE_EVT_PLXSC_READ_DESCR_RESPONSE\000"
 5203      455F4556 
 5203      545F504C 
 5203      5853435F 
 5203      52454144 
 5204              	.LASF461:
 5205 016c 4359424C 		.ascii	"CYBLE_EVT_RTUSS_WRITE_CHAR_CMD\000"
 5205      455F4556 
 5205      545F5254 
 5205      5553535F 
 5205      57524954 
 5206              	.LASF229:
 5207 018b 63686172 		.ascii	"charIndex\000"
 5207      496E6465 
ARM GAS  C:\Users\akita\AppData\Local\Temp\ccIEDY99.s 			page 108


 5207      7800
 5208              	.LASF495:
 5209 0195 4359424C 		.ascii	"CYBLE_EVT_WPTSC_NOTIFICATION\000"
 5209      455F4556 
 5209      545F5750 
 5209      5453435F 
 5209      4E4F5449 
 5210              	.LASF246:
 5211 01b2 4359424C 		.ascii	"CYBLE_EVT_GATTC_INCL_DISCOVERY_COMPLETE\000"
 5211      455F4556 
 5211      545F4741 
 5211      5454435F 
 5211      494E434C 
 5212              	.LASF36:
 5213 01da 4359424C 		.ascii	"CYBLE_EVT_GAP_NUMERIC_COMPARISON_REQUEST\000"
 5213      455F4556 
 5213      545F4741 
 5213      505F4E55 
 5213      4D455249 
 5214              	.LASF501:
 5215 0203 4359424C 		.ascii	"CYBLE_EVT_WSSS_INDICATION_ENABLED\000"
 5215      455F4556 
 5215      545F5753 
 5215      53535F49 
 5215      4E444943 
 5216              	.LASF314:
 5217 0225 4359424C 		.ascii	"CYBLE_EVT_CPSC_READ_CHAR_RESPONSE\000"
 5217      455F4556 
 5217      545F4350 
 5217      53435F52 
 5217      4541445F 
 5218              	.LASF327:
 5219 0247 4359424C 		.ascii	"CYBLE_EVT_CSCSC_READ_CHAR_RESPONSE\000"
 5219      455F4556 
 5219      545F4353 
 5219      4353435F 
 5219      52454144 
 5220              	.LASF303:
 5221 026a 4359424C 		.ascii	"CYBLE_EVT_CGMSC_WRITE_DESCR_RESPONSE\000"
 5221      455F4556 
 5221      545F4347 
 5221      4D53435F 
 5221      57524954 
 5222              	.LASF357:
 5223 028f 4359424C 		.ascii	"CYBLE_EVT_GLSS_NOTIFICATION_DISABLED\000"
 5223      455F4556 
 5223      545F474C 
 5223      53535F4E 
 5223      4F544946 
 5224              	.LASF527:
 5225 02b4 6576656E 		.ascii	"eventParam\000"
 5225      74506172 
 5225      616D00
 5226              	.LASF285:
 5227 02bf 4359424C 		.ascii	"CYBLE_EVT_BLSC_READ_CHAR_RESPONSE\000"
 5227      455F4556 
 5227      545F424C 
ARM GAS  C:\Users\akita\AppData\Local\Temp\ccIEDY99.s 			page 109


 5227      53435F52 
 5227      4541445F 
 5228              	.LASF30:
 5229 02e1 4359424C 		.ascii	"CYBLE_EVT_GAP_DEVICE_CONNECTED\000"
 5229      455F4556 
 5229      545F4741 
 5229      505F4445 
 5229      56494345 
 5230              	.LASF416:
 5231 0300 4359424C 		.ascii	"CYBLE_EVT_LLSC_WRITE_CHAR_RESPONSE\000"
 5231      455F4556 
 5231      545F4C4C 
 5231      53435F57 
 5231      52495445 
 5232              	.LASF47:
 5233 0323 4359424C 		.ascii	"CYBLE_EVT_GATT_CONNECT_IND\000"
 5233      455F4556 
 5233      545F4741 
 5233      54545F43 
 5233      4F4E4E45 
 5234              	.LASF362:
 5235 033e 4359424C 		.ascii	"CYBLE_EVT_GLSC_WRITE_CHAR_RESPONSE\000"
 5235      455F4556 
 5235      545F474C 
 5235      53435F57 
 5235      52495445 
 5236              	.LASF11:
 5237 0361 75696E74 		.ascii	"uint32\000"
 5237      333200
 5238              	.LASF241:
 5239 0368 4359424C 		.ascii	"CYBLE_EVT_GATTC_DESCR_DISCOVERY_FAILED\000"
 5239      455F4556 
 5239      545F4741 
 5239      5454435F 
 5239      44455343 
 5240              	.LASF460:
 5241 038f 4359424C 		.ascii	"CYBLE_EVT_RSCSC_WRITE_DESCR_RESPONSE\000"
 5241      455F4556 
 5241      545F5253 
 5241      4353435F 
 5241      57524954 
 5242              	.LASF273:
 5243 03b4 4359424C 		.ascii	"CYBLE_EVT_BCSS_INDICATION_CONFIRMED\000"
 5243      455F4556 
 5243      545F4243 
 5243      53535F49 
 5243      4E444943 
 5244              	.LASF274:
 5245 03d8 4359424C 		.ascii	"CYBLE_EVT_BCSC_INDICATION\000"
 5245      455F4556 
 5245      545F4243 
 5245      53435F49 
 5245      4E444943 
 5246              	.LASF418:
 5247 03f2 4359424C 		.ascii	"CYBLE_EVT_LNSS_INDICATION_DISABLED\000"
 5247      455F4556 
 5247      545F4C4E 
ARM GAS  C:\Users\akita\AppData\Local\Temp\ccIEDY99.s 			page 110


 5247      53535F49 
 5247      4E444943 
 5248              	.LASF335:
 5249 0415 4359424C 		.ascii	"CYBLE_EVT_CTSC_READ_CHAR_RESPONSE\000"
 5249      455F4556 
 5249      545F4354 
 5249      53435F52 
 5249      4541445F 
 5250              	.LASF245:
 5251 0437 4359424C 		.ascii	"CYBLE_EVT_GATTC_SRVC_DISCOVERY_COMPLETE\000"
 5251      455F4556 
 5251      545F4741 
 5251      5454435F 
 5251      53525643 
 5252              	.LASF454:
 5253 045f 4359424C 		.ascii	"CYBLE_EVT_RSCSS_CHAR_WRITE\000"
 5253      455F4556 
 5253      545F5253 
 5253      4353535F 
 5253      43484152 
 5254              	.LASF444:
 5255 047a 4359424C 		.ascii	"CYBLE_EVT_PLXSC_INDICATION\000"
 5255      455F4556 
 5255      545F504C 
 5255      5853435F 
 5255      494E4449 
 5256              	.LASF487:
 5257 0495 4359424C 		.ascii	"CYBLE_EVT_UDSC_WRITE_DESCR_RESPONSE\000"
 5257      455F4556 
 5257      545F5544 
 5257      53435F57 
 5257      52495445 
 5258              	.LASF376:
 5259 04b9 4359424C 		.ascii	"CYBLE_EVT_HIDSC_WRITE_DESCR_RESPONSE\000"
 5259      455F4556 
 5259      545F4849 
 5259      4453435F 
 5259      57524954 
 5260              	.LASF539:
 5261 04de 4379426C 		.ascii	"CyBle_HidssOnDeviceConnected\000"
 5261      655F4869 
 5261      6473734F 
 5261      6E446576 
 5261      69636543 
 5262              	.LASF469:
 5263 04fb 4359424C 		.ascii	"CYBLE_EVT_TPSS_NOTIFICATION_ENABLED\000"
 5263      455F4556 
 5263      545F5450 
 5263      53535F4E 
 5263      4F544946 
 5264              	.LASF263:
 5265 051f 4359424C 		.ascii	"CYBLE_EVT_ANSC_READ_DESCR_RESPONSE\000"
 5265      455F4556 
 5265      545F414E 
 5265      53435F52 
 5265      4541445F 
 5266              	.LASF120:
ARM GAS  C:\Users\akita\AppData\Local\Temp\ccIEDY99.s 			page 111


 5267 0542 4359424C 		.ascii	"CYBLE_GATT_ERR_READ_NOT_PERMITTED\000"
 5267      455F4741 
 5267      54545F45 
 5267      52525F52 
 5267      4541445F 
 5268              	.LASF135:
 5269 0564 4359424C 		.ascii	"CYBLE_GATT_ERR_INSUFFICIENT_RESOURCE\000"
 5269      455F4741 
 5269      54545F45 
 5269      52525F49 
 5269      4E535546 
 5270              	.LASF217:
 5271 0589 4359424C 		.ascii	"CYBLE_HIDSS_REPORT_T\000"
 5271      455F4849 
 5271      4453535F 
 5271      5245504F 
 5271      52545F54 
 5272              	.LASF134:
 5273 059e 4359424C 		.ascii	"CYBLE_GATT_ERR_UNSUPPORTED_GROUP_TYPE\000"
 5273      455F4741 
 5273      54545F45 
 5273      52525F55 
 5273      4E535550 
 5274              	.LASF101:
 5275 05c4 4359424C 		.ascii	"CYBLE_ERROR_L2CAP_CONNECTION_ENTITY_NOT_FOUND\000"
 5275      455F4552 
 5275      524F525F 
 5275      4C324341 
 5275      505F434F 
 5276              	.LASF227:
 5277 05f2 4359424C 		.ascii	"CYBLE_HIDSS_T\000"
 5277      455F4849 
 5277      4453535F 
 5277      5400
 5278              	.LASF553:
 5279 0600 4379426C 		.ascii	"CyBle_HidssCccdWriteEventHandler\000"
 5279      655F4869 
 5279      64737343 
 5279      63636457 
 5279      72697465 
 5280              	.LASF107:
 5281 0621 4359424C 		.ascii	"CYBLE_ERROR_MIC_AUTH_FAILED\000"
 5281      455F4552 
 5281      524F525F 
 5281      4D49435F 
 5281      41555448 
 5282              	.LASF240:
 5283 063d 4359424C 		.ascii	"CYBLE_EVT_GATTC_CHAR_DISCOVERY_FAILED\000"
 5283      455F4556 
 5283      545F4741 
 5283      5454435F 
 5283      43484152 
 5284              	.LASF541:
 5285 0663 4379426C 		.ascii	"CyBle_HidsApplCallback\000"
 5285      655F4869 
 5285      64734170 
 5285      706C4361 
ARM GAS  C:\Users\akita\AppData\Local\Temp\ccIEDY99.s 			page 112


 5285      6C6C6261 
 5286              	.LASF67:
 5287 067a 4359424C 		.ascii	"CYBLE_EVT_GATTS_DATA_SIGNED_CMD_REQ\000"
 5287      455F4556 
 5287      545F4741 
 5287      5454535F 
 5287      44415441 
 5288              	.LASF79:
 5289 069e 4359424C 		.ascii	"CYBLE_EVT_L2CAP_CBFC_RX_CREDIT_IND\000"
 5289      455F4556 
 5289      545F4C32 
 5289      4341505F 
 5289      43424643 
 5290              	.LASF162:
 5291 06c1 4359424C 		.ascii	"CYBLE_GATT_VALUE_T\000"
 5291      455F4741 
 5291      54545F56 
 5291      414C5545 
 5291      5F5400
 5292              	.LASF321:
 5293 06d4 4359424C 		.ascii	"CYBLE_EVT_CSCSS_INDICATION_ENABLED\000"
 5293      455F4556 
 5293      545F4353 
 5293      4353535F 
 5293      494E4449 
 5294              	.LASF181:
 5295 06f7 7065726D 		.ascii	"permission\000"
 5295      69737369 
 5295      6F6E00
 5296              	.LASF423:
 5297 0702 4359424C 		.ascii	"CYBLE_EVT_LNSC_INDICATION\000"
 5297      455F4556 
 5297      545F4C4E 
 5297      53435F49 
 5297      4E444943 
 5298              	.LASF434:
 5299 071c 4359424C 		.ascii	"CYBLE_EVT_PASSC_READ_CHAR_RESPONSE\000"
 5299      455F4556 
 5299      545F5041 
 5299      5353435F 
 5299      52454144 
 5300              	.LASF204:
 5301 073f 4359424C 		.ascii	"CYBLE_HUMAN_INTERFACE_DEVICE_REPORT_IN\000"
 5301      455F4855 
 5301      4D414E5F 
 5301      494E5445 
 5301      52464143 
 5302              	.LASF278:
 5303 0766 4359424C 		.ascii	"CYBLE_EVT_BLSS_INDICATION_ENABLED\000"
 5303      455F4556 
 5303      545F424C 
 5303      53535F49 
 5303      4E444943 
 5304              	.LASF284:
 5305 0788 4359424C 		.ascii	"CYBLE_EVT_BLSC_NOTIFICATION\000"
 5305      455F4556 
 5305      545F424C 
ARM GAS  C:\Users\akita\AppData\Local\Temp\ccIEDY99.s 			page 113


 5305      53435F4E 
 5305      4F544946 
 5306              	.LASF185:
 5307 07a4 4359424C 		.ascii	"CYBLE_CALLBACK_T\000"
 5307      455F4341 
 5307      4C4C4241 
 5307      434B5F54 
 5307      00
 5308              	.LASF326:
 5309 07b5 4359424C 		.ascii	"CYBLE_EVT_CSCSC_INDICATION\000"
 5309      455F4556 
 5309      545F4353 
 5309      4353435F 
 5309      494E4449 
 5310              	.LASF369:
 5311 07d0 4359424C 		.ascii	"CYBLE_EVT_HIDSS_SUSPEND\000"
 5311      455F4556 
 5311      545F4849 
 5311      4453535F 
 5311      53555350 
 5312              	.LASF190:
 5313 07e8 4359424C 		.ascii	"CYBLE_DIS_FIRMWARE_REV\000"
 5313      455F4449 
 5313      535F4649 
 5313      524D5741 
 5313      52455F52 
 5314              	.LASF64:
 5315 07ff 4359424C 		.ascii	"CYBLE_EVT_GATTC_HANDLE_VALUE_NTF\000"
 5315      455F4556 
 5315      545F4741 
 5315      5454435F 
 5315      48414E44 
 5316              	.LASF24:
 5317 0820 4359424C 		.ascii	"CYBLE_EVT_GAP_AUTH_REQ\000"
 5317      455F4556 
 5317      545F4741 
 5317      505F4155 
 5317      54485F52 
 5318              	.LASF247:
 5319 0837 4359424C 		.ascii	"CYBLE_EVT_GATTC_CHAR_DISCOVERY_COMPLETE\000"
 5319      455F4556 
 5319      545F4741 
 5319      5454435F 
 5319      43484152 
 5320              	.LASF160:
 5321 085f 4359424C 		.ascii	"CYBLE_CONN_HANDLE_T\000"
 5321      455F434F 
 5321      4E4E5F48 
 5321      414E444C 
 5321      455F5400 
 5322              	.LASF390:
 5323 0873 4359424C 		.ascii	"CYBLE_EVT_HRSC_WRITE_CHAR_RESPONSE\000"
 5323      455F4556 
 5323      545F4852 
 5323      53435F57 
 5323      52495445 
 5324              	.LASF96:
ARM GAS  C:\Users\akita\AppData\Local\Temp\ccIEDY99.s 			page 114


 5325 0896 4359424C 		.ascii	"CYBLE_ERROR_BT_ON_NOT_COMPLETED\000"
 5325      455F4552 
 5325      524F525F 
 5325      42545F4F 
 5325      4E5F4E4F 
 5326              	.LASF325:
 5327 08b6 4359424C 		.ascii	"CYBLE_EVT_CSCSC_NOTIFICATION\000"
 5327      455F4556 
 5327      545F4353 
 5327      4353435F 
 5327      4E4F5449 
 5328              	.LASF482:
 5329 08d3 4359424C 		.ascii	"CYBLE_EVT_UDSC_INDICATION\000"
 5329      455F4556 
 5329      545F5544 
 5329      53435F49 
 5329      4E444943 
 5330              	.LASF406:
 5331 08ed 4359424C 		.ascii	"CYBLE_EVT_IPSS_WRITE_CHAR\000"
 5331      455F4556 
 5331      545F4950 
 5331      53535F57 
 5331      52495445 
 5332              	.LASF199:
 5333 0907 4359424C 		.ascii	"CYBLE_HIDS_REPORT_MAP\000"
 5333      455F4849 
 5333      44535F52 
 5333      45504F52 
 5333      545F4D41 
 5334              	.LASF45:
 5335 091d 4359424C 		.ascii	"CYBLE_EVT_GAP_AUTH_REQ_REPLY_ERR\000"
 5335      455F4556 
 5335      545F4741 
 5335      505F4155 
 5335      54485F52 
 5336              	.LASF289:
 5337 093e 4359424C 		.ascii	"CYBLE_EVT_BMSC_READ_CHAR_RESPONSE\000"
 5337      455F4556 
 5337      545F424D 
 5337      53435F52 
 5337      4541445F 
 5338              	.LASF512:
 5339 0960 4359424C 		.ascii	"CYBLE_STATE_ADVERTISING\000"
 5339      455F5354 
 5339      4154455F 
 5339      41445645 
 5339      52544953 
 5340              	.LASF38:
 5341 0978 4359424C 		.ascii	"CYBLE_EVT_GAP_OOB_GENERATED_NOTIFICATION\000"
 5341      455F4556 
 5341      545F4741 
 5341      505F4F4F 
 5341      425F4745 
 5342              	.LASF158:
 5343 09a1 62644861 		.ascii	"bdHandle\000"
 5343      6E646C65 
 5343      00
ARM GAS  C:\Users\akita\AppData\Local\Temp\ccIEDY99.s 			page 115


 5344              	.LASF147:
 5345 09aa 4359424C 		.ascii	"CYBLE_GATTS_ERR_NETWORK_NOT_AVAILABLE\000"
 5345      455F4741 
 5345      5454535F 
 5345      4552525F 
 5345      4E455457 
 5346              	.LASF294:
 5347 09d0 4359424C 		.ascii	"CYBLE_EVT_CGMSS_INDICATION_CONFIRMED\000"
 5347      455F4556 
 5347      545F4347 
 5347      4D53535F 
 5347      494E4449 
 5348              	.LASF150:
 5349 09f5 4359424C 		.ascii	"CYBLE_GATT_ERR_ANCS_INVALID_COMMAND\000"
 5349      455F4741 
 5349      54545F45 
 5349      52525F41 
 5349      4E43535F 
 5350              	.LASF286:
 5351 0a19 4359424C 		.ascii	"CYBLE_EVT_BLSC_READ_DESCR_RESPONSE\000"
 5351      455F4556 
 5351      545F424C 
 5351      53435F52 
 5351      4541445F 
 5352              	.LASF446:
 5353 0a3c 4359424C 		.ascii	"CYBLE_EVT_PLXSC_WRITE_CHAR_RESPONSE\000"
 5353      455F4556 
 5353      545F504C 
 5353      5853435F 
 5353      57524954 
 5354              	.LASF307:
 5355 0a60 4359424C 		.ascii	"CYBLE_EVT_CPSS_INDICATION_DISABLED\000"
 5355      455F4556 
 5355      545F4350 
 5355      53535F49 
 5355      4E444943 
 5356              	.LASF306:
 5357 0a83 4359424C 		.ascii	"CYBLE_EVT_CPSS_INDICATION_ENABLED\000"
 5357      455F4556 
 5357      545F4350 
 5357      53535F49 
 5357      4E444943 
 5358              	.LASF420:
 5359 0aa5 4359424C 		.ascii	"CYBLE_EVT_LNSS_NOTIFICATION_ENABLED\000"
 5359      455F4556 
 5359      545F4C4E 
 5359      53535F4E 
 5359      4F544946 
 5360              	.LASF60:
 5361 0ac9 4359424C 		.ascii	"CYBLE_EVT_GATTS_WRITE_CMD_REQ\000"
 5361      455F4556 
 5361      545F4741 
 5361      5454535F 
 5361      57524954 
 5362              	.LASF317:
 5363 0ae7 4359424C 		.ascii	"CYBLE_EVT_CPSC_WRITE_DESCR_RESPONSE\000"
 5363      455F4556 
ARM GAS  C:\Users\akita\AppData\Local\Temp\ccIEDY99.s 			page 116


 5363      545F4350 
 5363      53435F57 
 5363      52495445 
 5364              	.LASF80:
 5365 0b0b 4359424C 		.ascii	"CYBLE_EVT_L2CAP_CBFC_TX_CREDIT_IND\000"
 5365      455F4556 
 5365      545F4C32 
 5365      4341505F 
 5365      43424643 
 5366              	.LASF4:
 5367 0b2e 6C6F6E67 		.ascii	"long int\000"
 5367      20696E74 
 5367      00
 5368              	.LASF421:
 5369 0b37 4359424C 		.ascii	"CYBLE_EVT_LNSS_NOTIFICATION_DISABLED\000"
 5369      455F4556 
 5369      545F4C4E 
 5369      53535F4E 
 5369      4F544946 
 5370              	.LASF322:
 5371 0b5c 4359424C 		.ascii	"CYBLE_EVT_CSCSS_INDICATION_DISABLED\000"
 5371      455F4556 
 5371      545F4353 
 5371      4353535F 
 5371      494E4449 
 5372              	.LASF477:
 5373 0b80 4359424C 		.ascii	"CYBLE_EVT_UDSS_INDICATION_CONFIRMED\000"
 5373      455F4556 
 5373      545F5544 
 5373      53535F49 
 5373      4E444943 
 5374              	.LASF233:
 5375 0ba4 4359424C 		.ascii	"CYBLE_LONG_TERM_KEY_REQUEST_REPLY\000"
 5375      455F4C4F 
 5375      4E475F54 
 5375      45524D5F 
 5375      4B45595F 
 5376              	.LASF17:
 5377 0bc6 4359424C 		.ascii	"CYBLE_EVT_STACK_ON\000"
 5377      455F4556 
 5377      545F5354 
 5377      41434B5F 
 5377      4F4E00
 5378              	.LASF103:
 5379 0bd9 4359424C 		.ascii	"CYBLE_ERROR_L2CAP_PSM_NOT_IN_RANGE\000"
 5379      455F4552 
 5379      524F525F 
 5379      4C324341 
 5379      505F5053 
 5380              	.LASF189:
 5381 0bfc 4359424C 		.ascii	"CYBLE_DIS_HARDWARE_REV\000"
 5381      455F4449 
 5381      535F4841 
 5381      52445741 
 5381      52455F52 
 5382              	.LASF515:
 5383 0c13 63616C6C 		.ascii	"callbackFunc\000"
ARM GAS  C:\Users\akita\AppData\Local\Temp\ccIEDY99.s 			page 117


 5383      6261636B 
 5383      46756E63 
 5383      00
 5384              	.LASF352:
 5385 0c20 4359424C 		.ascii	"CYBLE_EVT_ESSC_WRITE_DESCR_RESPONSE\000"
 5385      455F4556 
 5385      545F4553 
 5385      53435F57 
 5385      52495445 
 5386              	.LASF146:
 5387 0c44 4359424C 		.ascii	"CYBLE_GATTS_ERR_HPS_INVALID_REQUEST\000"
 5387      455F4741 
 5387      5454535F 
 5387      4552525F 
 5387      4850535F 
 5388              	.LASF551:
 5389 0c68 433A5C55 		.ascii	"C:\\Users\\akita\\Documents\\TPT02\\src\\TPT02r.cyd"
 5389      73657273 
 5389      5C616B69 
 5389      74615C44 
 5389      6F63756D 
 5390 0c95 736E00   		.ascii	"sn\000"
 5391              	.LASF409:
 5392 0c98 4359424C 		.ascii	"CYBLE_EVT_IPSC_WRITE_CHAR_RESPONSE\000"
 5392      455F4556 
 5392      545F4950 
 5392      53435F57 
 5392      52495445 
 5393              	.LASF218:
 5394 0cbb 73657276 		.ascii	"serviceHandle\000"
 5394      69636548 
 5394      616E646C 
 5394      6500
 5395              	.LASF393:
 5396 0cc9 4359424C 		.ascii	"CYBLE_EVT_HTSS_NOTIFICATION_ENABLED\000"
 5396      455F4556 
 5396      545F4854 
 5396      53535F4E 
 5396      4F544946 
 5397              	.LASF122:
 5398 0ced 4359424C 		.ascii	"CYBLE_GATT_ERR_INVALID_PDU\000"
 5398      455F4741 
 5398      54545F45 
 5398      52525F49 
 5398      4E56414C 
 5399              	.LASF547:
 5400 0d08 6379426C 		.ascii	"cyBle_hidss\000"
 5400      655F6869 
 5400      64737300 
 5401              	.LASF115:
 5402 0d14 4359424C 		.ascii	"CYBLE_ERROR_CHAR_IS_NOT_DISCOVERED\000"
 5402      455F4552 
 5402      524F525F 
 5402      43484152 
 5402      5F49535F 
 5403              	.LASF480:
 5404 0d37 4359424C 		.ascii	"CYBLE_EVT_UDSS_READ_CHAR\000"
ARM GAS  C:\Users\akita\AppData\Local\Temp\ccIEDY99.s 			page 118


 5404      455F4556 
 5404      545F5544 
 5404      53535F52 
 5404      4541445F 
 5405              	.LASF165:
 5406 0d50 4359424C 		.ascii	"CYBLE_GATT_HANDLE_VALUE_PAIR_T\000"
 5406      455F4741 
 5406      54545F48 
 5406      414E444C 
 5406      455F5641 
 5407              	.LASF180:
 5408 0d6f 61747454 		.ascii	"attType\000"
 5408      79706500 
 5409              	.LASF228:
 5410 0d77 73657276 		.ascii	"serviceIndex\000"
 5410      69636549 
 5410      6E646578 
 5410      00
 5411              	.LASF349:
 5412 0d84 4359424C 		.ascii	"CYBLE_EVT_ESSC_READ_CHAR_RESPONSE\000"
 5412      455F4556 
 5412      545F4553 
 5412      53435F52 
 5412      4541445F 
 5413              	.LASF372:
 5414 0da6 4359424C 		.ascii	"CYBLE_EVT_HIDSC_NOTIFICATION\000"
 5414      455F4556 
 5414      545F4849 
 5414      4453435F 
 5414      4E4F5449 
 5415              	.LASF73:
 5416 0dc3 4359424C 		.ascii	"CYBLE_EVT_L2CAP_COMMAND_REJ\000"
 5416      455F4556 
 5416      545F4C32 
 5416      4341505F 
 5416      434F4D4D 
 5417              	.LASF131:
 5418 0ddf 4359424C 		.ascii	"CYBLE_GATT_ERR_INVALID_ATTRIBUTE_LEN\000"
 5418      455F4741 
 5418      54545F45 
 5418      52525F49 
 5418      4E56414C 
 5419              	.LASF219:
 5420 0e04 70726F74 		.ascii	"protocolModeHandle\000"
 5420      6F636F6C 
 5420      4D6F6465 
 5420      48616E64 
 5420      6C6500
 5421              	.LASF104:
 5422 0e17 4359424C 		.ascii	"CYBLE_ERROR_GATT_DB_INVALID_ATTR_HANDLE\000"
 5422      455F4552 
 5422      524F525F 
 5422      47415454 
 5422      5F44425F 
 5423              	.LASF0:
 5424 0e3f 7369676E 		.ascii	"signed char\000"
 5424      65642063 
ARM GAS  C:\Users\akita\AppData\Local\Temp\ccIEDY99.s 			page 119


 5424      68617200 
 5425              	.LASF276:
 5426 0e4b 4359424C 		.ascii	"CYBLE_EVT_BCSC_READ_DESCR_RESPONSE\000"
 5426      455F4556 
 5426      545F4243 
 5426      53435F52 
 5426      4541445F 
 5427              	.LASF507:
 5428 0e6e 4359424C 		.ascii	"CYBLE_EVT_WSSC_WRITE_DESCR_RESPONSE\000"
 5428      455F4556 
 5428      545F5753 
 5428      53435F57 
 5428      52495445 
 5429              	.LASF269:
 5430 0e92 4359424C 		.ascii	"CYBLE_EVT_BASC_READ_DESCR_RESPONSE\000"
 5430      455F4556 
 5430      545F4241 
 5430      53435F52 
 5430      4541445F 
 5431              	.LASF19:
 5432 0eb5 4359424C 		.ascii	"CYBLE_EVT_HARDWARE_ERROR\000"
 5432      455F4556 
 5432      545F4841 
 5432      52445741 
 5432      52455F45 
 5433              	.LASF85:
 5434 0ece 4359424C 		.ascii	"CYBLE_ERROR_OK\000"
 5434      455F4552 
 5434      524F525F 
 5434      4F4B00
 5435              	.LASF534:
 5436 0edd 6C6F6343 		.ascii	"locCharValue\000"
 5436      68617256 
 5436      616C7565 
 5436      00
 5437              	.LASF51:
 5438 0eea 4359424C 		.ascii	"CYBLE_EVT_GATTC_READ_BY_GROUP_TYPE_RSP\000"
 5438      455F4556 
 5438      545F4741 
 5438      5454435F 
 5438      52454144 
 5439              	.LASF509:
 5440 0f11 4359424C 		.ascii	"CYBLE_STATE_STOPPED\000"
 5440      455F5354 
 5440      4154455F 
 5440      53544F50 
 5440      50454400 
 5441              	.LASF451:
 5442 0f25 4359424C 		.ascii	"CYBLE_EVT_RSCSS_INDICATION_ENABLED\000"
 5442      455F4556 
 5442      545F5253 
 5442      4353535F 
 5442      494E4449 
 5443              	.LASF1:
 5444 0f48 756E7369 		.ascii	"unsigned char\000"
 5444      676E6564 
 5444      20636861 
ARM GAS  C:\Users\akita\AppData\Local\Temp\ccIEDY99.s 			page 120


 5444      7200
 5445              	.LASF50:
 5446 0f56 4359424C 		.ascii	"CYBLE_EVT_GATTC_XCHNG_MTU_RSP\000"
 5446      455F4556 
 5446      545F4741 
 5446      5454435F 
 5446      5843484E 
 5447              	.LASF308:
 5448 0f74 4359424C 		.ascii	"CYBLE_EVT_CPSS_INDICATION_CONFIRMED\000"
 5448      455F4556 
 5448      545F4350 
 5448      53535F49 
 5448      4E444943 
 5449              	.LASF305:
 5450 0f98 4359424C 		.ascii	"CYBLE_EVT_CPSS_NOTIFICATION_DISABLED\000"
 5450      455F4556 
 5450      545F4350 
 5450      53535F4E 
 5450      4F544946 
 5451              	.LASF456:
 5452 0fbd 4359424C 		.ascii	"CYBLE_EVT_RSCSC_INDICATION\000"
 5452      455F4556 
 5452      545F5253 
 5452      4353435F 
 5452      494E4449 
 5453              	.LASF506:
 5454 0fd8 4359424C 		.ascii	"CYBLE_EVT_WSSC_READ_DESCR_RESPONSE\000"
 5454      455F4556 
 5454      545F5753 
 5454      53435F52 
 5454      4541445F 
 5455              	.LASF492:
 5456 0ffb 4359424C 		.ascii	"CYBLE_EVT_WPTSS_INDICATION_DISABLED\000"
 5456      455F4556 
 5456      545F5750 
 5456      5453535F 
 5456      494E4449 
 5457              	.LASF42:
 5458 101f 4359424C 		.ascii	"CYBLE_EVT_GAP_SMP_NEGOTIATED_AUTH_INFO\000"
 5458      455F4556 
 5458      545F4741 
 5458      505F534D 
 5458      505F4E45 
 5459              	.LASF43:
 5460 1046 4359424C 		.ascii	"CYBLE_EVT_GAP_CONN_ESTB\000"
 5460      455F4556 
 5460      545F4741 
 5460      505F434F 
 5460      4E4E5F45 
 5461              	.LASF179:
 5462 105e 61747448 		.ascii	"attHandle\000"
 5462      616E646C 
 5462      6500
 5463              	.LASF237:
 5464 1068 4359424C 		.ascii	"CYBLE_EVT_GATTC_INDICATION\000"
 5464      455F4556 
 5464      545F4741 
ARM GAS  C:\Users\akita\AppData\Local\Temp\ccIEDY99.s 			page 121


 5464      5454435F 
 5464      494E4449 
 5465              	.LASF377:
 5466 1083 4359424C 		.ascii	"CYBLE_EVT_HPSS_NOTIFICATION_ENABLED\000"
 5466      455F4556 
 5466      545F4850 
 5466      53535F4E 
 5466      4F544946 
 5467              	.LASF463:
 5468 10a7 4359424C 		.ascii	"CYBLE_EVT_SCPSS_NOTIFICATION_ENABLED\000"
 5468      455F4556 
 5468      545F5343 
 5468      5053535F 
 5468      4E4F5449 
 5469              	.LASF407:
 5470 10cc 4359424C 		.ascii	"CYBLE_EVT_IPSC_READ_CHAR_RESPONSE\000"
 5470      455F4556 
 5470      545F4950 
 5470      53435F52 
 5470      4541445F 
 5471              	.LASF531:
 5472 10ee 6C6F6353 		.ascii	"locServIndex\000"
 5472      65727649 
 5472      6E646578 
 5472      00
 5473              	.LASF77:
 5474 10fb 4359424C 		.ascii	"CYBLE_EVT_L2CAP_CBFC_DISCONN_CNF\000"
 5474      455F4556 
 5474      545F4C32 
 5474      4341505F 
 5474      43424643 
 5475              	.LASF54:
 5476 111c 4359424C 		.ascii	"CYBLE_EVT_GATTC_FIND_BY_TYPE_VALUE_RSP\000"
 5476      455F4556 
 5476      545F4741 
 5476      5454435F 
 5476      46494E44 
 5477              	.LASF249:
 5478 1143 4359424C 		.ascii	"CYBLE_EVT_ANCSS_NOTIFICATION_ENABLED\000"
 5478      455F4556 
 5478      545F414E 
 5478      4353535F 
 5478      4E4F5449 
 5479              	.LASF39:
 5480 1168 4359424C 		.ascii	"CYBLE_EVT_GAP_DATA_LENGTH_CHANGE\000"
 5480      455F4556 
 5480      545F4741 
 5480      505F4441 
 5480      54415F4C 
 5481              	.LASF468:
 5482 1189 4359424C 		.ascii	"CYBLE_EVT_SCPSC_WRITE_DESCR_RESPONSE\000"
 5482      455F4556 
 5482      545F5343 
 5482      5053435F 
 5482      57524954 
 5483              	.LASF14:
 5484 11ae 63686172 		.ascii	"char\000"
ARM GAS  C:\Users\akita\AppData\Local\Temp\ccIEDY99.s 			page 122


 5484      00
 5485              	.LASF173:
 5486 11b3 6D617841 		.ascii	"maxAttrLength\000"
 5486      7474724C 
 5486      656E6774 
 5486      6800
 5487              	.LASF471:
 5488 11c1 4359424C 		.ascii	"CYBLE_EVT_TPSC_NOTIFICATION\000"
 5488      455F4556 
 5488      545F5450 
 5488      53435F4E 
 5488      4F544946 
 5489              	.LASF208:
 5490 11dd 4359424C 		.ascii	"CYBLE_HIDS_CHAR_INDEX_T\000"
 5490      455F4849 
 5490      44535F43 
 5490      4841525F 
 5490      494E4445 
 5491              	.LASF438:
 5492 11f5 4359424C 		.ascii	"CYBLE_EVT_PLXSS_NOTIFICATION_ENABLED\000"
 5492      455F4556 
 5492      545F504C 
 5492      5853535F 
 5492      4E4F5449 
 5493              	.LASF57:
 5494 121a 4359424C 		.ascii	"CYBLE_EVT_GATTC_READ_MULTI_RSP\000"
 5494      455F4556 
 5494      545F4741 
 5494      5454435F 
 5494      52454144 
 5495              	.LASF16:
 5496 1239 4359424C 		.ascii	"CYBLE_EVT_HOST_INVALID\000"
 5496      455F4556 
 5496      545F484F 
 5496      53545F49 
 5496      4E56414C 
 5497              	.LASF132:
 5498 1250 4359424C 		.ascii	"CYBLE_GATT_ERR_UNLIKELY_ERROR\000"
 5498      455F4741 
 5498      54545F45 
 5498      52525F55 
 5498      4E4C494B 
 5499              	.LASF41:
 5500 126e 4359424C 		.ascii	"CYBLE_EVT_GAPC_DIRECT_ADV_REPORT\000"
 5500      455F4556 
 5500      545F4741 
 5500      50435F44 
 5500      49524543 
 5501              	.LASF363:
 5502 128f 4359424C 		.ascii	"CYBLE_EVT_GLSC_READ_DESCR_RESPONSE\000"
 5502      455F4556 
 5502      545F474C 
 5502      53435F52 
 5502      4541445F 
 5503              	.LASF92:
 5504 12b2 4359424C 		.ascii	"CYBLE_ERROR_NO_DEVICE_ENTITY\000"
 5504      455F4552 
ARM GAS  C:\Users\akita\AppData\Local\Temp\ccIEDY99.s 			page 123


 5504      524F525F 
 5504      4E4F5F44 
 5504      45564943 
 5505              	.LASF56:
 5506 12cf 4359424C 		.ascii	"CYBLE_EVT_GATTC_READ_BLOB_RSP\000"
 5506      455F4556 
 5506      545F4741 
 5506      5454435F 
 5506      52454144 
 5507              	.LASF396:
 5508 12ed 4359424C 		.ascii	"CYBLE_EVT_HTSS_INDICATION_DISABLED\000"
 5508      455F4556 
 5508      545F4854 
 5508      53535F49 
 5508      4E444943 
 5509              	.LASF462:
 5510 1310 4359424C 		.ascii	"CYBLE_EVT_RTUSC_READ_CHAR_RESPONSE\000"
 5510      455F4556 
 5510      545F5254 
 5510      5553435F 
 5510      52454144 
 5511              	.LASF63:
 5512 1333 4359424C 		.ascii	"CYBLE_EVT_GATTC_EXEC_WRITE_RSP\000"
 5512      455F4556 
 5512      545F4741 
 5512      5454435F 
 5512      45584543 
 5513              	.LASF136:
 5514 1352 4359424C 		.ascii	"CYBLE_GATT_ERR_HEART_RATE_CONTROL_POINT_NOT_SUPPORT"
 5514      455F4741 
 5514      54545F45 
 5514      52525F48 
 5514      45415254 
 5515 1385 454400   		.ascii	"ED\000"
 5516              	.LASF503:
 5517 1388 4359424C 		.ascii	"CYBLE_EVT_WSSS_INDICATION_CONFIRMED\000"
 5517      455F4556 
 5517      545F5753 
 5517      53535F49 
 5517      4E444943 
 5518              	.LASF129:
 5519 13ac 4359424C 		.ascii	"CYBLE_GATT_ERR_ATTRIBUTE_NOT_LONG\000"
 5519      455F4741 
 5519      54545F45 
 5519      52525F41 
 5519      54545249 
 5520              	.LASF337:
 5521 13ce 4359424C 		.ascii	"CYBLE_EVT_CTSC_WRITE_DESCR_RESPONSE\000"
 5521      455F4556 
 5521      545F4354 
 5521      53435F57 
 5521      52495445 
 5522              	.LASF476:
 5523 13f2 4359424C 		.ascii	"CYBLE_EVT_UDSS_INDICATION_DISABLED\000"
 5523      455F4556 
 5523      545F5544 
 5523      53535F49 
ARM GAS  C:\Users\akita\AppData\Local\Temp\ccIEDY99.s 			page 124


 5523      4E444943 
 5524              	.LASF191:
 5525 1415 4359424C 		.ascii	"CYBLE_DIS_SOFTWARE_REV\000"
 5525      455F4449 
 5525      535F534F 
 5525      46545741 
 5525      52455F52 
 5526              	.LASF68:
 5527 142c 4359424C 		.ascii	"CYBLE_EVT_GATTC_STOP_CMD_COMPLETE\000"
 5527      455F4556 
 5527      545F4741 
 5527      5454435F 
 5527      53544F50 
 5528              	.LASF311:
 5529 144e 4359424C 		.ascii	"CYBLE_EVT_CPSS_CHAR_WRITE\000"
 5529      455F4556 
 5529      545F4350 
 5529      53535F43 
 5529      4841525F 
 5530              	.LASF385:
 5531 1468 4359424C 		.ascii	"CYBLE_EVT_HRSS_ENERGY_EXPENDED_RESET\000"
 5531      455F4556 
 5531      545F4852 
 5531      53535F45 
 5531      4E455247 
 5532              	.LASF152:
 5533 148d 4359424C 		.ascii	"CYBLE_GATT_ERR_ANCS_ACTION_FAILED\000"
 5533      455F4741 
 5533      54545F45 
 5533      52525F41 
 5533      4E43535F 
 5534              	.LASF187:
 5535 14af 4359424C 		.ascii	"CYBLE_DIS_MODEL_NUMBER\000"
 5535      455F4449 
 5535      535F4D4F 
 5535      44454C5F 
 5535      4E554D42 
 5536              	.LASF341:
 5537 14c6 4359424C 		.ascii	"CYBLE_EVT_ESSS_NOTIFICATION_DISABLED\000"
 5537      455F4556 
 5537      545F4553 
 5537      53535F4E 
 5537      4F544946 
 5538              	.LASF184:
 5539 14eb 4359424C 		.ascii	"CYBLE_GATTS_DB_T\000"
 5539      455F4741 
 5539      5454535F 
 5539      44425F54 
 5539      00
 5540              	.LASF490:
 5541 14fc 4359424C 		.ascii	"CYBLE_EVT_WPTSS_NOTIFICATION_DISABLED\000"
 5541      455F4556 
 5541      545F5750 
 5541      5453535F 
 5541      4E4F5449 
 5542              	.LASF519:
 5543 1522 63686172 		.ascii	"charValueHandle\000"
ARM GAS  C:\Users\akita\AppData\Local\Temp\ccIEDY99.s 			page 125


 5543      56616C75 
 5543      6548616E 
 5543      646C6500 
 5544              	.LASF281:
 5545 1532 4359424C 		.ascii	"CYBLE_EVT_BLSS_NOTIFICATION_ENABLED\000"
 5545      455F4556 
 5545      545F424C 
 5545      53535F4E 
 5545      4F544946 
 5546              	.LASF192:
 5547 1556 4359424C 		.ascii	"CYBLE_DIS_SYSTEM_ID\000"
 5547      455F4449 
 5547      535F5359 
 5547      5354454D 
 5547      5F494400 
 5548              	.LASF383:
 5549 156a 4359424C 		.ascii	"CYBLE_EVT_HPSC_WRITE_DESCR_RESPONSE\000"
 5549      455F4556 
 5549      545F4850 
 5549      53435F57 
 5549      52495445 
 5550              	.LASF504:
 5551 158e 4359424C 		.ascii	"CYBLE_EVT_WSSC_INDICATION\000"
 5551      455F4556 
 5551      545F5753 
 5551      53435F49 
 5551      4E444943 
 5552              	.LASF111:
 5553 15a8 4359424C 		.ascii	"CYBLE_ERROR_CONTROLLER_BUSY\000"
 5553      455F4552 
 5553      524F525F 
 5553      434F4E54 
 5553      524F4C4C 
 5554              	.LASF86:
 5555 15c4 4359424C 		.ascii	"CYBLE_ERROR_INVALID_PARAMETER\000"
 5555      455F4552 
 5555      524F525F 
 5555      494E5641 
 5555      4C49445F 
 5556              	.LASF348:
 5557 15e2 4359424C 		.ascii	"CYBLE_EVT_ESSC_INDICATION\000"
 5557      455F4556 
 5557      545F4553 
 5557      53435F49 
 5557      4E444943 
 5558              	.LASF255:
 5559 15fc 4359424C 		.ascii	"CYBLE_EVT_ANCSC_WRITE_DESCR_RESPONSE\000"
 5559      455F4556 
 5559      545F414E 
 5559      4353435F 
 5559      57524954 
 5560              	.LASF458:
 5561 1621 4359424C 		.ascii	"CYBLE_EVT_RSCSC_WRITE_CHAR_RESPONSE\000"
 5561      455F4556 
 5561      545F5253 
 5561      4353435F 
 5561      57524954 
ARM GAS  C:\Users\akita\AppData\Local\Temp\ccIEDY99.s 			page 126


 5562              	.LASF474:
 5563 1645 4359424C 		.ascii	"CYBLE_EVT_TPSC_WRITE_DESCR_RESPONSE\000"
 5563      455F4556 
 5563      545F5450 
 5563      53435F57 
 5563      52495445 
 5564              	.LASF320:
 5565 1669 4359424C 		.ascii	"CYBLE_EVT_CSCSS_NOTIFICATION_DISABLED\000"
 5565      455F4556 
 5565      545F4353 
 5565      4353535F 
 5565      4E4F5449 
 5566              	.LASF331:
 5567 168f 4359424C 		.ascii	"CYBLE_EVT_CTSS_NOTIFICATION_ENABLED\000"
 5567      455F4556 
 5567      545F4354 
 5567      53535F4E 
 5567      4F544946 
 5568              	.LASF452:
 5569 16b3 4359424C 		.ascii	"CYBLE_EVT_RSCSS_INDICATION_DISABLED\000"
 5569      455F4556 
 5569      545F5253 
 5569      4353535F 
 5569      494E4449 
 5570              	.LASF494:
 5571 16d7 4359424C 		.ascii	"CYBLE_EVT_WPTSS_WRITE_CHAR\000"
 5571      455F4556 
 5571      545F5750 
 5571      5453535F 
 5571      57524954 
 5572              	.LASF414:
 5573 16f2 4359424C 		.ascii	"CYBLE_EVT_LLSS_WRITE_CHAR_REQ\000"
 5573      455F4556 
 5573      545F4C4C 
 5573      53535F57 
 5573      52495445 
 5574              	.LASF88:
 5575 1710 4359424C 		.ascii	"CYBLE_ERROR_MEMORY_ALLOCATION_FAILED\000"
 5575      455F4552 
 5575      524F525F 
 5575      4D454D4F 
 5575      52595F41 
 5576              	.LASF391:
 5577 1735 4359424C 		.ascii	"CYBLE_EVT_HRSC_READ_DESCR_RESPONSE\000"
 5577      455F4556 
 5577      545F4852 
 5577      53435F52 
 5577      4541445F 
 5578              	.LASF319:
 5579 1758 4359424C 		.ascii	"CYBLE_EVT_CSCSS_NOTIFICATION_ENABLED\000"
 5579      455F4556 
 5579      545F4353 
 5579      4353535F 
 5579      4E4F5449 
 5580              	.LASF517:
 5581 177d 61747472 		.ascii	"attrValue\000"
 5581      56616C75 
ARM GAS  C:\Users\akita\AppData\Local\Temp\ccIEDY99.s 			page 127


 5581      6500
 5582              	.LASF550:
 5583 1787 47656E65 		.ascii	"Generated_Source\\PSoC4\\BLE_hids.c\000"
 5583      72617465 
 5583      645F536F 
 5583      75726365 
 5583      5C50536F 
 5584              	.LASF379:
 5585 17a9 4359424C 		.ascii	"CYBLE_EVT_HPSS_CHAR_WRITE\000"
 5585      455F4556 
 5585      545F4850 
 5585      53535F43 
 5585      4841525F 
 5586              	.LASF371:
 5587 17c3 4359424C 		.ascii	"CYBLE_EVT_HIDSS_REPORT_CHAR_WRITE\000"
 5587      455F4556 
 5587      545F4849 
 5587      4453535F 
 5587      5245504F 
 5588              	.LASF271:
 5589 17e5 4359424C 		.ascii	"CYBLE_EVT_BCSS_INDICATION_ENABLED\000"
 5589      455F4556 
 5589      545F4243 
 5589      53535F49 
 5589      4E444943 
 5590              	.LASF143:
 5591 1807 4359424C 		.ascii	"CYBLE_GATTS_ERR_CCCD_IMPROPERLY_CONFIGURED\000"
 5591      455F4741 
 5591      5454535F 
 5591      4552525F 
 5591      43434344 
 5592              	.LASF498:
 5593 1832 4359424C 		.ascii	"CYBLE_EVT_WPTSC_READ_CHAR_RESPONSE\000"
 5593      455F4556 
 5593      545F5750 
 5593      5453435F 
 5593      52454144 
 5594              	.LASF212:
 5595 1855 4359424C 		.ascii	"CYBLE_HIDS_DESCR_COUNT\000"
 5595      455F4849 
 5595      44535F44 
 5595      45534352 
 5595      5F434F55 
 5596              	.LASF112:
 5597 186c 4359424C 		.ascii	"CYBLE_ERROR_MAX\000"
 5597      455F4552 
 5597      524F525F 
 5597      4D415800 
 5598              	.LASF426:
 5599 187c 4359424C 		.ascii	"CYBLE_EVT_LNSC_WRITE_CHAR_RESPONSE\000"
 5599      455F4556 
 5599      545F4C4E 
 5599      53435F57 
 5599      52495445 
 5600              	.LASF72:
 5601 189f 4359424C 		.ascii	"CYBLE_EVT_L2CAP_CONN_PARAM_UPDATE_RSP\000"
 5601      455F4556 
ARM GAS  C:\Users\akita\AppData\Local\Temp\ccIEDY99.s 			page 128


 5601      545F4C32 
 5601      4341505F 
 5601      434F4E4E 
 5602              	.LASF200:
 5603 18c5 4359424C 		.ascii	"CYBLE_HIDS_BOOT_KYBRD_IN_REP\000"
 5603      455F4849 
 5603      44535F42 
 5603      4F4F545F 
 5603      4B594252 
 5604              	.LASF479:
 5605 18e2 4359424C 		.ascii	"CYBLE_EVT_UDSS_NOTIFICATION_DISABLED\000"
 5605      455F4556 
 5605      545F5544 
 5605      53535F4E 
 5605      4F544946 
 5606              	.LASF330:
 5607 1907 4359424C 		.ascii	"CYBLE_EVT_CSCSC_WRITE_DESCR_RESPONSE\000"
 5607      455F4556 
 5607      545F4353 
 5607      4353435F 
 5607      57524954 
 5608              	.LASF481:
 5609 192c 4359424C 		.ascii	"CYBLE_EVT_UDSS_WRITE_CHAR\000"
 5609      455F4556 
 5609      545F5544 
 5609      53535F57 
 5609      52495445 
 5610              	.LASF445:
 5611 1946 4359424C 		.ascii	"CYBLE_EVT_PLXSC_READ_CHAR_RESPONSE\000"
 5611      455F4556 
 5611      545F504C 
 5611      5853435F 
 5611      52454144 
 5612              	.LASF272:
 5613 1969 4359424C 		.ascii	"CYBLE_EVT_BCSS_INDICATION_DISABLED\000"
 5613      455F4556 
 5613      545F4243 
 5613      53535F49 
 5613      4E444943 
 5614              	.LASF386:
 5615 198c 4359424C 		.ascii	"CYBLE_EVT_HRSS_NOTIFICATION_ENABLED\000"
 5615      455F4556 
 5615      545F4852 
 5615      53535F4E 
 5615      4F544946 
 5616              	.LASF137:
 5617 19b0 4359424C 		.ascii	"CYBLE_GATT_ERR_USER_DATA_ACCESS_NOT_PERMITTED\000"
 5617      455F4741 
 5617      54545F45 
 5617      52525F55 
 5617      5345525F 
 5618              	.LASF27:
 5619 19de 4359424C 		.ascii	"CYBLE_EVT_GAP_AUTH_COMPLETE\000"
 5619      455F4556 
 5619      545F4741 
 5619      505F4155 
 5619      54485F43 
ARM GAS  C:\Users\akita\AppData\Local\Temp\ccIEDY99.s 			page 129


 5620              	.LASF435:
 5621 19fa 4359424C 		.ascii	"CYBLE_EVT_PASSC_READ_DESCR_RESPONSE\000"
 5621      455F4556 
 5621      545F5041 
 5621      5353435F 
 5621      52454144 
 5622              	.LASF351:
 5623 1a1e 4359424C 		.ascii	"CYBLE_EVT_ESSC_READ_DESCR_RESPONSE\000"
 5623      455F4556 
 5623      545F4553 
 5623      53435F52 
 5623      4541445F 
 5624              	.LASF28:
 5625 1a41 4359424C 		.ascii	"CYBLE_EVT_GAP_AUTH_FAILED\000"
 5625      455F4556 
 5625      545F4741 
 5625      505F4155 
 5625      54485F46 
 5626              	.LASF370:
 5627 1a5b 4359424C 		.ascii	"CYBLE_EVT_HIDSS_EXIT_SUSPEND\000"
 5627      455F4556 
 5627      545F4849 
 5627      4453535F 
 5627      45584954 
 5628              	.LASF153:
 5629 1a78 4359424C 		.ascii	"CYBLE_GATT_ERR_CCCD_IMPROPERLY_CONFIGURED\000"
 5629      455F4741 
 5629      54545F45 
 5629      52525F43 
 5629      4343445F 
 5630              	.LASF89:
 5631 1aa2 4359424C 		.ascii	"CYBLE_ERROR_INSUFFICIENT_RESOURCES\000"
 5631      455F4552 
 5631      524F525F 
 5631      494E5355 
 5631      46464943 
 5632              	.LASF450:
 5633 1ac5 4359424C 		.ascii	"CYBLE_EVT_RSCSS_NOTIFICATION_DISABLED\000"
 5633      455F4556 
 5633      545F5253 
 5633      4353535F 
 5633      4E4F5449 
 5634              	.LASF141:
 5635 1aeb 4359424C 		.ascii	"CYBLE_GATT_ERR_OP_CODE_NOT_SUPPORTED\000"
 5635      455F4741 
 5635      54545F45 
 5635      52525F4F 
 5635      505F434F 
 5636              	.LASF374:
 5637 1b10 4359424C 		.ascii	"CYBLE_EVT_HIDSC_WRITE_CHAR_RESPONSE\000"
 5637      455F4556 
 5637      545F4849 
 5637      4453435F 
 5637      57524954 
 5638              	.LASF5:
 5639 1b34 6C6F6E67 		.ascii	"long unsigned int\000"
 5639      20756E73 
ARM GAS  C:\Users\akita\AppData\Local\Temp\ccIEDY99.s 			page 130


 5639      69676E65 
 5639      6420696E 
 5639      7400
 5640              	.LASF410:
 5641 1b46 4359424C 		.ascii	"CYBLE_EVT_IPSC_READ_DESCR_RESPONSE\000"
 5641      455F4556 
 5641      545F4950 
 5641      53435F52 
 5641      4541445F 
 5642              	.LASF405:
 5643 1b69 4359424C 		.ascii	"CYBLE_EVT_IASS_WRITE_CHAR_CMD\000"
 5643      455F4556 
 5643      545F4941 
 5643      53535F57 
 5643      52495445 
 5644              	.LASF520:
 5645 1b87 6C6F6348 		.ascii	"locHandleValuePair\000"
 5645      616E646C 
 5645      6556616C 
 5645      75655061 
 5645      697200
 5646              	.LASF430:
 5647 1b9a 4359424C 		.ascii	"CYBLE_EVT_PASSS_NOTIFICATION_ENABLED\000"
 5647      455F4556 
 5647      545F5041 
 5647      5353535F 
 5647      4E4F5449 
 5648              	.LASF433:
 5649 1bbf 4359424C 		.ascii	"CYBLE_EVT_PASSC_NOTIFICATION\000"
 5649      455F4556 
 5649      545F5041 
 5649      5353435F 
 5649      4E4F5449 
 5650              	.LASF109:
 5651 1bdc 4359424C 		.ascii	"CYBLE_ERROR_UNSUPPORTED_FEATURE_OR_PARAMETER_VALUE\000"
 5651      455F4552 
 5651      524F525F 
 5651      554E5355 
 5651      50504F52 
 5652              	.LASF491:
 5653 1c0f 4359424C 		.ascii	"CYBLE_EVT_WPTSS_INDICATION_ENABLED\000"
 5653      455F4556 
 5653      545F5750 
 5653      5453535F 
 5653      494E4449 
 5654              	.LASF439:
 5655 1c32 4359424C 		.ascii	"CYBLE_EVT_PLXSS_NOTIFICATION_DISABLED\000"
 5655      455F4556 
 5655      545F504C 
 5655      5853535F 
 5655      4E4F5449 
 5656              	.LASF261:
 5657 1c58 4359424C 		.ascii	"CYBLE_EVT_ANSC_READ_CHAR_RESPONSE\000"
 5657      455F4556 
 5657      545F414E 
 5657      53435F52 
 5657      4541445F 
ARM GAS  C:\Users\akita\AppData\Local\Temp\ccIEDY99.s 			page 131


 5658              	.LASF99:
 5659 1c7a 4359424C 		.ascii	"CYBLE_ERROR_L2CAP_PSM_ALREADY_REGISTERED\000"
 5659      455F4552 
 5659      524F525F 
 5659      4C324341 
 5659      505F5053 
 5660              	.LASF540:
 5661 1ca3 64656661 		.ascii	"defaultProtocol\000"
 5661      756C7450 
 5661      726F746F 
 5661      636F6C00 
 5662              	.LASF398:
 5663 1cb3 4359424C 		.ascii	"CYBLE_EVT_HTSS_CHAR_WRITE\000"
 5663      455F4556 
 5663      545F4854 
 5663      53535F43 
 5663      4841525F 
 5664              	.LASF177:
 5665 1ccd 61747456 		.ascii	"attValueUuid\000"
 5665      616C7565 
 5665      55756964 
 5665      00
 5666              	.LASF149:
 5667 1cda 4359424C 		.ascii	"CYBLE_GATT_ERR_ANCS_UNKNOWN_COMMAND\000"
 5667      455F4741 
 5667      54545F45 
 5667      52525F41 
 5667      4E43535F 
 5668              	.LASF265:
 5669 1cfe 4359424C 		.ascii	"CYBLE_EVT_BASS_NOTIFICATION_ENABLED\000"
 5669      455F4556 
 5669      545F4241 
 5669      53535F4E 
 5669      4F544946 
 5670              	.LASF224:
 5671 1d22 7265706F 		.ascii	"reportMapErrdHandle\000"
 5671      72744D61 
 5671      70457272 
 5671      6448616E 
 5671      646C6500 
 5672              	.LASF338:
 5673 1d36 4359424C 		.ascii	"CYBLE_EVT_CTSC_WRITE_CHAR_RESPONSE\000"
 5673      455F4556 
 5673      545F4354 
 5673      53435F57 
 5673      52495445 
 5674              	.LASF432:
 5675 1d59 4359424C 		.ascii	"CYBLE_EVT_PASSS_WRITE_CHAR\000"
 5675      455F4556 
 5675      545F5041 
 5675      5353535F 
 5675      57524954 
 5676              	.LASF315:
 5677 1d74 4359424C 		.ascii	"CYBLE_EVT_CPSC_WRITE_CHAR_RESPONSE\000"
 5677      455F4556 
 5677      545F4350 
 5677      53435F57 
ARM GAS  C:\Users\akita\AppData\Local\Temp\ccIEDY99.s 			page 132


 5677      52495445 
 5678              	.LASF188:
 5679 1d97 4359424C 		.ascii	"CYBLE_DIS_SERIAL_NUMBER\000"
 5679      455F4449 
 5679      535F5345 
 5679      5249414C 
 5679      5F4E554D 
 5680              	.LASF33:
 5681 1daf 4359424C 		.ascii	"CYBLE_EVT_GAP_CONNECTION_UPDATE_COMPLETE\000"
 5681      455F4556 
 5681      545F4741 
 5681      505F434F 
 5681      4E4E4543 
 5682              	.LASF300:
 5683 1dd8 4359424C 		.ascii	"CYBLE_EVT_CGMSC_READ_CHAR_RESPONSE\000"
 5683      455F4556 
 5683      545F4347 
 5683      4D53435F 
 5683      52454144 
 5684              	.LASF510:
 5685 1dfb 4359424C 		.ascii	"CYBLE_STATE_INITIALIZING\000"
 5685      455F5354 
 5685      4154455F 
 5685      494E4954 
 5685      49414C49 
 5686              	.LASF328:
 5687 1e14 4359424C 		.ascii	"CYBLE_EVT_CSCSC_WRITE_CHAR_RESPONSE\000"
 5687      455F4556 
 5687      545F4353 
 5687      4353435F 
 5687      57524954 
 5688              	.LASF76:
 5689 1e38 4359424C 		.ascii	"CYBLE_EVT_L2CAP_CBFC_DISCONN_IND\000"
 5689      455F4556 
 5689      545F4C32 
 5689      4341505F 
 5689      43424643 
 5690              	.LASF324:
 5691 1e59 4359424C 		.ascii	"CYBLE_EVT_CSCSS_CHAR_WRITE\000"
 5691      455F4556 
 5691      545F4353 
 5691      4353535F 
 5691      43484152 
 5692              	.LASF198:
 5693 1e74 4359424C 		.ascii	"CYBLE_HIDS_CONTROL_POINT\000"
 5693      455F4849 
 5693      44535F43 
 5693      4F4E5452 
 5693      4F4C5F50 
 5694              	.LASF441:
 5695 1e8d 4359424C 		.ascii	"CYBLE_EVT_PLXSS_INDICATION_DISABLED\000"
 5695      455F4556 
 5695      545F504C 
 5695      5853535F 
 5695      494E4449 
 5696              	.LASF457:
 5697 1eb1 4359424C 		.ascii	"CYBLE_EVT_RSCSC_READ_CHAR_RESPONSE\000"
ARM GAS  C:\Users\akita\AppData\Local\Temp\ccIEDY99.s 			page 133


 5697      455F4556 
 5697      545F5253 
 5697      4353435F 
 5697      52454144 
 5698              	.LASF25:
 5699 1ed4 4359424C 		.ascii	"CYBLE_EVT_GAP_PASSKEY_ENTRY_REQUEST\000"
 5699      455F4556 
 5699      545F4741 
 5699      505F5041 
 5699      53534B45 
 5700              	.LASF197:
 5701 1ef8 4359424C 		.ascii	"CYBLE_HIDS_INFORMATION\000"
 5701      455F4849 
 5701      44535F49 
 5701      4E464F52 
 5701      4D415449 
 5702              	.LASF380:
 5703 1f0f 4359424C 		.ascii	"CYBLE_EVT_HPSC_NOTIFICATION\000"
 5703      455F4556 
 5703      545F4850 
 5703      53435F4E 
 5703      4F544946 
 5704              	.LASF309:
 5705 1f2b 4359424C 		.ascii	"CYBLE_EVT_CPSS_BROADCAST_ENABLED\000"
 5705      455F4556 
 5705      545F4350 
 5705      53535F42 
 5705      524F4144 
 5706              	.LASF411:
 5707 1f4c 4359424C 		.ascii	"CYBLE_EVT_IPSC_WRITE_DESCR_RESPONSE\000"
 5707      455F4556 
 5707      545F4950 
 5707      53435F57 
 5707      52495445 
 5708              	.LASF361:
 5709 1f70 4359424C 		.ascii	"CYBLE_EVT_GLSC_READ_CHAR_RESPONSE\000"
 5709      455F4556 
 5709      545F474C 
 5709      53435F52 
 5709      4541445F 
 5710              	.LASF262:
 5711 1f92 4359424C 		.ascii	"CYBLE_EVT_ANSC_WRITE_CHAR_RESPONSE\000"
 5711      455F4556 
 5711      545F414E 
 5711      53435F57 
 5711      52495445 
 5712              	.LASF448:
 5713 1fb5 4359424C 		.ascii	"CYBLE_EVT_PLXSC_WRITE_DESCR_RESPONSE\000"
 5713      455F4556 
 5713      545F504C 
 5713      5853435F 
 5713      57524954 
 5714              	.LASF442:
 5715 1fda 4359424C 		.ascii	"CYBLE_EVT_PLXS_INDICATION_CONFIRMATION\000"
 5715      455F4556 
 5715      545F504C 
 5715      58535F49 
ARM GAS  C:\Users\akita\AppData\Local\Temp\ccIEDY99.s 			page 134


 5715      4E444943 
 5716              	.LASF399:
 5717 2001 4359424C 		.ascii	"CYBLE_EVT_HTSC_NOTIFICATION\000"
 5717      455F4556 
 5717      545F4854 
 5717      53435F4E 
 5717      4F544946 
 5718              	.LASF6:
 5719 201d 6C6F6E67 		.ascii	"long long int\000"
 5719      206C6F6E 
 5719      6720696E 
 5719      7400
 5720              	.LASF221:
 5721 202b 7265706F 		.ascii	"reportArray\000"
 5721      72744172 
 5721      72617900 
 5722              	.LASF552:
 5723 2037 4379426C 		.ascii	"CyBle_HidsInit\000"
 5723      655F4869 
 5723      6473496E 
 5723      697400
 5724              	.LASF472:
 5725 2046 4359424C 		.ascii	"CYBLE_EVT_TPSC_READ_CHAR_RESPONSE\000"
 5725      455F4556 
 5725      545F5450 
 5725      53435F52 
 5725      4541445F 
 5726              	.LASF194:
 5727 2068 4359424C 		.ascii	"CYBLE_DIS_PNP_ID\000"
 5727      455F4449 
 5727      535F504E 
 5727      505F4944 
 5727      00
 5728              	.LASF243:
 5729 2079 4359424C 		.ascii	"CYBLE_EVT_GATTC_CHAR_DUPLICATION\000"
 5729      455F4556 
 5729      545F4741 
 5729      5454435F 
 5729      43484152 
 5730              	.LASF356:
 5731 209a 4359424C 		.ascii	"CYBLE_EVT_GLSS_NOTIFICATION_ENABLED\000"
 5731      455F4556 
 5731      545F474C 
 5731      53535F4E 
 5731      4F544946 
 5732              	.LASF127:
 5733 20be 4359424C 		.ascii	"CYBLE_GATT_ERR_PREPARE_WRITE_QUEUE_FULL\000"
 5733      455F4741 
 5733      54545F45 
 5733      52525F50 
 5733      52455041 
 5734              	.LASF381:
 5735 20e6 4359424C 		.ascii	"CYBLE_EVT_HPSC_READ_CHAR_RESPONSE\000"
 5735      455F4556 
 5735      545F4850 
 5735      53435F52 
 5735      4541445F 
ARM GAS  C:\Users\akita\AppData\Local\Temp\ccIEDY99.s 			page 135


 5736              	.LASF100:
 5737 2108 4359424C 		.ascii	"CYBLE_ERROR_L2CAP_PSM_NOT_REGISTERED\000"
 5737      455F4552 
 5737      524F525F 
 5737      4C324341 
 5737      505F5053 
 5738              	.LASF90:
 5739 212d 4359424C 		.ascii	"CYBLE_ERROR_OOB_NOT_AVAILABLE\000"
 5739      455F4552 
 5739      524F525F 
 5739      4F4F425F 
 5739      4E4F545F 
 5740              	.LASF292:
 5741 214b 4359424C 		.ascii	"CYBLE_EVT_CGMSS_INDICATION_ENABLED\000"
 5741      455F4556 
 5741      545F4347 
 5741      4D53535F 
 5741      494E4449 
 5742              	.LASF13:
 5743 216e 646F7562 		.ascii	"double\000"
 5743      6C6500
 5744              	.LASF105:
 5745 2175 4359424C 		.ascii	"CYBLE_ERROR_DEVICE_ALREADY_EXISTS\000"
 5745      455F4552 
 5745      524F525F 
 5745      44455649 
 5745      43455F41 
 5746              	.LASF343:
 5747 2197 4359424C 		.ascii	"CYBLE_EVT_ESSS_INDICATION_DISABLED\000"
 5747      455F4556 
 5747      545F4553 
 5747      53535F49 
 5747      4E444943 
 5748              	.LASF82:
 5749 21ba 4359424C 		.ascii	"CYBLE_EVT_PENDING_FLASH_WRITE\000"
 5749      455F4556 
 5749      545F5045 
 5749      4E44494E 
 5749      475F464C 
 5750              	.LASF130:
 5751 21d8 4359424C 		.ascii	"CYBLE_GATT_ERR_INSUFFICIENT_ENC_KEY_SIZE\000"
 5751      455F4741 
 5751      54545F45 
 5751      52525F49 
 5751      4E535546 
 5752              	.LASF489:
 5753 2201 4359424C 		.ascii	"CYBLE_EVT_WPTSS_NOTIFICATION_ENABLED\000"
 5753      455F4556 
 5753      545F5750 
 5753      5453535F 
 5753      4E4F5449 
 5754              	.LASF154:
 5755 2226 4359424C 		.ascii	"CYBLE_GATT_ERR_PROCEDURE_ALREADY_IN_PROGRESS\000"
 5755      455F4741 
 5755      54545F45 
 5755      52525F50 
 5755      524F4345 
ARM GAS  C:\Users\akita\AppData\Local\Temp\ccIEDY99.s 			page 136


 5756              	.LASF428:
 5757 2253 4359424C 		.ascii	"CYBLE_EVT_LNSC_WRITE_DESCR_RESPONSE\000"
 5757      455F4556 
 5757      545F4C4E 
 5757      53435F57 
 5757      52495445 
 5758              	.LASF40:
 5759 2277 4359424C 		.ascii	"CYBLE_EVT_GAP_ENHANCE_CONN_COMPLETE\000"
 5759      455F4556 
 5759      545F4741 
 5759      505F454E 
 5759      48414E43 
 5760              	.LASF415:
 5761 229b 4359424C 		.ascii	"CYBLE_EVT_LLSC_READ_CHAR_RESPONSE\000"
 5761      455F4556 
 5761      545F4C4C 
 5761      53435F52 
 5761      4541445F 
 5762              	.LASF323:
 5763 22bd 4359424C 		.ascii	"CYBLE_EVT_CSCSS_INDICATION_CONFIRMATION\000"
 5763      455F4556 
 5763      545F4353 
 5763      4353535F 
 5763      494E4449 
 5764              	.LASF102:
 5765 22e5 4359424C 		.ascii	"CYBLE_ERROR_L2CAP_CHANNEL_NOT_FOUND\000"
 5765      455F4552 
 5765      524F525F 
 5765      4C324341 
 5765      505F4348 
 5766              	.LASF546:
 5767 2309 6379426C 		.ascii	"cyBle_gattDB\000"
 5767      655F6761 
 5767      74744442 
 5767      00
 5768              	.LASF209:
 5769 2316 4359424C 		.ascii	"CYBLE_HIDS_REPORT_CCCD\000"
 5769      455F4849 
 5769      44535F52 
 5769      45504F52 
 5769      545F4343 
 5770              	.LASF93:
 5771 232d 4359424C 		.ascii	"CYBLE_ERROR_REPEATED_ATTEMPTS\000"
 5771      455F4552 
 5771      524F525F 
 5771      52455045 
 5771      41544544 
 5772              	.LASF346:
 5773 234b 4359424C 		.ascii	"CYBLE_EVT_ESSS_DESCR_WRITE\000"
 5773      455F4556 
 5773      545F4553 
 5773      53535F44 
 5773      45534352 
 5774              	.LASF342:
 5775 2366 4359424C 		.ascii	"CYBLE_EVT_ESSS_INDICATION_ENABLED\000"
 5775      455F4556 
 5775      545F4553 
ARM GAS  C:\Users\akita\AppData\Local\Temp\ccIEDY99.s 			page 137


 5775      53535F49 
 5775      4E444943 
 5776              	.LASF12:
 5777 2388 666C6F61 		.ascii	"float\000"
 5777      7400
 5778              	.LASF466:
 5779 238e 4359424C 		.ascii	"CYBLE_EVT_SCPSC_NOTIFICATION\000"
 5779      455F4556 
 5779      545F5343 
 5779      5053435F 
 5779      4E4F5449 
 5780              	.LASF368:
 5781 23ab 4359424C 		.ascii	"CYBLE_EVT_HIDSS_REPORT_MODE_ENTER\000"
 5781      455F4556 
 5781      545F4849 
 5781      4453535F 
 5781      5245504F 
 5782              	.LASF347:
 5783 23cd 4359424C 		.ascii	"CYBLE_EVT_ESSC_NOTIFICATION\000"
 5783      455F4556 
 5783      545F4553 
 5783      53435F4E 
 5783      4F544946 
 5784              	.LASF106:
 5785 23e9 4359424C 		.ascii	"CYBLE_ERROR_FLASH_WRITE_NOT_PERMITED\000"
 5785      455F4552 
 5785      524F525F 
 5785      464C4153 
 5785      485F5752 
 5786              	.LASF366:
 5787 240e 4359424C 		.ascii	"CYBLE_EVT_HIDSS_NOTIFICATION_DISABLED\000"
 5787      455F4556 
 5787      545F4849 
 5787      4453535F 
 5787      4E4F5449 
 5788              	.LASF69:
 5789 2434 4359424C 		.ascii	"CYBLE_EVT_GATTS_READ_CHAR_VAL_ACCESS_REQ\000"
 5789      455F4556 
 5789      545F4741 
 5789      5454535F 
 5789      52454144 
 5790              	.LASF254:
 5791 245d 4359424C 		.ascii	"CYBLE_EVT_ANCSC_READ_DESCR_RESPONSE\000"
 5791      455F4556 
 5791      545F414E 
 5791      4353435F 
 5791      52454144 
 5792              	.LASF126:
 5793 2481 4359424C 		.ascii	"CYBLE_GATT_ERR_INSUFFICIENT_AUTHORIZATION\000"
 5793      455F4741 
 5793      54545F45 
 5793      52525F49 
 5793      4E535546 
 5794              	.LASF524:
 5795 24ab 64657363 		.ascii	"descrIndex\000"
 5795      72496E64 
 5795      657800
ARM GAS  C:\Users\akita\AppData\Local\Temp\ccIEDY99.s 			page 138


 5796              	.LASF164:
 5797 24b6 61747472 		.ascii	"attrHandle\000"
 5797      48616E64 
 5797      6C6500
 5798              	.LASF483:
 5799 24c1 4359424C 		.ascii	"CYBLE_EVT_UDSC_NOTIFICATION\000"
 5799      455F4556 
 5799      545F5544 
 5799      53435F4E 
 5799      4F544946 
 5800              	.LASF497:
 5801 24dd 4359424C 		.ascii	"CYBLE_EVT_WPTSC_WRITE_CHAR_RESPONSE\000"
 5801      455F4556 
 5801      545F5750 
 5801      5453435F 
 5801      57524954 
 5802              	.LASF169:
 5803 2501 4359424C 		.ascii	"CYBLE_GATTS_WRITE_REQ_PARAM_T\000"
 5803      455F4741 
 5803      5454535F 
 5803      57524954 
 5803      455F5245 
 5804              	.LASF8:
 5805 251f 756E7369 		.ascii	"unsigned int\000"
 5805      676E6564 
 5805      20696E74 
 5805      00
 5806              	.LASF61:
 5807 252c 4359424C 		.ascii	"CYBLE_EVT_GATTS_PREP_WRITE_REQ\000"
 5807      455F4556 
 5807      545F4741 
 5807      5454535F 
 5807      50524550 
 5808              	.LASF182:
 5809 254b 61747445 		.ascii	"attEndHandle\000"
 5809      6E644861 
 5809      6E646C65 
 5809      00
 5810              	.LASF123:
 5811 2558 4359424C 		.ascii	"CYBLE_GATT_ERR_INSUFFICIENT_AUTHENTICATION\000"
 5811      455F4741 
 5811      54545F45 
 5811      52525F49 
 5811      4E535546 
 5812              	.LASF290:
 5813 2583 4359424C 		.ascii	"CYBLE_EVT_BMSC_WRITE_CHAR_RESPONSE\000"
 5813      455F4556 
 5813      545F424D 
 5813      53435F57 
 5813      52495445 
 5814              	.LASF332:
 5815 25a6 4359424C 		.ascii	"CYBLE_EVT_CTSS_NOTIFICATION_DISABLED\000"
 5815      455F4556 
 5815      545F4354 
 5815      53535F4E 
 5815      4F544946 
 5816              	.LASF279:
ARM GAS  C:\Users\akita\AppData\Local\Temp\ccIEDY99.s 			page 139


 5817 25cb 4359424C 		.ascii	"CYBLE_EVT_BLSS_INDICATION_DISABLED\000"
 5817      455F4556 
 5817      545F424C 
 5817      53535F49 
 5817      4E444943 
 5818              	.LASF193:
 5819 25ee 4359424C 		.ascii	"CYBLE_DIS_REG_CERT_DATA\000"
 5819      455F4449 
 5819      535F5245 
 5819      475F4345 
 5819      52545F44 
 5820              	.LASF225:
 5821 2606 696E666F 		.ascii	"informationHandle\000"
 5821      726D6174 
 5821      696F6E48 
 5821      616E646C 
 5821      6500
 5822              	.LASF464:
 5823 2618 4359424C 		.ascii	"CYBLE_EVT_SCPSS_NOTIFICATION_DISABLED\000"
 5823      455F4556 
 5823      545F5343 
 5823      5053535F 
 5823      4E4F5449 
 5824              	.LASF344:
 5825 263e 4359424C 		.ascii	"CYBLE_EVT_ESSS_INDICATION_CONFIRMATION\000"
 5825      455F4556 
 5825      545F4553 
 5825      53535F49 
 5825      4E444943 
 5826              	.LASF440:
 5827 2665 4359424C 		.ascii	"CYBLE_EVT_PLXSS_INDICATION_ENABLED\000"
 5827      455F4556 
 5827      545F504C 
 5827      5853535F 
 5827      494E4449 
 5828              	.LASF140:
 5829 2688 4359424C 		.ascii	"CYBLE_GATTS_ERR_PROCEDURE_ALREADY_IN_PROGRESS\000"
 5829      455F4741 
 5829      5454535F 
 5829      4552525F 
 5829      50524F43 
 5830              	.LASF516:
 5831 26b6 61747472 		.ascii	"attrSize\000"
 5831      53697A65 
 5831      00
 5832              	.LASF231:
 5833 26bf 4359424C 		.ascii	"CYBLE_AUTHENTICATION_REQUEST_REPLY\000"
 5833      455F4155 
 5833      5448454E 
 5833      54494341 
 5833      54494F4E 
 5834              	.LASF98:
 5835 26e2 4359424C 		.ascii	"CYBLE_ERROR_L2CAP_PSM_WRONG_ENCODING\000"
 5835      455F4552 
 5835      524F525F 
 5835      4C324341 
 5835      505F5053 
ARM GAS  C:\Users\akita\AppData\Local\Temp\ccIEDY99.s 			page 140


 5836              	.LASF282:
 5837 2707 4359424C 		.ascii	"CYBLE_EVT_BLSS_NOTIFICATION_DISABLED\000"
 5837      455F4556 
 5837      545F424C 
 5837      53535F4E 
 5837      4F544946 
 5838              	.LASF128:
 5839 272c 4359424C 		.ascii	"CYBLE_GATT_ERR_ATTRIBUTE_NOT_FOUND\000"
 5839      455F4741 
 5839      54545F45 
 5839      52525F41 
 5839      54545249 
 5840              	.LASF402:
 5841 274f 4359424C 		.ascii	"CYBLE_EVT_HTSC_WRITE_CHAR_RESPONSE\000"
 5841      455F4556 
 5841      545F4854 
 5841      53435F57 
 5841      52495445 
 5842              	.LASF384:
 5843 2772 4359424C 		.ascii	"CYBLE_EVT_HPSC_WRITE_CHAR_RESPONSE\000"
 5843      455F4556 
 5843      545F4850 
 5843      53435F57 
 5843      52495445 
 5844              	.LASF216:
 5845 2795 72726448 		.ascii	"rrdHandle\000"
 5845      616E646C 
 5845      6500
 5846              	.LASF84:
 5847 279f 4359424C 		.ascii	"CYBLE_EVT_MAX\000"
 5847      455F4556 
 5847      545F4D41 
 5847      5800
 5848              	.LASF34:
 5849 27ad 4359424C 		.ascii	"CYBLE_EVT_GAPC_SCAN_START_STOP\000"
 5849      455F4556 
 5849      545F4741 
 5849      50435F53 
 5849      43414E5F 
 5850              	.LASF257:
 5851 27cc 4359424C 		.ascii	"CYBLE_EVT_ANSS_NOTIFICATION_ENABLED\000"
 5851      455F4556 
 5851      545F414E 
 5851      53535F4E 
 5851      4F544946 
 5852              	.LASF542:
 5853 27f0 6379426C 		.ascii	"cyBle_hids1ReportArray\000"
 5853      655F6869 
 5853      64733152 
 5853      65706F72 
 5853      74417272 
 5854              	.LASF58:
 5855 2807 4359424C 		.ascii	"CYBLE_EVT_GATTS_WRITE_REQ\000"
 5855      455F4556 
 5855      545F4741 
 5855      5454535F 
 5855      57524954 
ARM GAS  C:\Users\akita\AppData\Local\Temp\ccIEDY99.s 			page 141


 5856              	.LASF485:
 5857 2821 4359424C 		.ascii	"CYBLE_EVT_UDSC_WRITE_CHAR_RESPONSE\000"
 5857      455F4556 
 5857      545F5544 
 5857      53435F57 
 5857      52495445 
 5858              	.LASF496:
 5859 2844 4359424C 		.ascii	"CYBLE_EVT_WPTSC_INDICATION\000"
 5859      455F4556 
 5859      545F5750 
 5859      5453435F 
 5859      494E4449 
 5860              	.LASF26:
 5861 285f 4359424C 		.ascii	"CYBLE_EVT_GAP_PASSKEY_DISPLAY_REQUEST\000"
 5861      455F4556 
 5861      545F4741 
 5861      505F5041 
 5861      53534B45 
 5862              	.LASF114:
 5863 2885 4359424C 		.ascii	"CYBLE_ERROR_IND_DISABLED\000"
 5863      455F4552 
 5863      524F525F 
 5863      494E445F 
 5863      44495341 
 5864              	.LASF113:
 5865 289e 4359424C 		.ascii	"CYBLE_ERROR_NTF_DISABLED\000"
 5865      455F4552 
 5865      524F525F 
 5865      4E54465F 
 5865      44495341 
 5866              	.LASF214:
 5867 28b7 7265706F 		.ascii	"reportHandle\000"
 5867      72744861 
 5867      6E646C65 
 5867      00
 5868              	.LASF55:
 5869 28c4 4359424C 		.ascii	"CYBLE_EVT_GATTC_READ_RSP\000"
 5869      455F4556 
 5869      545F4741 
 5869      5454435F 
 5869      52454144 
 5870              	.LASF313:
 5871 28dd 4359424C 		.ascii	"CYBLE_EVT_CPSC_INDICATION\000"
 5871      455F4556 
 5871      545F4350 
 5871      53435F49 
 5871      4E444943 
 5872              	.LASF125:
 5873 28f7 4359424C 		.ascii	"CYBLE_GATT_ERR_INVALID_OFFSET\000"
 5873      455F4741 
 5873      54545F45 
 5873      52525F49 
 5873      4E56414C 
 5874              	.LASF339:
 5875 2915 4359424C 		.ascii	"CYBLE_EVT_DISC_READ_CHAR_RESPONSE\000"
 5875      455F4556 
 5875      545F4449 
ARM GAS  C:\Users\akita\AppData\Local\Temp\ccIEDY99.s 			page 142


 5875      53435F52 
 5875      4541445F 
 5876              	.LASF75:
 5877 2937 4359424C 		.ascii	"CYBLE_EVT_L2CAP_CBFC_CONN_CNF\000"
 5877      455F4556 
 5877      545F4C32 
 5877      4341505F 
 5877      43424643 
 5878              	.LASF230:
 5879 2955 4359424C 		.ascii	"CYBLE_HIDS_CHAR_VALUE_T\000"
 5879      455F4849 
 5879      44535F43 
 5879      4841525F 
 5879      56414C55 
 5880              	.LASF172:
 5881 296d 4359424C 		.ascii	"CYBLE_GATTS_ATT_GEN_VAL_LEN_T\000"
 5881      455F4741 
 5881      5454535F 
 5881      4154545F 
 5881      47454E5F 
 5882              	.LASF403:
 5883 298b 4359424C 		.ascii	"CYBLE_EVT_HTSC_READ_DESCR_RESPONSE\000"
 5883      455F4556 
 5883      545F4854 
 5883      53435F52 
 5883      4541445F 
 5884              	.LASF508:
 5885 29ae 4359424C 		.ascii	"CYBLE_DEBUG_EVT_BLESS_INT\000"
 5885      455F4445 
 5885      4255475F 
 5885      4556545F 
 5885      424C4553 
 5886              	.LASF155:
 5887 29c8 4359424C 		.ascii	"CYBLE_GATT_ERR_OUT_OF_RANGE\000"
 5887      455F4741 
 5887      54545F45 
 5887      52525F4F 
 5887      55545F4F 
 5888              	.LASF358:
 5889 29e4 4359424C 		.ascii	"CYBLE_EVT_GLSS_WRITE_CHAR\000"
 5889      455F4556 
 5889      545F474C 
 5889      53535F57 
 5889      52495445 
 5890              	.LASF295:
 5891 29fe 4359424C 		.ascii	"CYBLE_EVT_CGMSS_NOTIFICATION_ENABLED\000"
 5891      455F4556 
 5891      545F4347 
 5891      4D53535F 
 5891      4E4F5449 
 5892              	.LASF388:
 5893 2a23 4359424C 		.ascii	"CYBLE_EVT_HRSC_NOTIFICATION\000"
 5893      455F4556 
 5893      545F4852 
 5893      53435F4E 
 5893      4F544946 
 5894              	.LASF22:
ARM GAS  C:\Users\akita\AppData\Local\Temp\ccIEDY99.s 			page 143


 5895 2a3f 4359424C 		.ascii	"CYBLE_EVT_MEMORY_REQUEST\000"
 5895      455F4556 
 5895      545F4D45 
 5895      4D4F5259 
 5895      5F524551 
 5896              	.LASF535:
 5897 2a58 6C6F6352 		.ascii	"locReqHandle\000"
 5897      65714861 
 5897      6E646C65 
 5897      00
 5898              	.LASF453:
 5899 2a65 4359424C 		.ascii	"CYBLE_EVT_RSCSS_INDICATION_CONFIRMATION\000"
 5899      455F4556 
 5899      545F5253 
 5899      4353535F 
 5899      494E4449 
 5900              	.LASF375:
 5901 2a8d 4359424C 		.ascii	"CYBLE_EVT_HIDSC_READ_DESCR_RESPONSE\000"
 5901      455F4556 
 5901      545F4849 
 5901      4453435F 
 5901      52454144 
 5902              	.LASF537:
 5903 2ab1 6E746652 		.ascii	"ntfReqParam\000"
 5903      65715061 
 5903      72616D00 
 5904              	.LASF389:
 5905 2abd 4359424C 		.ascii	"CYBLE_EVT_HRSC_READ_CHAR_RESPONSE\000"
 5905      455F4556 
 5905      545F4852 
 5905      53435F52 
 5905      4541445F 
 5906              	.LASF267:
 5907 2adf 4359424C 		.ascii	"CYBLE_EVT_BASC_NOTIFICATION\000"
 5907      455F4556 
 5907      545F4241 
 5907      53435F4E 
 5907      4F544946 
 5908              	.LASF32:
 5909 2afb 4359424C 		.ascii	"CYBLE_EVT_GAP_ENCRYPT_CHANGE\000"
 5909      455F4556 
 5909      545F4741 
 5909      505F454E 
 5909      43525950 
 5910              	.LASF429:
 5911 2b18 4359424C 		.ascii	"CYBLE_EVT_NDCSC_READ_CHAR_RESPONSE\000"
 5911      455F4556 
 5911      545F4E44 
 5911      4353435F 
 5911      52454144 
 5912              	.LASF244:
 5913 2b3b 4359424C 		.ascii	"CYBLE_EVT_GATTC_DESCR_DUPLICATION\000"
 5913      455F4556 
 5913      545F4741 
 5913      5454435F 
 5913      44455343 
 5914              	.LASF49:
ARM GAS  C:\Users\akita\AppData\Local\Temp\ccIEDY99.s 			page 144


 5915 2b5d 4359424C 		.ascii	"CYBLE_EVT_GATTS_XCNHG_MTU_REQ\000"
 5915      455F4556 
 5915      545F4741 
 5915      5454535F 
 5915      58434E48 
 5916              	.LASF378:
 5917 2b7b 4359424C 		.ascii	"CYBLE_EVT_HPSS_NOTIFICATION_DISABLED\000"
 5917      455F4556 
 5917      545F4850 
 5917      53535F4E 
 5917      4F544946 
 5918              	.LASF210:
 5919 2ba0 4359424C 		.ascii	"CYBLE_HIDS_REPORT_RRD\000"
 5919      455F4849 
 5919      44535F52 
 5919      45504F52 
 5919      545F5252 
 5920              	.LASF478:
 5921 2bb6 4359424C 		.ascii	"CYBLE_EVT_UDSS_NOTIFICATION_ENABLED\000"
 5921      455F4556 
 5921      545F5544 
 5921      53535F4E 
 5921      4F544946 
 5922              	.LASF419:
 5923 2bda 4359424C 		.ascii	"CYBLE_EVT_LNSS_INDICATION_CONFIRMED\000"
 5923      455F4556 
 5923      545F4C4E 
 5923      53535F49 
 5923      4E444943 
 5924              	.LASF502:
 5925 2bfe 4359424C 		.ascii	"CYBLE_EVT_WSSS_INDICATION_DISABLED\000"
 5925      455F4556 
 5925      545F5753 
 5925      53535F49 
 5925      4E444943 
 5926              	.LASF264:
 5927 2c21 4359424C 		.ascii	"CYBLE_EVT_ANSC_WRITE_DESCR_RESPONSE\000"
 5927      455F4556 
 5927      545F414E 
 5927      53435F57 
 5927      52495445 
 5928              	.LASF425:
 5929 2c45 4359424C 		.ascii	"CYBLE_EVT_LNSC_READ_CHAR_RESPONSE\000"
 5929      455F4556 
 5929      545F4C4E 
 5929      53435F52 
 5929      4541445F 
 5930              	.LASF186:
 5931 2c67 4359424C 		.ascii	"CYBLE_DIS_MANUFACTURER_NAME\000"
 5931      455F4449 
 5931      535F4D41 
 5931      4E554641 
 5931      43545552 
 5932              	.LASF355:
 5933 2c83 4359424C 		.ascii	"CYBLE_EVT_GLSS_INDICATION_CONFIRMED\000"
 5933      455F4556 
 5933      545F474C 
ARM GAS  C:\Users\akita\AppData\Local\Temp\ccIEDY99.s 			page 145


 5933      53535F49 
 5933      4E444943 
 5934              	.LASF514:
 5935 2ca7 4359424C 		.ascii	"CYBLE_STATE_T\000"
 5935      455F5354 
 5935      4154455F 
 5935      5400
 5936              	.LASF235:
 5937 2cb5 4359424C 		.ascii	"CYBLE_EVT_GATTS_INDICATION_ENABLED\000"
 5937      455F4556 
 5937      545F4741 
 5937      5454535F 
 5937      494E4449 
 5938              	.LASF7:
 5939 2cd8 6C6F6E67 		.ascii	"long long unsigned int\000"
 5939      206C6F6E 
 5939      6720756E 
 5939      7369676E 
 5939      65642069 
 5940              	.LASF119:
 5941 2cef 4359424C 		.ascii	"CYBLE_GATT_ERR_INVALID_HANDLE\000"
 5941      455F4741 
 5941      54545F45 
 5941      52525F49 
 5941      4E56414C 
 5942              	.LASF18:
 5943 2d0d 4359424C 		.ascii	"CYBLE_EVT_TIMEOUT\000"
 5943      455F4556 
 5943      545F5449 
 5943      4D454F55 
 5943      5400
 5944              	.LASF336:
 5945 2d1f 4359424C 		.ascii	"CYBLE_EVT_CTSC_READ_DESCR_RESPONSE\000"
 5945      455F4556 
 5945      545F4354 
 5945      53435F52 
 5945      4541445F 
 5946              	.LASF220:
 5947 2d42 7265706F 		.ascii	"reportCount\000"
 5947      7274436F 
 5947      756E7400 
 5948              	.LASF142:
 5949 2d4e 4359424C 		.ascii	"CYBLE_GATT_ERR_MISSING_CRC\000"
 5949      455F4741 
 5949      54545F45 
 5949      52525F4D 
 5949      49535349 
 5950              	.LASF116:
 5951 2d69 4359424C 		.ascii	"CYBLE_ERROR_INVALID_STATE\000"
 5951      455F4552 
 5951      524F525F 
 5951      494E5641 
 5951      4C49445F 
 5952              	.LASF157:
 5953 2d83 4359424C 		.ascii	"CYBLE_GATT_DB_ATTR_HANDLE_T\000"
 5953      455F4741 
 5953      54545F44 
ARM GAS  C:\Users\akita\AppData\Local\Temp\ccIEDY99.s 			page 146


 5953      425F4154 
 5953      54525F48 
 5954              	.LASF78:
 5955 2d9f 4359424C 		.ascii	"CYBLE_EVT_L2CAP_CBFC_DATA_READ\000"
 5955      455F4556 
 5955      545F4C32 
 5955      4341505F 
 5955      43424643 
 5956              	.LASF118:
 5957 2dbe 4359424C 		.ascii	"CYBLE_GATT_ERR_NONE\000"
 5957      455F4741 
 5957      54545F45 
 5957      52525F4E 
 5957      4F4E4500 
 5958              	.LASF163:
 5959 2dd2 76616C75 		.ascii	"value\000"
 5959      6500
 5960              	.LASF312:
 5961 2dd8 4359424C 		.ascii	"CYBLE_EVT_CPSC_NOTIFICATION\000"
 5961      455F4556 
 5961      545F4350 
 5961      53435F4E 
 5961      4F544946 
 5962              	.LASF287:
 5963 2df4 4359424C 		.ascii	"CYBLE_EVT_BLSC_WRITE_DESCR_RESPONSE\000"
 5963      455F4556 
 5963      545F424C 
 5963      53435F57 
 5963      52495445 
 5964              	.LASF183:
 5965 2e18 61747456 		.ascii	"attValue\000"
 5965      616C7565 
 5965      00
 5966              	.LASF424:
 5967 2e21 4359424C 		.ascii	"CYBLE_EVT_LNSC_NOTIFICATION\000"
 5967      455F4556 
 5967      545F4C4E 
 5967      53435F4E 
 5967      4F544946 
 5968              	.LASF522:
 5969 2e3d 4379426C 		.ascii	"CyBle_HidssGetCharacteristicValue\000"
 5969      655F4869 
 5969      64737347 
 5969      65744368 
 5969      61726163 
 5970              	.LASF222:
 5971 2e5f 626F6F74 		.ascii	"bootReportArray\000"
 5971      5265706F 
 5971      72744172 
 5971      72617900 
 5972              	.LASF110:
 5973 2e6f 4359424C 		.ascii	"CYBLE_ERROR_FLASH_WRITE\000"
 5973      455F4552 
 5973      524F525F 
 5973      464C4153 
 5973      485F5752 
 5974              	.LASF354:
ARM GAS  C:\Users\akita\AppData\Local\Temp\ccIEDY99.s 			page 147


 5975 2e87 4359424C 		.ascii	"CYBLE_EVT_GLSS_INDICATION_DISABLED\000"
 5975      455F4556 
 5975      545F474C 
 5975      53535F49 
 5975      4E444943 
 5976              	.LASF139:
 5977 2eaa 4359424C 		.ascii	"CYBLE_GATT_ERR_HTS_OUT_OF_RANGE\000"
 5977      455F4741 
 5977      54545F45 
 5977      52525F48 
 5977      54535F4F 
 5978              	.LASF532:
 5979 2eca 7265706F 		.ascii	"reportIndex\000"
 5979      7274496E 
 5979      64657800 
 5980              	.LASF242:
 5981 2ed6 4359424C 		.ascii	"CYBLE_EVT_GATTC_SRVC_DUPLICATION\000"
 5981      455F4556 
 5981      545F4741 
 5981      5454435F 
 5981      53525643 
 5982              	.LASF417:
 5983 2ef7 4359424C 		.ascii	"CYBLE_EVT_LNSS_INDICATION_ENABLED\000"
 5983      455F4556 
 5983      545F4C4E 
 5983      53535F49 
 5983      4E444943 
 5984              	.LASF529:
 5985 2f19 4379426C 		.ascii	"CyBle_HidssWriteEventHandler\000"
 5985      655F4869 
 5985      64737357 
 5985      72697465 
 5985      4576656E 
 5986              	.LASF549:
 5987 2f36 474E5520 		.ascii	"GNU C 4.9.3 20150303 (release) [ARM/embedded-4_9-br"
 5987      4320342E 
 5987      392E3320 
 5987      32303135 
 5987      30333033 
 5988 2f69 616E6368 		.ascii	"anch revision 221220] -mcpu=cortex-m0 -mthumb -g -O"
 5988      20726576 
 5988      6973696F 
 5988      6E203232 
 5988      31323230 
 5989 2f9c 30202D66 		.ascii	"0 -ffunction-sections -ffat-lto-objects\000"
 5989      66756E63 
 5989      74696F6E 
 5989      2D736563 
 5989      74696F6E 
 5990              	.LASF250:
 5991 2fc4 4359424C 		.ascii	"CYBLE_EVT_ANCSS_NOTIFICATION_DISABLED\000"
 5991      455F4556 
 5991      545F414E 
 5991      4353535F 
 5991      4E4F5449 
 5992              	.LASF226:
 5993 2fea 636F6E74 		.ascii	"controlPointHandle\000"
ARM GAS  C:\Users\akita\AppData\Local\Temp\ccIEDY99.s 			page 148


 5993      726F6C50 
 5993      6F696E74 
 5993      48616E64 
 5993      6C6500
 5994              	.LASF201:
 5995 2ffd 4359424C 		.ascii	"CYBLE_HIDS_BOOT_KYBRD_OUT_REP\000"
 5995      455F4849 
 5995      44535F42 
 5995      4F4F545F 
 5995      4B594252 
 5996              	.LASF167:
 5997 301b 636F6E6E 		.ascii	"connHandle\000"
 5997      48616E64 
 5997      6C6500
 5998              	.LASF170:
 5999 3026 61637475 		.ascii	"actualLength\000"
 5999      616C4C65 
 5999      6E677468 
 5999      00
 6000              	.LASF266:
 6001 3033 4359424C 		.ascii	"CYBLE_EVT_BASS_NOTIFICATION_DISABLED\000"
 6001      455F4556 
 6001      545F4241 
 6001      53535F4E 
 6001      4F544946 
 6002              	.LASF437:
 6003 3058 4359424C 		.ascii	"CYBLE_EVT_PLXSS_WRITE_CHAR\000"
 6003      455F4556 
 6003      545F504C 
 6003      5853535F 
 6003      57524954 
 6004              	.LASF304:
 6005 3073 4359424C 		.ascii	"CYBLE_EVT_CPSS_NOTIFICATION_ENABLED\000"
 6005      455F4556 
 6005      545F4350 
 6005      53535F4E 
 6005      4F544946 
 6006              	.LASF473:
 6007 3097 4359424C 		.ascii	"CYBLE_EVT_TPSC_READ_DESCR_RESPONSE\000"
 6007      455F4556 
 6007      545F5450 
 6007      53435F52 
 6007      4541445F 
 6008              	.LASF525:
 6009 30ba 6C6F6344 		.ascii	"locDescrHandle\000"
 6009      65736372 
 6009      48616E64 
 6009      6C6500
 6010              	.LASF544:
 6011 30c9 6379426C 		.ascii	"cyBle_pendingFlashWrite\000"
 6011      655F7065 
 6011      6E64696E 
 6011      67466C61 
 6011      73685772 
 6012              	.LASF488:
 6013 30e1 4359424C 		.ascii	"CYBLE_EVT_UDSC_ERROR_RESPONSE\000"
 6013      455F4556 
ARM GAS  C:\Users\akita\AppData\Local\Temp\ccIEDY99.s 			page 149


 6013      545F5544 
 6013      53435F45 
 6013      52524F52 
 6014              	.LASF53:
 6015 30ff 4359424C 		.ascii	"CYBLE_EVT_GATTC_FIND_INFO_RSP\000"
 6015      455F4556 
 6015      545F4741 
 6015      5454435F 
 6015      46494E44 
 6016              	.LASF52:
 6017 311d 4359424C 		.ascii	"CYBLE_EVT_GATTC_READ_BY_TYPE_RSP\000"
 6017      455F4556 
 6017      545F4741 
 6017      5454435F 
 6017      52454144 
 6018              	.LASF431:
 6019 313e 4359424C 		.ascii	"CYBLE_EVT_PASSS_NOTIFICATION_DISABLED\000"
 6019      455F4556 
 6019      545F5041 
 6019      5353535F 
 6019      4E4F5449 
 6020              	.LASF302:
 6021 3164 4359424C 		.ascii	"CYBLE_EVT_CGMSC_READ_DESCR_RESPONSE\000"
 6021      455F4556 
 6021      545F4347 
 6021      4D53435F 
 6021      52454144 
 6022              	.LASF373:
 6023 3188 4359424C 		.ascii	"CYBLE_EVT_HIDSC_READ_CHAR_RESPONSE\000"
 6023      455F4556 
 6023      545F4849 
 6023      4453435F 
 6023      52454144 
 6024              	.LASF144:
 6025 31ab 4359424C 		.ascii	"CYBLE_GATTS_ERR_OPERATION_FAILED\000"
 6025      455F4741 
 6025      5454535F 
 6025      4552525F 
 6025      4F504552 
 6026              	.LASF518:
 6027 31cc 61706952 		.ascii	"apiResult\000"
 6027      6573756C 
 6027      7400
 6028              	.LASF538:
 6029 31d6 4379426C 		.ascii	"CyBle_HidsRegisterAttrCallback\000"
 6029      655F4869 
 6029      64735265 
 6029      67697374 
 6029      65724174 
 6030              	.LASF548:
 6031 31f5 6379426C 		.ascii	"cyBle_state\000"
 6031      655F7374 
 6031      61746500 
 6032              	.LASF533:
 6033 3201 6C6F6343 		.ascii	"locCharIndex\000"
 6033      68617249 
 6033      6E646578 
ARM GAS  C:\Users\akita\AppData\Local\Temp\ccIEDY99.s 			page 150


 6033      00
 6034              	.LASF470:
 6035 320e 4359424C 		.ascii	"CYBLE_EVT_TPSS_NOTIFICATION_DISABLED\000"
 6035      455F4556 
 6035      545F5450 
 6035      53535F4E 
 6035      4F544946 
 6036              	.LASF467:
 6037 3233 4359424C 		.ascii	"CYBLE_EVT_SCPSC_READ_DESCR_RESPONSE\000"
 6037      455F4556 
 6037      545F5343 
 6037      5053435F 
 6037      52454144 
 6038              	.LASF392:
 6039 3257 4359424C 		.ascii	"CYBLE_EVT_HRSC_WRITE_DESCR_RESPONSE\000"
 6039      455F4556 
 6039      545F4852 
 6039      53435F57 
 6039      52495445 
 6040              	.LASF422:
 6041 327b 4359424C 		.ascii	"CYBLE_EVT_LNSS_WRITE_CHAR\000"
 6041      455F4556 
 6041      545F4C4E 
 6041      53535F57 
 6041      52495445 
 6042              	.LASF345:
 6043 3295 4359424C 		.ascii	"CYBLE_EVT_ESSS_CHAR_WRITE\000"
 6043      455F4556 
 6043      545F4553 
 6043      53535F43 
 6043      4841525F 
 6044              	.LASF59:
 6045 32af 4359424C 		.ascii	"CYBLE_EVT_GATTC_WRITE_RSP\000"
 6045      455F4556 
 6045      545F4741 
 6045      5454435F 
 6045      57524954 
 6046              	.LASF340:
 6047 32c9 4359424C 		.ascii	"CYBLE_EVT_ESSS_NOTIFICATION_ENABLED\000"
 6047      455F4556 
 6047      545F4553 
 6047      53535F4E 
 6047      4F544946 
 6048              	.LASF536:
 6049 32ed 4379426C 		.ascii	"CyBle_HidssSendNotification\000"
 6049      655F4869 
 6049      64737353 
 6049      656E644E 
 6049      6F746966 
 6050              	.LASF513:
 6051 3309 4359424C 		.ascii	"CYBLE_STATE_DISCONNECTED\000"
 6051      455F5354 
 6051      4154455F 
 6051      44495343 
 6051      4F4E4E45 
 6052              	.LASF178:
 6053 3322 4359424C 		.ascii	"CYBLE_GATTS_ATT_VALUE_T\000"
ARM GAS  C:\Users\akita\AppData\Local\Temp\ccIEDY99.s 			page 151


 6053      455F4741 
 6053      5454535F 
 6053      4154545F 
 6053      56414C55 
 6054              	.LASF202:
 6055 333a 4359424C 		.ascii	"CYBLE_HIDS_BOOT_MOUSE_IN_REP\000"
 6055      455F4849 
 6055      44535F42 
 6055      4F4F545F 
 6055      4D4F5553 
 6056              	.LASF455:
 6057 3357 4359424C 		.ascii	"CYBLE_EVT_RSCSC_NOTIFICATION\000"
 6057      455F4556 
 6057      545F5253 
 6057      4353435F 
 6057      4E4F5449 
 6058              	.LASF175:
 6059 3374 4359424C 		.ascii	"CYBLE_GATTS_ATT_PACK_VAL_LEN_T\000"
 6059      455F4741 
 6059      5454535F 
 6059      4154545F 
 6059      5041434B 
 6060              	.LASF29:
 6061 3393 4359424C 		.ascii	"CYBLE_EVT_GAPP_ADVERTISEMENT_START_STOP\000"
 6061      455F4556 
 6061      545F4741 
 6061      50505F41 
 6061      44564552 
 6062              	.LASF280:
 6063 33bb 4359424C 		.ascii	"CYBLE_EVT_BLSS_INDICATION_CONFIRMED\000"
 6063      455F4556 
 6063      545F424C 
 6063      53535F49 
 6063      4E444943 
 6064              	.LASF499:
 6065 33df 4359424C 		.ascii	"CYBLE_EVT_WPTSC_READ_DESCR_RESPONSE\000"
 6065      455F4556 
 6065      545F5750 
 6065      5453435F 
 6065      52454144 
 6066              	.LASF252:
 6067 3403 4359424C 		.ascii	"CYBLE_EVT_ANCSC_NOTIFICATION\000"
 6067      455F4556 
 6067      545F414E 
 6067      4353435F 
 6067      4E4F5449 
 6068              	.LASF171:
 6069 3420 61747447 		.ascii	"attGenericVal\000"
 6069      656E6572 
 6069      69635661 
 6069      6C00
 6070              	.LASF301:
 6071 342e 4359424C 		.ascii	"CYBLE_EVT_CGMSC_WRITE_CHAR_RESPONSE\000"
 6071      455F4556 
 6071      545F4347 
 6071      4D53435F 
 6071      57524954 
ARM GAS  C:\Users\akita\AppData\Local\Temp\ccIEDY99.s 			page 152


 6072              	.LASF9:
 6073 3452 75696E74 		.ascii	"uint8\000"
 6073      3800
 6074              	.LASF401:
 6075 3458 4359424C 		.ascii	"CYBLE_EVT_HTSC_READ_CHAR_RESPONSE\000"
 6075      455F4556 
 6075      545F4854 
 6075      53435F52 
 6075      4541445F 
 6076              	.LASF37:
 6077 347a 4359424C 		.ascii	"CYBLE_EVT_GAP_KEYPRESS_NOTIFICATION\000"
 6077      455F4556 
 6077      545F4741 
 6077      505F4B45 
 6077      59505245 
 6078              	.LASF436:
 6079 349e 4359424C 		.ascii	"CYBLE_EVT_PASSC_WRITE_DESCR_RESPONSE\000"
 6079      455F4556 
 6079      545F5041 
 6079      5353435F 
 6079      57524954 
 6080              	.LASF523:
 6081 34c3 4379426C 		.ascii	"CyBle_HidssGetCharacteristicDescriptor\000"
 6081      655F4869 
 6081      64737347 
 6081      65744368 
 6081      61726163 
 6082              	.LASF2:
 6083 34ea 73686F72 		.ascii	"short int\000"
 6083      7420696E 
 6083      7400
 6084              	.LASF168:
 6085 34f4 68616E64 		.ascii	"handleValPair\000"
 6085      6C655661 
 6085      6C506169 
 6085      7200
 6086              	.LASF288:
 6087 3502 4359424C 		.ascii	"CYBLE_EVT_BMSS_WRITE_CHAR\000"
 6087      455F4556 
 6087      545F424D 
 6087      53535F57 
 6087      52495445 
 6088              	.LASF174:
 6089 351c 61747447 		.ascii	"attGenericValLen\000"
 6089      656E6572 
 6089      69635661 
 6089      6C4C656E 
 6089      00
 6090              	.LASF176:
 6091 352d 61747446 		.ascii	"attFormatValue\000"
 6091      6F726D61 
 6091      7456616C 
 6091      756500
 6092              	.LASF108:
 6093 353c 4359424C 		.ascii	"CYBLE_ERROR_HARDWARE_FAILURE\000"
 6093      455F4552 
 6093      524F525F 
ARM GAS  C:\Users\akita\AppData\Local\Temp\ccIEDY99.s 			page 153


 6093      48415244 
 6093      57415245 
 6094              	.LASF138:
 6095 3559 4359424C 		.ascii	"CYBLE_GATT_ERR_CPS_INAPPROPRIATE_CONNECTION_PARAMET"
 6095      455F4741 
 6095      54545F45 
 6095      52525F43 
 6095      50535F49 
 6096 358c 45525300 		.ascii	"ERS\000"
 6097              	.LASF299:
 6098 3590 4359424C 		.ascii	"CYBLE_EVT_CGMSC_NOTIFICATION\000"
 6098      455F4556 
 6098      545F4347 
 6098      4D53435F 
 6098      4E4F5449 
 6099              	.LASF124:
 6100 35ad 4359424C 		.ascii	"CYBLE_GATT_ERR_REQUEST_NOT_SUPPORTED\000"
 6100      455F4741 
 6100      54545F45 
 6100      52525F52 
 6100      45515545 
 6101              	.LASF46:
 6102 35d2 4359424C 		.ascii	"CYBLE_EVT_GATTC_ERROR_RSP\000"
 6102      455F4556 
 6102      545F4741 
 6102      5454435F 
 6102      4552524F 
 6103              	.LASF350:
 6104 35ec 4359424C 		.ascii	"CYBLE_EVT_ESSC_WRITE_CHAR_RESPONSE\000"
 6104      455F4556 
 6104      545F4553 
 6104      53435F57 
 6104      52495445 
 6105              	.LASF256:
 6106 360f 4359424C 		.ascii	"CYBLE_EVT_ANCSC_ERROR_RESPONSE\000"
 6106      455F4556 
 6106      545F414E 
 6106      4353435F 
 6106      4552524F 
 6107              	.LASF270:
 6108 362e 4359424C 		.ascii	"CYBLE_EVT_BASC_WRITE_DESCR_RESPONSE\000"
 6108      455F4556 
 6108      545F4241 
 6108      53435F57 
 6108      52495445 
 6109              	.LASF238:
 6110 3652 4359424C 		.ascii	"CYBLE_EVT_GATTC_SRVC_DISCOVERY_FAILED\000"
 6110      455F4556 
 6110      545F4741 
 6110      5454435F 
 6110      53525643 
 6111              	.LASF353:
 6112 3678 4359424C 		.ascii	"CYBLE_EVT_GLSS_INDICATION_ENABLED\000"
 6112      455F4556 
 6112      545F474C 
 6112      53535F49 
 6112      4E444943 
ARM GAS  C:\Users\akita\AppData\Local\Temp\ccIEDY99.s 			page 154


 6113              	.LASF259:
 6114 369a 4359424C 		.ascii	"CYBLE_EVT_ANSS_CHAR_WRITE\000"
 6114      455F4556 
 6114      545F414E 
 6114      53535F43 
 6114      4841525F 
 6115              	.LASF526:
 6116 36b4 6C6F6352 		.ascii	"locReport\000"
 6116      65706F72 
 6116      7400
 6117              	.LASF74:
 6118 36be 4359424C 		.ascii	"CYBLE_EVT_L2CAP_CBFC_CONN_IND\000"
 6118      455F4556 
 6118      545F4C32 
 6118      4341505F 
 6118      43424643 
 6119              	.LASF62:
 6120 36dc 4359424C 		.ascii	"CYBLE_EVT_GATTS_EXEC_WRITE_REQ\000"
 6120      455F4556 
 6120      545F4741 
 6120      5454535F 
 6120      45584543 
 6121              	.LASF23:
 6122 36fb 4359424C 		.ascii	"CYBLE_EVT_GAPC_SCAN_PROGRESS_RESULT\000"
 6122      455F4556 
 6122      545F4741 
 6122      50435F53 
 6122      43414E5F 
 6123              	.LASF382:
 6124 371f 4359424C 		.ascii	"CYBLE_EVT_HPSC_READ_DESCR_RESPONSE\000"
 6124      455F4556 
 6124      545F4850 
 6124      53435F52 
 6124      4541445F 
 6125              	.LASF333:
 6126 3742 4359424C 		.ascii	"CYBLE_EVT_CTSS_CHAR_WRITE\000"
 6126      455F4556 
 6126      545F4354 
 6126      53535F43 
 6126      4841525F 
 6127              	.LASF475:
 6128 375c 4359424C 		.ascii	"CYBLE_EVT_UDSS_INDICATION_ENABLED\000"
 6128      455F4556 
 6128      545F5544 
 6128      53535F49 
 6128      4E444943 
 6129              	.LASF413:
 6130 377e 4359424C 		.ascii	"CYBLE_EVT_IPSC_READ_BLOB_RSP\000"
 6130      455F4556 
 6130      545F4950 
 6130      53435F52 
 6130      4541445F 
 6131              	.LASF156:
 6132 379b 4359424C 		.ascii	"CYBLE_GATT_ERR_CODE_T\000"
 6132      455F4741 
 6132      54545F45 
 6132      52525F43 
ARM GAS  C:\Users\akita\AppData\Local\Temp\ccIEDY99.s 			page 155


 6132      4F44455F 
 6133              	.LASF151:
 6134 37b1 4359424C 		.ascii	"CYBLE_GATT_ERR_ANCS_INVALID_PARAMETER\000"
 6134      455F4741 
 6134      54545F45 
 6134      52525F41 
 6134      4E43535F 
 6135              	.LASF94:
 6136 37d7 4359424C 		.ascii	"CYBLE_ERROR_GAP_ROLE\000"
 6136      455F4552 
 6136      524F525F 
 6136      4741505F 
 6136      524F4C45 
 6137              	.LASF395:
 6138 37ec 4359424C 		.ascii	"CYBLE_EVT_HTSS_INDICATION_ENABLED\000"
 6138      455F4556 
 6138      545F4854 
 6138      53535F49 
 6138      4E444943 
 6139              	.LASF486:
 6140 380e 4359424C 		.ascii	"CYBLE_EVT_UDSC_READ_DESCR_RESPONSE\000"
 6140      455F4556 
 6140      545F5544 
 6140      53435F52 
 6140      4541445F 
 6141              	.LASF44:
 6142 3831 4359424C 		.ascii	"CYBLE_EVT_GAP_SCAN_REQ_RECVD\000"
 6142      455F4556 
 6142      545F4741 
 6142      505F5343 
 6142      414E5F52 
 6143              	.LASF268:
 6144 384e 4359424C 		.ascii	"CYBLE_EVT_BASC_READ_CHAR_RESPONSE\000"
 6144      455F4556 
 6144      545F4241 
 6144      53435F52 
 6144      4541445F 
 6145              	.LASF360:
 6146 3870 4359424C 		.ascii	"CYBLE_EVT_GLSC_NOTIFICATION\000"
 6146      455F4556 
 6146      545F474C 
 6146      53435F4E 
 6146      4F544946 
 6147              	.LASF148:
 6148 388c 4359424C 		.ascii	"CYBLE_GATT_ERR_ANS_COMMAND_NOT_SUPPORTED\000"
 6148      455F4741 
 6148      54545F45 
 6148      52525F41 
 6148      4E535F43 
 6149              	.LASF465:
 6150 38b5 4359424C 		.ascii	"CYBLE_EVT_SCPSS_SCAN_INT_WIN_CHAR_WRITE\000"
 6150      455F4556 
 6150      545F5343 
 6150      5053535F 
 6150      5343414E 
 6151              	.LASF543:
 6152 38dd 6379426C 		.ascii	"cyBle_eventHandlerFlag\000"
ARM GAS  C:\Users\akita\AppData\Local\Temp\ccIEDY99.s 			page 156


 6152      655F6576 
 6152      656E7448 
 6152      616E646C 
 6152      6572466C 
 6153              	.LASF236:
 6154 38f4 4359424C 		.ascii	"CYBLE_EVT_GATTS_INDICATION_DISABLED\000"
 6154      455F4556 
 6154      545F4741 
 6154      5454535F 
 6154      494E4449 
 6155              	.LASF211:
 6156 3918 4359424C 		.ascii	"CYBLE_HIDS_REPORT_MAP_ERRD\000"
 6156      455F4849 
 6156      44535F52 
 6156      45504F52 
 6156      545F4D41 
 6157              	.LASF91:
 6158 3933 4359424C 		.ascii	"CYBLE_ERROR_NO_CONNECTION\000"
 6158      455F4552 
 6158      524F525F 
 6158      4E4F5F43 
 6158      4F4E4E45 
 6159              	.LASF291:
 6160 394d 4359424C 		.ascii	"CYBLE_EVT_BMSC_READ_DESCR_RESPONSE\000"
 6160      455F4556 
 6160      545F424D 
 6160      53435F52 
 6160      4541445F 
 6161              	.LASF83:
 6162 3970 4359424C 		.ascii	"CYBLE_EVT_LE_PING_AUTH_TIMEOUT\000"
 6162      455F4556 
 6162      545F4C45 
 6162      5F50494E 
 6162      475F4155 
 6163              	.LASF117:
 6164 398f 4359424C 		.ascii	"CYBLE_API_RESULT_T\000"
 6164      455F4150 
 6164      495F5245 
 6164      53554C54 
 6164      5F5400
 6165              	.LASF203:
 6166 39a2 4359424C 		.ascii	"CYBLE_HIDS_REPORT\000"
 6166      455F4849 
 6166      44535F52 
 6166      45504F52 
 6166      5400
 6167              	.LASF293:
 6168 39b4 4359424C 		.ascii	"CYBLE_EVT_CGMSS_INDICATION_DISABLED\000"
 6168      455F4556 
 6168      545F4347 
 6168      4D53535F 
 6168      494E4449 
 6169              	.LASF521:
 6170 39d8 4379426C 		.ascii	"CyBle_HidssSetCharacteristicValue\000"
 6170      655F4869 
 6170      64737353 
 6170      65744368 
ARM GAS  C:\Users\akita\AppData\Local\Temp\ccIEDY99.s 			page 157


 6170      61726163 
 6171              	.LASF248:
 6172 39fa 4359424C 		.ascii	"CYBLE_EVT_GATTC_DISCOVERY_COMPLETE\000"
 6172      455F4556 
 6172      545F4741 
 6172      5454435F 
 6172      44495343 
 6173              	.LASF297:
 6174 3a1d 4359424C 		.ascii	"CYBLE_EVT_CGMSS_WRITE_CHAR\000"
 6174      455F4556 
 6174      545F4347 
 6174      4D53535F 
 6174      57524954 
 6175              	.LASF364:
 6176 3a38 4359424C 		.ascii	"CYBLE_EVT_GLSC_WRITE_DESCR_RESPONSE\000"
 6176      455F4556 
 6176      545F474C 
 6176      53435F57 
 6176      52495445 
 6177              	.LASF65:
 6178 3a5c 4359424C 		.ascii	"CYBLE_EVT_GATTC_HANDLE_VALUE_IND\000"
 6178      455F4556 
 6178      545F4741 
 6178      5454435F 
 6178      48414E44 
 6179              	.LASF318:
 6180 3a7d 4359424C 		.ascii	"CYBLE_EVT_CPSC_SCAN_PROGRESS_RESULT\000"
 6180      455F4556 
 6180      545F4350 
 6180      53435F53 
 6180      43414E5F 
 6181              	.LASF459:
 6182 3aa1 4359424C 		.ascii	"CYBLE_EVT_RSCSC_READ_DESCR_RESPONSE\000"
 6182      455F4556 
 6182      545F5253 
 6182      4353435F 
 6182      52454144 
 6183              	.LASF528:
 6184 3ac5 6576656E 		.ascii	"eventCode\000"
 6184      74436F64 
 6184      6500
 6185              	.LASF97:
 6186 3acf 4359424C 		.ascii	"CYBLE_ERROR_SEC_FAILED\000"
 6186      455F4552 
 6186      524F525F 
 6186      5345435F 
 6186      4641494C 
 6187              	.LASF196:
 6188 3ae6 4359424C 		.ascii	"CYBLE_HIDS_PROTOCOL_MODE\000"
 6188      455F4849 
 6188      44535F50 
 6188      524F544F 
 6188      434F4C5F 
 6189              	.LASF21:
 6190 3aff 4359424C 		.ascii	"CYBLE_EVT_STACK_BUSY_STATUS\000"
 6190      455F4556 
 6190      545F5354 
ARM GAS  C:\Users\akita\AppData\Local\Temp\ccIEDY99.s 			page 158


 6190      41434B5F 
 6190      42555359 
 6191              	.LASF412:
 6192 3b1b 4359424C 		.ascii	"CYBLE_EVT_IPSC_ERROR_RESPONSE\000"
 6192      455F4556 
 6192      545F4950 
 6192      53435F45 
 6192      52524F52 
 6193              	.LASF404:
 6194 3b39 4359424C 		.ascii	"CYBLE_EVT_HTSC_WRITE_DESCR_RESPONSE\000"
 6194      455F4556 
 6194      545F4854 
 6194      53435F57 
 6194      52495445 
 6195              	.LASF35:
 6196 3b5d 4359424C 		.ascii	"CYBLE_EVT_GAP_KEYINFO_EXCHNGE_CMPLT\000"
 6196      455F4556 
 6196      545F4741 
 6196      505F4B45 
 6196      59494E46 
 6197              	.LASF500:
 6198 3b81 4359424C 		.ascii	"CYBLE_EVT_WPTSC_WRITE_DESCR_RESPONSE\000"
 6198      455F4556 
 6198      545F5750 
 6198      5453435F 
 6198      57524954 
 6199              	.LASF71:
 6200 3ba6 4359424C 		.ascii	"CYBLE_EVT_L2CAP_CONN_PARAM_UPDATE_REQ\000"
 6200      455F4556 
 6200      545F4C32 
 6200      4341505F 
 6200      434F4E4E 
 6201              	.LASF296:
 6202 3bcc 4359424C 		.ascii	"CYBLE_EVT_CGMSS_NOTIFICATION_DISABLED\000"
 6202      455F4556 
 6202      545F4347 
 6202      4D53535F 
 6202      4E4F5449 
 6203              	.LASF206:
 6204 3bf2 4359424C 		.ascii	"CYBLE_HIDS_REPORT_END\000"
 6204      455F4849 
 6204      44535F52 
 6204      45504F52 
 6204      545F454E 
 6205              	.LASF334:
 6206 3c08 4359424C 		.ascii	"CYBLE_EVT_CTSC_NOTIFICATION\000"
 6206      455F4556 
 6206      545F4354 
 6206      53435F4E 
 6206      4F544946 
 6207              	.LASF530:
 6208 3c24 67617474 		.ascii	"gattErr\000"
 6208      45727200 
 6209              	.LASF239:
 6210 3c2c 4359424C 		.ascii	"CYBLE_EVT_GATTC_INCL_DISCOVERY_FAILED\000"
 6210      455F4556 
 6210      545F4741 
ARM GAS  C:\Users\akita\AppData\Local\Temp\ccIEDY99.s 			page 159


 6210      5454435F 
 6210      494E434C 
 6211              	.LASF121:
 6212 3c52 4359424C 		.ascii	"CYBLE_GATT_ERR_WRITE_NOT_PERMITTED\000"
 6212      455F4741 
 6212      54545F45 
 6212      52525F57 
 6212      52495445 
 6213              	.LASF3:
 6214 3c75 73686F72 		.ascii	"short unsigned int\000"
 6214      7420756E 
 6214      7369676E 
 6214      65642069 
 6214      6E7400
 6215              	.LASF133:
 6216 3c88 4359424C 		.ascii	"CYBLE_GATT_ERR_INSUFFICIENT_ENCRYPTION\000"
 6216      455F4741 
 6216      54545F45 
 6216      52525F49 
 6216      4E535546 
 6217              	.LASF223:
 6218 3caf 7265706F 		.ascii	"reportMapHandle\000"
 6218      72744D61 
 6218      7048616E 
 6218      646C6500 
 6219              	.LASF427:
 6220 3cbf 4359424C 		.ascii	"CYBLE_EVT_LNSC_READ_DESCR_RESPONSE\000"
 6220      455F4556 
 6220      545F4C4E 
 6220      53435F52 
 6220      4541445F 
 6221              	.LASF511:
 6222 3ce2 4359424C 		.ascii	"CYBLE_STATE_CONNECTED\000"
 6222      455F5354 
 6222      4154455F 
 6222      434F4E4E 
 6222      45435445 
 6223              	.LASF161:
 6224 3cf8 61637475 		.ascii	"actualLen\000"
 6224      616C4C65 
 6224      6E00
 6225              	.LASF215:
 6226 3d02 63636364 		.ascii	"cccdHandle\000"
 6226      48616E64 
 6226      6C6500
 6227              	.LASF251:
 6228 3d0d 4359424C 		.ascii	"CYBLE_EVT_ANCSS_WRITE_CHAR\000"
 6228      455F4556 
 6228      545F414E 
 6228      4353535F 
 6228      57524954 
 6229              	.LASF205:
 6230 3d28 4359424C 		.ascii	"CYBLE_HUMAN_INTERFACE_DEVICE_REPORT_OUT\000"
 6230      455F4855 
 6230      4D414E5F 
 6230      494E5445 
 6230      52464143 
ARM GAS  C:\Users\akita\AppData\Local\Temp\ccIEDY99.s 			page 160


 6231              	.LASF359:
 6232 3d50 4359424C 		.ascii	"CYBLE_EVT_GLSC_INDICATION\000"
 6232      455F4556 
 6232      545F474C 
 6232      53435F49 
 6232      4E444943 
 6233              	.LASF310:
 6234 3d6a 4359424C 		.ascii	"CYBLE_EVT_CPSS_BROADCAST_DISABLED\000"
 6234      455F4556 
 6234      545F4350 
 6234      53535F42 
 6234      524F4144 
 6235              	.LASF159:
 6236 3d8c 61747449 		.ascii	"attId\000"
 6236      6400
 6237              	.LASF87:
 6238 3d92 4359424C 		.ascii	"CYBLE_ERROR_INVALID_OPERATION\000"
 6238      455F4552 
 6238      524F525F 
 6238      494E5641 
 6238      4C49445F 
 6239              	.LASF20:
 6240 3db0 4359424C 		.ascii	"CYBLE_EVT_HCI_STATUS\000"
 6240      455F4556 
 6240      545F4843 
 6240      495F5354 
 6240      41545553 
 6241              	.LASF48:
 6242 3dc5 4359424C 		.ascii	"CYBLE_EVT_GATT_DISCONNECT_IND\000"
 6242      455F4556 
 6242      545F4741 
 6242      54545F44 
 6242      4953434F 
 6243              	.LASF234:
 6244 3de3 4359424C 		.ascii	"CYBLE_KEY_EXCHANGE_INFO_REQUEST_REPLY\000"
 6244      455F4B45 
 6244      595F4558 
 6244      4348414E 
 6244      47455F49 
 6245              	.LASF81:
 6246 3e09 4359424C 		.ascii	"CYBLE_EVT_L2CAP_CBFC_DATA_WRITE_IND\000"
 6246      455F4556 
 6246      545F4C32 
 6246      4341505F 
 6246      43424643 
 6247              	.LASF232:
 6248 3e2d 4359424C 		.ascii	"CYBLE_PASSKEY_ENTRY_REQUEST_REPLY\000"
 6248      455F5041 
 6248      53534B45 
 6248      595F454E 
 6248      5452595F 
 6249              	.LASF277:
 6250 3e4f 4359424C 		.ascii	"CYBLE_EVT_BCSC_WRITE_DESCR_RESPONSE\000"
 6250      455F4556 
 6250      545F4243 
 6250      53435F57 
 6250      52495445 
ARM GAS  C:\Users\akita\AppData\Local\Temp\ccIEDY99.s 			page 161


 6251              	.LASF505:
 6252 3e73 4359424C 		.ascii	"CYBLE_EVT_WSSC_READ_CHAR_RESPONSE\000"
 6252      455F4556 
 6252      545F5753 
 6252      53435F52 
 6252      4541445F 
 6253              	.LASF207:
 6254 3e95 4359424C 		.ascii	"CYBLE_HIDS_CHAR_COUNT\000"
 6254      455F4849 
 6254      44535F43 
 6254      4841525F 
 6254      434F554E 
 6255              	.LASF70:
 6256 3eab 4359424C 		.ascii	"CYBLE_EVT_GATTC_LONG_PROCEDURE_END\000"
 6256      455F4556 
 6256      545F4741 
 6256      5454435F 
 6256      4C4F4E47 
 6257              	.LASF260:
 6258 3ece 4359424C 		.ascii	"CYBLE_EVT_ANSC_NOTIFICATION\000"
 6258      455F4556 
 6258      545F414E 
 6258      53435F4E 
 6258      4F544946 
 6259              	.LASF31:
 6260 3eea 4359424C 		.ascii	"CYBLE_EVT_GAP_DEVICE_DISCONNECTED\000"
 6260      455F4556 
 6260      545F4741 
 6260      505F4445 
 6260      56494345 
 6261              	.LASF367:
 6262 3f0c 4359424C 		.ascii	"CYBLE_EVT_HIDSS_BOOT_MODE_ENTER\000"
 6262      455F4556 
 6262      545F4849 
 6262      4453535F 
 6262      424F4F54 
 6263              	.LASF66:
 6264 3f2c 4359424C 		.ascii	"CYBLE_EVT_GATTS_HANDLE_VALUE_CNF\000"
 6264      455F4556 
 6264      545F4741 
 6264      5454535F 
 6264      48414E44 
 6265              	.LASF408:
 6266 3f4d 4359424C 		.ascii	"CYBLE_EVT_IPSC_READ_MULTIPLE_CHAR_RESPONSE\000"
 6266      455F4556 
 6266      545F4950 
 6266      53435F52 
 6266      4541445F 
 6267              	.LASF329:
 6268 3f78 4359424C 		.ascii	"CYBLE_EVT_CSCSC_READ_DESCR_RESPONSE\000"
 6268      455F4556 
 6268      545F4353 
 6268      4353435F 
 6268      52454144 
 6269              	.LASF10:
 6270 3f9c 75696E74 		.ascii	"uint16\000"
 6270      313600
ARM GAS  C:\Users\akita\AppData\Local\Temp\ccIEDY99.s 			page 162


 6271              	.LASF253:
 6272 3fa3 4359424C 		.ascii	"CYBLE_EVT_ANCSC_WRITE_CHAR_RESPONSE\000"
 6272      455F4556 
 6272      545F414E 
 6272      4353435F 
 6272      57524954 
 6273              	.LASF95:
 6274 3fc7 4359424C 		.ascii	"CYBLE_ERROR_TX_POWER_READ\000"
 6274      455F4552 
 6274      524F525F 
 6274      54585F50 
 6274      4F574552 
 6275              	.LASF449:
 6276 3fe1 4359424C 		.ascii	"CYBLE_EVT_RSCSS_NOTIFICATION_ENABLED\000"
 6276      455F4556 
 6276      545F5253 
 6276      4353535F 
 6276      4E4F5449 
 6277              	.LASF258:
 6278 4006 4359424C 		.ascii	"CYBLE_EVT_ANSS_NOTIFICATION_DISABLED\000"
 6278      455F4556 
 6278      545F414E 
 6278      53535F4E 
 6278      4F544946 
 6279              	.LASF400:
 6280 402b 4359424C 		.ascii	"CYBLE_EVT_HTSC_INDICATION\000"
 6280      455F4556 
 6280      545F4854 
 6280      53435F49 
 6280      4E444943 
 6281              	.LASF365:
 6282 4045 4359424C 		.ascii	"CYBLE_EVT_HIDSS_NOTIFICATION_ENABLED\000"
 6282      455F4556 
 6282      545F4849 
 6282      4453535F 
 6282      4E4F5449 
 6283              	.LASF397:
 6284 406a 4359424C 		.ascii	"CYBLE_EVT_HTSS_INDICATION_CONFIRMED\000"
 6284      455F4556 
 6284      545F4854 
 6284      53535F49 
 6284      4E444943 
 6285              	.LASF213:
 6286 408e 4359424C 		.ascii	"CYBLE_HIDS_DESCR_T\000"
 6286      455F4849 
 6286      44535F44 
 6286      45534352 
 6286      5F5400
 6287              	.LASF493:
 6288 40a1 4359424C 		.ascii	"CYBLE_EVT_WPTSS_INDICATION_CONFIRMED\000"
 6288      455F4556 
 6288      545F5750 
 6288      5453535F 
 6288      494E4449 
 6289              	.LASF387:
 6290 40c6 4359424C 		.ascii	"CYBLE_EVT_HRSS_NOTIFICATION_DISABLED\000"
 6290      455F4556 
ARM GAS  C:\Users\akita\AppData\Local\Temp\ccIEDY99.s 			page 163


 6290      545F4852 
 6290      53535F4E 
 6290      4F544946 
 6291              		.ident	"GCC: (GNU Tools for ARM Embedded Processors) 4.9.3 20150303 (release) [ARM/embedded-4_9-br
