ARM GAS  C:\Users\akita\AppData\Local\Temp\ccIEDY99.s 			page 1


   1              		.cpu cortex-m0
   2              		.fpu softvfp
   3              		.eabi_attribute 20, 1
   4              		.eabi_attribute 21, 1
   5              		.eabi_attribute 23, 3
   6              		.eabi_attribute 24, 1
   7              		.eabi_attribute 25, 1
   8              		.eabi_attribute 26, 1
   9              		.eabi_attribute 30, 6
  10              		.eabi_attribute 34, 0
  11              		.eabi_attribute 18, 4
  12              		.code	16
  13              		.file	"BLE_hids.c"
  14              		.text
  15              	.Ltext0:
  16              		.cfi_sections	.debug_frame
  17              		.bss
  18              		.align	2
  19              	CyBle_HidsApplCallback:
  20 0000 00000000 		.space	4
  21              		.section	.rodata
  22              		.align	2
  23              		.type	cyBle_hids1ReportArray, %object
  24              		.size	cyBle_hids1ReportArray, 12
  25              	cyBle_hids1ReportArray:
  26 0000 1000     		.short	16
  27 0002 1100     		.short	17
  28 0004 1200     		.short	18
  29 0006 1F00     		.short	31
  30 0008 0000     		.short	0
  31 000a 2000     		.short	32
  32              		.global	cyBle_hidss
  33              		.align	2
  34              		.type	cyBle_hidss, %object
  35              		.size	cyBle_hidss, 40
  36              	cyBle_hidss:
  37 000c 0C00     		.short	12
  38 000e 1800     		.short	24
  39 0010 02       		.byte	2
  40 0011 000000   		.space	3
  41 0014 00000000 		.word	cyBle_hids1ReportArray
  42 0018 1A00     		.short	26
  43 001a 1B00     		.short	27
  44 001c 0000     		.short	0
  45 001e 1D00     		.short	29
  46 0020 0000     		.short	0
  47 0022 0000     		.short	0
  48 0024 0000     		.short	0
  49 0026 0000     		.short	0
  50 0028 0000     		.short	0
  51 002a 0E00     		.short	14
  52 002c 0000     		.short	0
  53 002e 1400     		.short	20
  54 0030 1600     		.short	22
  55 0032 0000     		.space	2
  56              		.section	.text.CyBle_HidsInit,"ax",%progbits
  57              		.align	2
ARM GAS  C:\Users\akita\AppData\Local\Temp\ccIEDY99.s 			page 2


  58              		.global	CyBle_HidsInit
  59              		.code	16
  60              		.thumb_func
  61              		.type	CyBle_HidsInit, %function
  62              	CyBle_HidsInit:
  63              	.LFB2:
  64              		.file 1 "Generated_Source\\PSoC4\\BLE_hids.c"
   1:Generated_Source\PSoC4/BLE_hids.c **** /***************************************************************************//**
   2:Generated_Source\PSoC4/BLE_hids.c **** * \file CYBLE_hids.c
   3:Generated_Source\PSoC4/BLE_hids.c **** * \version 3.20
   4:Generated_Source\PSoC4/BLE_hids.c **** * 
   5:Generated_Source\PSoC4/BLE_hids.c **** * \brief
   6:Generated_Source\PSoC4/BLE_hids.c **** *  Contains the source code for the HID service.
   7:Generated_Source\PSoC4/BLE_hids.c **** * 
   8:Generated_Source\PSoC4/BLE_hids.c **** ********************************************************************************
   9:Generated_Source\PSoC4/BLE_hids.c **** * \copyright
  10:Generated_Source\PSoC4/BLE_hids.c **** * Copyright 2014-2016, Cypress Semiconductor Corporation.  All rights reserved.
  11:Generated_Source\PSoC4/BLE_hids.c **** * You may use this file only in accordance with the license, terms, conditions,
  12:Generated_Source\PSoC4/BLE_hids.c **** * disclaimers, and limitations in the end user license agreement accompanying
  13:Generated_Source\PSoC4/BLE_hids.c **** * the software package with which this file was provided.
  14:Generated_Source\PSoC4/BLE_hids.c **** *******************************************************************************/
  15:Generated_Source\PSoC4/BLE_hids.c **** 
  16:Generated_Source\PSoC4/BLE_hids.c **** #include "BLE_eventHandler.h"
  17:Generated_Source\PSoC4/BLE_hids.c **** 
  18:Generated_Source\PSoC4/BLE_hids.c **** static CYBLE_CALLBACK_T CyBle_HidsApplCallback;
  19:Generated_Source\PSoC4/BLE_hids.c **** 
  20:Generated_Source\PSoC4/BLE_hids.c **** #ifdef CYBLE_HIDS_SERVER
  21:Generated_Source\PSoC4/BLE_hids.c **** 
  22:Generated_Source\PSoC4/BLE_hids.c **** static const CYBLE_HIDSS_REPORT_T cyBle_hids1ReportArray[0x02u] = {
  23:Generated_Source\PSoC4/BLE_hids.c ****     {
  24:Generated_Source\PSoC4/BLE_hids.c ****         0x0010u, /* Handle of the Report characteristic value */ 
  25:Generated_Source\PSoC4/BLE_hids.c ****         0x0011u, /* Handle of the Client Characteristic Configuration descriptor */ 
  26:Generated_Source\PSoC4/BLE_hids.c ****         0x0012u, /* Handle of the Report Reference descriptor */ 
  27:Generated_Source\PSoC4/BLE_hids.c ****     },
  28:Generated_Source\PSoC4/BLE_hids.c ****     {
  29:Generated_Source\PSoC4/BLE_hids.c ****         0x001Fu, /* Handle of the Report characteristic value */ 
  30:Generated_Source\PSoC4/BLE_hids.c ****         CYBLE_GATT_INVALID_ATTR_HANDLE_VALUE, /* Handle of the Client Characteristic Configuration 
  31:Generated_Source\PSoC4/BLE_hids.c ****         0x0020u, /* Handle of the Report Reference descriptor */ 
  32:Generated_Source\PSoC4/BLE_hids.c ****     },
  33:Generated_Source\PSoC4/BLE_hids.c **** };
  34:Generated_Source\PSoC4/BLE_hids.c **** 
  35:Generated_Source\PSoC4/BLE_hids.c **** const CYBLE_HIDSS_T cyBle_hidss[0x01u] = {
  36:Generated_Source\PSoC4/BLE_hids.c ****     {
  37:Generated_Source\PSoC4/BLE_hids.c ****         0x000Cu, /* Handle of the HID service */ 
  38:Generated_Source\PSoC4/BLE_hids.c ****         0x0018u, /* Handle of the Protocol Mode characteristic */ 
  39:Generated_Source\PSoC4/BLE_hids.c ****         0x02u, /* Number of report characteristics */ 
  40:Generated_Source\PSoC4/BLE_hids.c ****         cyBle_hids1ReportArray, /* Information about report characteristics */ 
  41:Generated_Source\PSoC4/BLE_hids.c ****         {
  42:Generated_Source\PSoC4/BLE_hids.c ****             {
  43:Generated_Source\PSoC4/BLE_hids.c ****                 0x001Au, /* Handle of the Report characteristic value */ 
  44:Generated_Source\PSoC4/BLE_hids.c ****                 0x001Bu, /* Handle of the Client Characteristic Configuration descriptor */ 
  45:Generated_Source\PSoC4/BLE_hids.c ****                 CYBLE_GATT_INVALID_ATTR_HANDLE_VALUE, /* Handle of the Report Reference descriptor 
  46:Generated_Source\PSoC4/BLE_hids.c ****             },
  47:Generated_Source\PSoC4/BLE_hids.c ****             {
  48:Generated_Source\PSoC4/BLE_hids.c ****                 0x001Du, /* Handle of the Report characteristic value */ 
  49:Generated_Source\PSoC4/BLE_hids.c ****                 CYBLE_GATT_INVALID_ATTR_HANDLE_VALUE, /* Handle of the Client Characteristic Config
  50:Generated_Source\PSoC4/BLE_hids.c ****                 CYBLE_GATT_INVALID_ATTR_HANDLE_VALUE, /* Handle of the Report Reference descriptor 
ARM GAS  C:\Users\akita\AppData\Local\Temp\ccIEDY99.s 			page 3


  51:Generated_Source\PSoC4/BLE_hids.c ****             },
  52:Generated_Source\PSoC4/BLE_hids.c ****             {
  53:Generated_Source\PSoC4/BLE_hids.c ****                 CYBLE_GATT_INVALID_ATTR_HANDLE_VALUE, /* Handle of the Report characteristic value 
  54:Generated_Source\PSoC4/BLE_hids.c ****                 CYBLE_GATT_INVALID_ATTR_HANDLE_VALUE, /* Handle of the Client Characteristic Config
  55:Generated_Source\PSoC4/BLE_hids.c ****                 CYBLE_GATT_INVALID_ATTR_HANDLE_VALUE, /* Handle of the Report Reference descriptor 
  56:Generated_Source\PSoC4/BLE_hids.c ****             },
  57:Generated_Source\PSoC4/BLE_hids.c ****         }, /* Information about boot report characteristics */ 
  58:Generated_Source\PSoC4/BLE_hids.c ****         0x000Eu, /* Handle of the Report Map characteristic */ 
  59:Generated_Source\PSoC4/BLE_hids.c ****         CYBLE_GATT_INVALID_ATTR_HANDLE_VALUE, /* Handle of the Report Map External Report Reference
  60:Generated_Source\PSoC4/BLE_hids.c ****         0x0014u, /* Handle of the HID Information characteristic */ 
  61:Generated_Source\PSoC4/BLE_hids.c ****         0x0016u, /* Handle of the HID Control Point characteristic */ 
  62:Generated_Source\PSoC4/BLE_hids.c ****     },
  63:Generated_Source\PSoC4/BLE_hids.c **** };
  64:Generated_Source\PSoC4/BLE_hids.c **** 
  65:Generated_Source\PSoC4/BLE_hids.c **** /* Local function prototypes */
  66:Generated_Source\PSoC4/BLE_hids.c **** static uint32 CyBle_HidssCccdWriteEventHandler(uint8 serviceIndex, const CYBLE_GATTS_WRITE_REQ_PARA
  67:Generated_Source\PSoC4/BLE_hids.c **** 
  68:Generated_Source\PSoC4/BLE_hids.c **** #endif /* CYBLE_HIDS_SERVER */
  69:Generated_Source\PSoC4/BLE_hids.c **** 
  70:Generated_Source\PSoC4/BLE_hids.c **** #ifdef CYBLE_HIDS_CLIENT
  71:Generated_Source\PSoC4/BLE_hids.c **** 
  72:Generated_Source\PSoC4/BLE_hids.c ****     CYBLE_HIDSC_T cyBle_hidsc[CYBLE_HIDSC_SERVICE_COUNT];
  73:Generated_Source\PSoC4/BLE_hids.c ****     static CYBLE_GATT_DB_ATTR_HANDLE_T cyBle_hidscReqHandle;
  74:Generated_Source\PSoC4/BLE_hids.c ****     uint8 cyBle_hidscServiceCount;
  75:Generated_Source\PSoC4/BLE_hids.c **** 
  76:Generated_Source\PSoC4/BLE_hids.c **** #endif /* CYBLE_HIDS_CLIENT */
  77:Generated_Source\PSoC4/BLE_hids.c **** 
  78:Generated_Source\PSoC4/BLE_hids.c **** 
  79:Generated_Source\PSoC4/BLE_hids.c **** /****************************************************************************** 
  80:Generated_Source\PSoC4/BLE_hids.c **** * Function Name: CyBle_HidsInit
  81:Generated_Source\PSoC4/BLE_hids.c **** ***************************************************************************//**
  82:Generated_Source\PSoC4/BLE_hids.c **** * 
  83:Generated_Source\PSoC4/BLE_hids.c **** *  This function initializes the HID Service.
  84:Generated_Source\PSoC4/BLE_hids.c **** * 
  85:Generated_Source\PSoC4/BLE_hids.c **** * 
  86:Generated_Source\PSoC4/BLE_hids.c **** ******************************************************************************/
  87:Generated_Source\PSoC4/BLE_hids.c **** void CyBle_HidsInit(void)
  88:Generated_Source\PSoC4/BLE_hids.c **** {
  65              		.loc 1 88 0
  66              		.cfi_startproc
  67 0000 80B5     		push	{r7, lr}
  68              		.cfi_def_cfa_offset 8
  69              		.cfi_offset 7, -8
  70              		.cfi_offset 14, -4
  71 0002 00AF     		add	r7, sp, #0
  72              		.cfi_def_cfa_register 7
  89:Generated_Source\PSoC4/BLE_hids.c **** 
  90:Generated_Source\PSoC4/BLE_hids.c **** #ifdef CYBLE_HIDS_CLIENT
  91:Generated_Source\PSoC4/BLE_hids.c **** 
  92:Generated_Source\PSoC4/BLE_hids.c ****     uint8 locServIndex;
  93:Generated_Source\PSoC4/BLE_hids.c ****     for(locServIndex = 0u; locServIndex < CYBLE_HIDSC_SERVICE_COUNT; locServIndex++)
  94:Generated_Source\PSoC4/BLE_hids.c ****     {
  95:Generated_Source\PSoC4/BLE_hids.c ****         if(cyBle_serverInfo[CYBLE_SRVI_HIDS + locServIndex].range.startHandle == CYBLE_GATT_INVALID
  96:Generated_Source\PSoC4/BLE_hids.c ****         {
  97:Generated_Source\PSoC4/BLE_hids.c ****             (void)memset(&cyBle_hidsc[locServIndex], 0, sizeof(cyBle_hidsc[locServIndex]));
  98:Generated_Source\PSoC4/BLE_hids.c ****         }
  99:Generated_Source\PSoC4/BLE_hids.c ****     }
ARM GAS  C:\Users\akita\AppData\Local\Temp\ccIEDY99.s 			page 4


 100:Generated_Source\PSoC4/BLE_hids.c ****     cyBle_hidscReqHandle = CYBLE_GATT_INVALID_ATTR_HANDLE_VALUE;
 101:Generated_Source\PSoC4/BLE_hids.c ****     cyBle_hidscServiceCount = 0u;
 102:Generated_Source\PSoC4/BLE_hids.c **** 
 103:Generated_Source\PSoC4/BLE_hids.c **** #endif /* CYBLE_HIDS_CLIENT */
 104:Generated_Source\PSoC4/BLE_hids.c **** }
  73              		.loc 1 104 0
  74 0004 BD46     		mov	sp, r7
  75              		@ sp needed
  76 0006 80BD     		pop	{r7, pc}
  77              		.cfi_endproc
  78              	.LFE2:
  79              		.size	CyBle_HidsInit, .-CyBle_HidsInit
  80              		.section	.text.CyBle_HidsRegisterAttrCallback,"ax",%progbits
  81              		.align	2
  82              		.global	CyBle_HidsRegisterAttrCallback
  83              		.code	16
  84              		.thumb_func
  85              		.type	CyBle_HidsRegisterAttrCallback, %function
  86              	CyBle_HidsRegisterAttrCallback:
  87              	.LFB3:
 105:Generated_Source\PSoC4/BLE_hids.c **** 
 106:Generated_Source\PSoC4/BLE_hids.c **** 
 107:Generated_Source\PSoC4/BLE_hids.c **** /****************************************************************************** 
 108:Generated_Source\PSoC4/BLE_hids.c **** * Function Name: CyBle_HidsRegisterAttrCallback
 109:Generated_Source\PSoC4/BLE_hids.c **** ***************************************************************************//**
 110:Generated_Source\PSoC4/BLE_hids.c **** * 
 111:Generated_Source\PSoC4/BLE_hids.c **** *  Registers a callback function for service specific attribute operations.
 112:Generated_Source\PSoC4/BLE_hids.c **** *  Service specific write requests from peer device will not be handled with
 113:Generated_Source\PSoC4/BLE_hids.c **** *  unregistered callback function.
 114:Generated_Source\PSoC4/BLE_hids.c **** * 
 115:Generated_Source\PSoC4/BLE_hids.c **** *  \param callbackFunc: An application layer event callback function to receive 
 116:Generated_Source\PSoC4/BLE_hids.c **** *                    events from the BLE Component. The definition of 
 117:Generated_Source\PSoC4/BLE_hids.c **** *                    CYBLE_CALLBACK_T for HID Service is:\n
 118:Generated_Source\PSoC4/BLE_hids.c **** *                    typedef void (* CYBLE_CALLBACK_T) (uint32 eventCode, 
 119:Generated_Source\PSoC4/BLE_hids.c **** *                                                       void *eventParam)
 120:Generated_Source\PSoC4/BLE_hids.c **** *                    * eventCode indicates the event that triggered this 
 121:Generated_Source\PSoC4/BLE_hids.c **** *                      callback (e.g. CYBLE_EVT_HIDS_NOTIFICATION_ENABLED).
 122:Generated_Source\PSoC4/BLE_hids.c **** *                    * eventParam contains the parameters corresponding to the 
 123:Generated_Source\PSoC4/BLE_hids.c **** *                      current event. (e.g. pointer to CYBLE_HIDS_CHAR_VALUE_T
 124:Generated_Source\PSoC4/BLE_hids.c **** *                      structure that contains details of the characteristic for 
 125:Generated_Source\PSoC4/BLE_hids.c **** *                      which notification enabled event was triggered).
 126:Generated_Source\PSoC4/BLE_hids.c **** *
 127:Generated_Source\PSoC4/BLE_hids.c **** *
 128:Generated_Source\PSoC4/BLE_hids.c **** * \sideeffect The *eventParams in the callback function should not be used by 
 129:Generated_Source\PSoC4/BLE_hids.c **** *                the application once the callback function execution is finished.
 130:Generated_Source\PSoC4/BLE_hids.c **** *                Otherwise this data may become corrupted.
 131:Generated_Source\PSoC4/BLE_hids.c **** * 
 132:Generated_Source\PSoC4/BLE_hids.c **** ******************************************************************************/
 133:Generated_Source\PSoC4/BLE_hids.c **** void CyBle_HidsRegisterAttrCallback(CYBLE_CALLBACK_T callbackFunc)
 134:Generated_Source\PSoC4/BLE_hids.c **** {
  88              		.loc 1 134 0
  89              		.cfi_startproc
  90 0000 80B5     		push	{r7, lr}
  91              		.cfi_def_cfa_offset 8
  92              		.cfi_offset 7, -8
  93              		.cfi_offset 14, -4
  94 0002 82B0     		sub	sp, sp, #8
ARM GAS  C:\Users\akita\AppData\Local\Temp\ccIEDY99.s 			page 5


  95              		.cfi_def_cfa_offset 16
  96 0004 00AF     		add	r7, sp, #0
  97              		.cfi_def_cfa_register 7
  98 0006 7860     		str	r0, [r7, #4]
 135:Generated_Source\PSoC4/BLE_hids.c ****     CyBle_HidsApplCallback = callbackFunc;
  99              		.loc 1 135 0
 100 0008 024B     		ldr	r3, .L3
 101 000a 7A68     		ldr	r2, [r7, #4]
 102 000c 1A60     		str	r2, [r3]
 136:Generated_Source\PSoC4/BLE_hids.c **** }
 103              		.loc 1 136 0
 104 000e BD46     		mov	sp, r7
 105 0010 02B0     		add	sp, sp, #8
 106              		@ sp needed
 107 0012 80BD     		pop	{r7, pc}
 108              	.L4:
 109              		.align	2
 110              	.L3:
 111 0014 00000000 		.word	CyBle_HidsApplCallback
 112              		.cfi_endproc
 113              	.LFE3:
 114              		.size	CyBle_HidsRegisterAttrCallback, .-CyBle_HidsRegisterAttrCallback
 115              		.section	.text.CyBle_HidssSetCharacteristicValue,"ax",%progbits
 116              		.align	2
 117              		.global	CyBle_HidssSetCharacteristicValue
 118              		.code	16
 119              		.thumb_func
 120              		.type	CyBle_HidssSetCharacteristicValue, %function
 121              	CyBle_HidssSetCharacteristicValue:
 122              	.LFB4:
 137:Generated_Source\PSoC4/BLE_hids.c **** 
 138:Generated_Source\PSoC4/BLE_hids.c **** #ifdef CYBLE_HIDS_SERVER
 139:Generated_Source\PSoC4/BLE_hids.c **** 
 140:Generated_Source\PSoC4/BLE_hids.c **** 
 141:Generated_Source\PSoC4/BLE_hids.c **** /****************************************************************************** 
 142:Generated_Source\PSoC4/BLE_hids.c **** * Function Name: CyBle_HidssSetCharacteristicValue
 143:Generated_Source\PSoC4/BLE_hids.c **** ***************************************************************************//**
 144:Generated_Source\PSoC4/BLE_hids.c **** * 
 145:Generated_Source\PSoC4/BLE_hids.c **** *  Sets local characteristic value of the specified HID Service characteristics.
 146:Generated_Source\PSoC4/BLE_hids.c **** * 
 147:Generated_Source\PSoC4/BLE_hids.c **** *  \param serviceIndex: The index of the service instance. e.g. If two HID Services are 
 148:Generated_Source\PSoC4/BLE_hids.c **** *                 supported in your design, then first service will be identified
 149:Generated_Source\PSoC4/BLE_hids.c **** *                 by serviceIndex of 0 and the second by serviceIndex of 1.
 150:Generated_Source\PSoC4/BLE_hids.c **** *  \param charIndex: The index of a service characteristic.
 151:Generated_Source\PSoC4/BLE_hids.c **** *              * CYBLE_HIDS_PROTOCOL_MODE - Protocol Mode characteristic
 152:Generated_Source\PSoC4/BLE_hids.c **** *              * CYBLE_HIDS_REPORT_MAP - Report Map characteristic
 153:Generated_Source\PSoC4/BLE_hids.c **** *              * CYBLE_HIDS_INFORMATION - HID Information characteristic
 154:Generated_Source\PSoC4/BLE_hids.c **** *              * CYBLE_HIDS_CONTROL_POINT - HID Control Point characteristic
 155:Generated_Source\PSoC4/BLE_hids.c **** *              * CYBLE_HIDS_BOOT_KYBRD_IN_REP - Boot Keyboard Input Report Characteristic
 156:Generated_Source\PSoC4/BLE_hids.c **** *              * CYBLE_HIDS_BOOT_KYBRD_OUT_REP - Boot Keyboard Output Report Characteristic
 157:Generated_Source\PSoC4/BLE_hids.c **** *              * CYBLE_HIDS_BOOT_MOUSE_IN_REP - Boot Mouse Input Report Characteristic
 158:Generated_Source\PSoC4/BLE_hids.c **** *              * CYBLE_HIDS_REPORT - Report Characteristic
 159:Generated_Source\PSoC4/BLE_hids.c **** * 
 160:Generated_Source\PSoC4/BLE_hids.c **** *  \param attrSize: The size of the characteristic value attribute.
 161:Generated_Source\PSoC4/BLE_hids.c **** * 
 162:Generated_Source\PSoC4/BLE_hids.c **** *  \param attrValue: The pointer to the characteristic value data that should be 
 163:Generated_Source\PSoC4/BLE_hids.c **** *               stored in the GATT database.
ARM GAS  C:\Users\akita\AppData\Local\Temp\ccIEDY99.s 			page 6


 164:Generated_Source\PSoC4/BLE_hids.c **** * 
 165:Generated_Source\PSoC4/BLE_hids.c **** * \return
 166:Generated_Source\PSoC4/BLE_hids.c **** *  Return value is of type CYBLE_API_RESULT_T.
 167:Generated_Source\PSoC4/BLE_hids.c **** *  * CYBLE_ERROR_OK - The request handled successfully.
 168:Generated_Source\PSoC4/BLE_hids.c **** *  * CYBLE_ERROR_INVALID_PARAMETER - Validation of the input parameter failed.
 169:Generated_Source\PSoC4/BLE_hids.c **** *  * CYBLE_ERROR_GATT_DB_INVALID_ATTR_HANDLE - Optional characteristic is absent
 170:Generated_Source\PSoC4/BLE_hids.c **** *
 171:Generated_Source\PSoC4/BLE_hids.c **** *
 172:Generated_Source\PSoC4/BLE_hids.c **** ******************************************************************************/
 173:Generated_Source\PSoC4/BLE_hids.c **** CYBLE_API_RESULT_T CyBle_HidssSetCharacteristicValue(uint8 serviceIndex, CYBLE_HIDS_CHAR_INDEX_T ch
 174:Generated_Source\PSoC4/BLE_hids.c ****     uint8 attrSize, uint8 *attrValue)
 175:Generated_Source\PSoC4/BLE_hids.c **** {
 123              		.loc 1 175 0
 124              		.cfi_startproc
 125 0000 90B5     		push	{r4, r7, lr}
 126              		.cfi_def_cfa_offset 12
 127              		.cfi_offset 4, -12
 128              		.cfi_offset 7, -8
 129              		.cfi_offset 14, -4
 130 0002 87B0     		sub	sp, sp, #28
 131              		.cfi_def_cfa_offset 40
 132 0004 00AF     		add	r7, sp, #0
 133              		.cfi_def_cfa_register 7
 134 0006 041C     		mov	r4, r0
 135 0008 081C     		mov	r0, r1
 136 000a 111C     		mov	r1, r2
 137 000c 3B60     		str	r3, [r7]
 138 000e FB1D     		add	r3, r7, #7
 139 0010 221C     		add	r2, r4, #0
 140 0012 1A70     		strb	r2, [r3]
 141 0014 BB1D     		add	r3, r7, #6
 142 0016 021C     		add	r2, r0, #0
 143 0018 1A70     		strb	r2, [r3]
 144 001a 7B1D     		add	r3, r7, #5
 145 001c 0A1C     		add	r2, r1, #0
 146 001e 1A70     		strb	r2, [r3]
 176:Generated_Source\PSoC4/BLE_hids.c ****     CYBLE_API_RESULT_T apiResult = CYBLE_ERROR_OK;
 147              		.loc 1 176 0
 148 0020 1623     		mov	r3, #22
 149 0022 FB18     		add	r3, r7, r3
 150 0024 0022     		mov	r2, #0
 151 0026 1A80     		strh	r2, [r3]
 177:Generated_Source\PSoC4/BLE_hids.c ****     CYBLE_GATT_DB_ATTR_HANDLE_T charValueHandle;
 178:Generated_Source\PSoC4/BLE_hids.c ****     CYBLE_GATT_HANDLE_VALUE_PAIR_T locHandleValuePair;
 179:Generated_Source\PSoC4/BLE_hids.c **** 
 180:Generated_Source\PSoC4/BLE_hids.c ****     if((serviceIndex >= CYBLE_HIDSS_SERVICE_COUNT) || (charIndex >= CYBLE_HIDS_CHAR_COUNT))
 152              		.loc 1 180 0
 153 0028 FB1D     		add	r3, r7, #7
 154 002a 1B78     		ldrb	r3, [r3]
 155 002c 002B     		cmp	r3, #0
 156 002e 03D1     		bne	.L6
 157              		.loc 1 180 0 is_stmt 0 discriminator 1
 158 0030 BB1D     		add	r3, r7, #6
 159 0032 1B78     		ldrb	r3, [r3]
 160 0034 082B     		cmp	r3, #8
 161 0036 04D9     		bls	.L7
 162              	.L6:
ARM GAS  C:\Users\akita\AppData\Local\Temp\ccIEDY99.s 			page 7


 181:Generated_Source\PSoC4/BLE_hids.c ****     {
 182:Generated_Source\PSoC4/BLE_hids.c ****         apiResult = CYBLE_ERROR_INVALID_PARAMETER;
 163              		.loc 1 182 0 is_stmt 1
 164 0038 1623     		mov	r3, #22
 165 003a FB18     		add	r3, r7, r3
 166 003c 0122     		mov	r2, #1
 167 003e 1A80     		strh	r2, [r3]
 168 0040 BBE0     		b	.L8
 169              	.L7:
 183:Generated_Source\PSoC4/BLE_hids.c ****     }
 184:Generated_Source\PSoC4/BLE_hids.c ****     else
 185:Generated_Source\PSoC4/BLE_hids.c ****     {
 186:Generated_Source\PSoC4/BLE_hids.c ****         switch(charIndex)
 170              		.loc 1 186 0
 171 0042 BB1D     		add	r3, r7, #6
 172 0044 1B78     		ldrb	r3, [r3]
 173 0046 062B     		cmp	r3, #6
 174 0048 65D8     		bhi	.L9
 175 004a 9A00     		lsl	r2, r3, #2
 176 004c 5E4B     		ldr	r3, .L24
 177 004e D318     		add	r3, r2, r3
 178 0050 1B68     		ldr	r3, [r3]
 179 0052 9F46     		mov	pc, r3
 180              		.section	.rodata
 181              		.align	2
 182              	.L11:
 183 0034 54000000 		.word	.L10
 184 0038 8A000000 		.word	.L12
 185 003c A6000000 		.word	.L13
 186 0040 6E000000 		.word	.L14
 187 0044 C2000000 		.word	.L15
 188 0048 DE000000 		.word	.L16
 189 004c FA000000 		.word	.L17
 190              		.section	.text.CyBle_HidssSetCharacteristicValue
 191              	.L10:
 187:Generated_Source\PSoC4/BLE_hids.c ****         {
 188:Generated_Source\PSoC4/BLE_hids.c ****             case CYBLE_HIDS_PROTOCOL_MODE:
 189:Generated_Source\PSoC4/BLE_hids.c ****                 charValueHandle = cyBle_hidss[serviceIndex].protocolModeHandle;
 192              		.loc 1 189 0
 193 0054 FB1D     		add	r3, r7, #7
 194 0056 1A78     		ldrb	r2, [r3]
 195 0058 1423     		mov	r3, #20
 196 005a F918     		add	r1, r7, r3
 197 005c 5B48     		ldr	r0, .L24+4
 198 005e 131C     		mov	r3, r2
 199 0060 9B00     		lsl	r3, r3, #2
 200 0062 9B18     		add	r3, r3, r2
 201 0064 DB00     		lsl	r3, r3, #3
 202 0066 C318     		add	r3, r0, r3
 203 0068 5B88     		ldrh	r3, [r3, #2]
 204 006a 0B80     		strh	r3, [r1]
 190:Generated_Source\PSoC4/BLE_hids.c ****                 break;
 205              		.loc 1 190 0
 206 006c 7DE0     		b	.L18
 207              	.L14:
 191:Generated_Source\PSoC4/BLE_hids.c ****             case CYBLE_HIDS_REPORT_MAP:
 192:Generated_Source\PSoC4/BLE_hids.c ****                 charValueHandle = cyBle_hidss[serviceIndex].reportMapHandle;
ARM GAS  C:\Users\akita\AppData\Local\Temp\ccIEDY99.s 			page 8


 208              		.loc 1 192 0
 209 006e FB1D     		add	r3, r7, #7
 210 0070 1A78     		ldrb	r2, [r3]
 211 0072 1423     		mov	r3, #20
 212 0074 F918     		add	r1, r7, r3
 213 0076 5548     		ldr	r0, .L24+4
 214 0078 131C     		mov	r3, r2
 215 007a 9B00     		lsl	r3, r3, #2
 216 007c 9B18     		add	r3, r3, r2
 217 007e DB00     		lsl	r3, r3, #3
 218 0080 C318     		add	r3, r0, r3
 219 0082 1833     		add	r3, r3, #24
 220 0084 DB88     		ldrh	r3, [r3, #6]
 221 0086 0B80     		strh	r3, [r1]
 193:Generated_Source\PSoC4/BLE_hids.c ****                 break;
 222              		.loc 1 193 0
 223 0088 6FE0     		b	.L18
 224              	.L12:
 194:Generated_Source\PSoC4/BLE_hids.c ****             case CYBLE_HIDS_INFORMATION:
 195:Generated_Source\PSoC4/BLE_hids.c ****                 charValueHandle = cyBle_hidss[serviceIndex].informationHandle;
 225              		.loc 1 195 0
 226 008a FB1D     		add	r3, r7, #7
 227 008c 1A78     		ldrb	r2, [r3]
 228 008e 1423     		mov	r3, #20
 229 0090 F918     		add	r1, r7, r3
 230 0092 4E48     		ldr	r0, .L24+4
 231 0094 131C     		mov	r3, r2
 232 0096 9B00     		lsl	r3, r3, #2
 233 0098 9B18     		add	r3, r3, r2
 234 009a DB00     		lsl	r3, r3, #3
 235 009c C318     		add	r3, r0, r3
 236 009e 2033     		add	r3, r3, #32
 237 00a0 5B88     		ldrh	r3, [r3, #2]
 238 00a2 0B80     		strh	r3, [r1]
 196:Generated_Source\PSoC4/BLE_hids.c ****                 break;
 239              		.loc 1 196 0
 240 00a4 61E0     		b	.L18
 241              	.L13:
 197:Generated_Source\PSoC4/BLE_hids.c ****             case CYBLE_HIDS_CONTROL_POINT:
 198:Generated_Source\PSoC4/BLE_hids.c ****                 charValueHandle = cyBle_hidss[serviceIndex].controlPointHandle;
 242              		.loc 1 198 0
 243 00a6 FB1D     		add	r3, r7, #7
 244 00a8 1A78     		ldrb	r2, [r3]
 245 00aa 1423     		mov	r3, #20
 246 00ac F918     		add	r1, r7, r3
 247 00ae 4748     		ldr	r0, .L24+4
 248 00b0 131C     		mov	r3, r2
 249 00b2 9B00     		lsl	r3, r3, #2
 250 00b4 9B18     		add	r3, r3, r2
 251 00b6 DB00     		lsl	r3, r3, #3
 252 00b8 C318     		add	r3, r0, r3
 253 00ba 2033     		add	r3, r3, #32
 254 00bc 9B88     		ldrh	r3, [r3, #4]
 255 00be 0B80     		strh	r3, [r1]
 199:Generated_Source\PSoC4/BLE_hids.c ****                 break;
 256              		.loc 1 199 0
 257 00c0 53E0     		b	.L18
ARM GAS  C:\Users\akita\AppData\Local\Temp\ccIEDY99.s 			page 9


 258              	.L15:
 200:Generated_Source\PSoC4/BLE_hids.c ****             case CYBLE_HIDS_BOOT_KYBRD_IN_REP:
 201:Generated_Source\PSoC4/BLE_hids.c ****                 charValueHandle = cyBle_hidss[serviceIndex].bootReportArray[CYBLE_HIDS_BOOT_KYBRD_I
 259              		.loc 1 201 0
 260 00c2 FB1D     		add	r3, r7, #7
 261 00c4 1A78     		ldrb	r2, [r3]
 262 00c6 1423     		mov	r3, #20
 263 00c8 F918     		add	r1, r7, r3
 264 00ca 4048     		ldr	r0, .L24+4
 265 00cc 131C     		mov	r3, r2
 266 00ce 9B00     		lsl	r3, r3, #2
 267 00d0 9B18     		add	r3, r3, r2
 268 00d2 DB00     		lsl	r3, r3, #3
 269 00d4 C318     		add	r3, r0, r3
 270 00d6 0833     		add	r3, r3, #8
 271 00d8 9B88     		ldrh	r3, [r3, #4]
 272 00da 0B80     		strh	r3, [r1]
 202:Generated_Source\PSoC4/BLE_hids.c ****                     reportHandle;
 203:Generated_Source\PSoC4/BLE_hids.c ****                 break;
 273              		.loc 1 203 0
 274 00dc 45E0     		b	.L18
 275              	.L16:
 204:Generated_Source\PSoC4/BLE_hids.c ****             case CYBLE_HIDS_BOOT_KYBRD_OUT_REP:
 205:Generated_Source\PSoC4/BLE_hids.c ****                 charValueHandle = cyBle_hidss[serviceIndex].bootReportArray[CYBLE_HIDS_BOOT_KYBRD_O
 276              		.loc 1 205 0
 277 00de FB1D     		add	r3, r7, #7
 278 00e0 1A78     		ldrb	r2, [r3]
 279 00e2 1423     		mov	r3, #20
 280 00e4 F918     		add	r1, r7, r3
 281 00e6 3948     		ldr	r0, .L24+4
 282 00e8 131C     		mov	r3, r2
 283 00ea 9B00     		lsl	r3, r3, #2
 284 00ec 9B18     		add	r3, r3, r2
 285 00ee DB00     		lsl	r3, r3, #3
 286 00f0 C318     		add	r3, r0, r3
 287 00f2 0E33     		add	r3, r3, #14
 288 00f4 9B88     		ldrh	r3, [r3, #4]
 289 00f6 0B80     		strh	r3, [r1]
 206:Generated_Source\PSoC4/BLE_hids.c ****                     reportHandle;
 207:Generated_Source\PSoC4/BLE_hids.c ****                 break;
 290              		.loc 1 207 0
 291 00f8 37E0     		b	.L18
 292              	.L17:
 208:Generated_Source\PSoC4/BLE_hids.c ****             case CYBLE_HIDS_BOOT_MOUSE_IN_REP:
 209:Generated_Source\PSoC4/BLE_hids.c ****                 charValueHandle = cyBle_hidss[serviceIndex].bootReportArray[CYBLE_HIDS_BOOT_MOUSE_I
 293              		.loc 1 209 0
 294 00fa FB1D     		add	r3, r7, #7
 295 00fc 1A78     		ldrb	r2, [r3]
 296 00fe 1423     		mov	r3, #20
 297 0100 F918     		add	r1, r7, r3
 298 0102 3248     		ldr	r0, .L24+4
 299 0104 131C     		mov	r3, r2
 300 0106 9B00     		lsl	r3, r3, #2
 301 0108 9B18     		add	r3, r3, r2
 302 010a DB00     		lsl	r3, r3, #3
 303 010c C318     		add	r3, r0, r3
 304 010e 1433     		add	r3, r3, #20
ARM GAS  C:\Users\akita\AppData\Local\Temp\ccIEDY99.s 			page 10


 305 0110 9B88     		ldrh	r3, [r3, #4]
 306 0112 0B80     		strh	r3, [r1]
 210:Generated_Source\PSoC4/BLE_hids.c ****                     reportHandle;
 211:Generated_Source\PSoC4/BLE_hids.c ****                 break;
 307              		.loc 1 211 0
 308 0114 29E0     		b	.L18
 309              	.L9:
 212:Generated_Source\PSoC4/BLE_hids.c ****             default:                    /* Report characteristic */
 213:Generated_Source\PSoC4/BLE_hids.c ****                 /* Verify that requested report exists in particular service */
 214:Generated_Source\PSoC4/BLE_hids.c ****                 if((charIndex - CYBLE_HIDS_REPORT) < cyBle_hidss[serviceIndex].reportCount)
 310              		.loc 1 214 0
 311 0116 BB1D     		add	r3, r7, #6
 312 0118 1B78     		ldrb	r3, [r3]
 313 011a D91F     		sub	r1, r3, #7
 314 011c FB1D     		add	r3, r7, #7
 315 011e 1A78     		ldrb	r2, [r3]
 316 0120 2A48     		ldr	r0, .L24+4
 317 0122 131C     		mov	r3, r2
 318 0124 9B00     		lsl	r3, r3, #2
 319 0126 9B18     		add	r3, r3, r2
 320 0128 DB00     		lsl	r3, r3, #3
 321 012a C318     		add	r3, r0, r3
 322 012c 1B79     		ldrb	r3, [r3, #4]
 323 012e 9942     		cmp	r1, r3
 324 0130 16DA     		bge	.L19
 215:Generated_Source\PSoC4/BLE_hids.c ****                 {
 216:Generated_Source\PSoC4/BLE_hids.c ****                     charValueHandle = cyBle_hidss[serviceIndex].reportArray[charIndex - CYBLE_HIDS_
 325              		.loc 1 216 0
 326 0132 FB1D     		add	r3, r7, #7
 327 0134 1A78     		ldrb	r2, [r3]
 328 0136 2549     		ldr	r1, .L24+4
 329 0138 131C     		mov	r3, r2
 330 013a 9B00     		lsl	r3, r3, #2
 331 013c 9B18     		add	r3, r3, r2
 332 013e DB00     		lsl	r3, r3, #3
 333 0140 CB18     		add	r3, r1, r3
 334 0142 0833     		add	r3, r3, #8
 335 0144 1968     		ldr	r1, [r3]
 336 0146 BB1D     		add	r3, r7, #6
 337 0148 1A78     		ldrb	r2, [r3]
 338 014a 131C     		mov	r3, r2
 339 014c 5B00     		lsl	r3, r3, #1
 340 014e 9B18     		add	r3, r3, r2
 341 0150 5B00     		lsl	r3, r3, #1
 342 0152 2A3B     		sub	r3, r3, #42
 343 0154 CA18     		add	r2, r1, r3
 344 0156 1423     		mov	r3, #20
 345 0158 FB18     		add	r3, r7, r3
 346 015a 1288     		ldrh	r2, [r2]
 347 015c 1A80     		strh	r2, [r3]
 217:Generated_Source\PSoC4/BLE_hids.c ****                 }
 218:Generated_Source\PSoC4/BLE_hids.c ****                 else
 219:Generated_Source\PSoC4/BLE_hids.c ****                 {
 220:Generated_Source\PSoC4/BLE_hids.c ****                     charValueHandle = CYBLE_GATT_INVALID_ATTR_HANDLE_VALUE;
 221:Generated_Source\PSoC4/BLE_hids.c ****                 }
 222:Generated_Source\PSoC4/BLE_hids.c ****                 break;
 348              		.loc 1 222 0
ARM GAS  C:\Users\akita\AppData\Local\Temp\ccIEDY99.s 			page 11


 349 015e 03E0     		b	.L23
 350              	.L19:
 220:Generated_Source\PSoC4/BLE_hids.c ****                 }
 351              		.loc 1 220 0
 352 0160 1423     		mov	r3, #20
 353 0162 FB18     		add	r3, r7, r3
 354 0164 0022     		mov	r2, #0
 355 0166 1A80     		strh	r2, [r3]
 356              	.L23:
 357              		.loc 1 222 0
 358 0168 C046     		mov	r8, r8
 359              	.L18:
 223:Generated_Source\PSoC4/BLE_hids.c ****         }
 224:Generated_Source\PSoC4/BLE_hids.c ****         if(charValueHandle == CYBLE_GATT_INVALID_ATTR_HANDLE_VALUE)
 360              		.loc 1 224 0
 361 016a 1423     		mov	r3, #20
 362 016c FB18     		add	r3, r7, r3
 363 016e 1B88     		ldrh	r3, [r3]
 364 0170 002B     		cmp	r3, #0
 365 0172 04D1     		bne	.L21
 225:Generated_Source\PSoC4/BLE_hids.c ****         {
 226:Generated_Source\PSoC4/BLE_hids.c ****             apiResult = CYBLE_ERROR_GATT_DB_INVALID_ATTR_HANDLE;
 366              		.loc 1 226 0
 367 0174 1623     		mov	r3, #22
 368 0176 FB18     		add	r3, r7, r3
 369 0178 1322     		mov	r2, #19
 370 017a 1A80     		strh	r2, [r3]
 371 017c 1DE0     		b	.L8
 372              	.L21:
 227:Generated_Source\PSoC4/BLE_hids.c ****         }
 228:Generated_Source\PSoC4/BLE_hids.c ****         else
 229:Generated_Source\PSoC4/BLE_hids.c ****         {
 230:Generated_Source\PSoC4/BLE_hids.c ****             /* Store data in database */
 231:Generated_Source\PSoC4/BLE_hids.c ****             locHandleValuePair.attrHandle = charValueHandle;
 373              		.loc 1 231 0
 374 017e 0823     		mov	r3, #8
 375 0180 FB18     		add	r3, r7, r3
 376 0182 1422     		mov	r2, #20
 377 0184 BA18     		add	r2, r7, r2
 378 0186 1288     		ldrh	r2, [r2]
 379 0188 1A81     		strh	r2, [r3, #8]
 232:Generated_Source\PSoC4/BLE_hids.c ****             locHandleValuePair.value.len = attrSize;
 380              		.loc 1 232 0
 381 018a 7B1D     		add	r3, r7, #5
 382 018c 1B78     		ldrb	r3, [r3]
 383 018e 9AB2     		uxth	r2, r3
 384 0190 0823     		mov	r3, #8
 385 0192 FB18     		add	r3, r7, r3
 386 0194 9A80     		strh	r2, [r3, #4]
 233:Generated_Source\PSoC4/BLE_hids.c ****             locHandleValuePair.value.val = attrValue;
 387              		.loc 1 233 0
 388 0196 0823     		mov	r3, #8
 389 0198 FB18     		add	r3, r7, r3
 390 019a 3A68     		ldr	r2, [r7]
 391 019c 1A60     		str	r2, [r3]
 234:Generated_Source\PSoC4/BLE_hids.c **** 
 235:Generated_Source\PSoC4/BLE_hids.c ****             if(CYBLE_GATT_ERR_NONE !=
ARM GAS  C:\Users\akita\AppData\Local\Temp\ccIEDY99.s 			page 12


 236:Generated_Source\PSoC4/BLE_hids.c ****                 CyBle_GattsWriteAttributeValue(&locHandleValuePair, 0u, NULL, CYBLE_GATT_DB_LOCALLY
 392              		.loc 1 236 0
 393 019e 0823     		mov	r3, #8
 394 01a0 FB18     		add	r3, r7, r3
 395 01a2 181C     		mov	r0, r3
 396 01a4 0021     		mov	r1, #0
 397 01a6 0022     		mov	r2, #0
 398 01a8 0023     		mov	r3, #0
 399 01aa FFF7FEFF 		bl	CyBle_GattsWriteAttributeValue
 400 01ae 031E     		sub	r3, r0, #0
 235:Generated_Source\PSoC4/BLE_hids.c ****                 CyBle_GattsWriteAttributeValue(&locHandleValuePair, 0u, NULL, CYBLE_GATT_DB_LOCALLY
 401              		.loc 1 235 0
 402 01b0 03D0     		beq	.L8
 237:Generated_Source\PSoC4/BLE_hids.c ****             {
 238:Generated_Source\PSoC4/BLE_hids.c ****                 apiResult = CYBLE_ERROR_INVALID_PARAMETER;
 403              		.loc 1 238 0
 404 01b2 1623     		mov	r3, #22
 405 01b4 FB18     		add	r3, r7, r3
 406 01b6 0122     		mov	r2, #1
 407 01b8 1A80     		strh	r2, [r3]
 408              	.L8:
 239:Generated_Source\PSoC4/BLE_hids.c ****             }
 240:Generated_Source\PSoC4/BLE_hids.c ****         }
 241:Generated_Source\PSoC4/BLE_hids.c ****     }
 242:Generated_Source\PSoC4/BLE_hids.c ****     return (apiResult);
 409              		.loc 1 242 0
 410 01ba 1623     		mov	r3, #22
 411 01bc FB18     		add	r3, r7, r3
 412 01be 1B88     		ldrh	r3, [r3]
 243:Generated_Source\PSoC4/BLE_hids.c **** }
 413              		.loc 1 243 0
 414 01c0 181C     		mov	r0, r3
 415 01c2 BD46     		mov	sp, r7
 416 01c4 07B0     		add	sp, sp, #28
 417              		@ sp needed
 418 01c6 90BD     		pop	{r4, r7, pc}
 419              	.L25:
 420              		.align	2
 421              	.L24:
 422 01c8 34000000 		.word	.L11
 423 01cc 00000000 		.word	cyBle_hidss
 424              		.cfi_endproc
 425              	.LFE4:
 426              		.size	CyBle_HidssSetCharacteristicValue, .-CyBle_HidssSetCharacteristicValue
 427              		.section	.text.CyBle_HidssGetCharacteristicValue,"ax",%progbits
 428              		.align	2
 429              		.global	CyBle_HidssGetCharacteristicValue
 430              		.code	16
 431              		.thumb_func
 432              		.type	CyBle_HidssGetCharacteristicValue, %function
 433              	CyBle_HidssGetCharacteristicValue:
 434              	.LFB5:
 244:Generated_Source\PSoC4/BLE_hids.c **** 
 245:Generated_Source\PSoC4/BLE_hids.c **** 
 246:Generated_Source\PSoC4/BLE_hids.c **** /****************************************************************************** 
 247:Generated_Source\PSoC4/BLE_hids.c **** * Function Name: CyBle_HidssGetCharacteristicValue
 248:Generated_Source\PSoC4/BLE_hids.c **** ***************************************************************************//**
ARM GAS  C:\Users\akita\AppData\Local\Temp\ccIEDY99.s 			page 13


 249:Generated_Source\PSoC4/BLE_hids.c **** * 
 250:Generated_Source\PSoC4/BLE_hids.c **** *  Gets local characteristic value of the specified HID Service characteristics.
 251:Generated_Source\PSoC4/BLE_hids.c **** * 
 252:Generated_Source\PSoC4/BLE_hids.c **** *  \param serviceIndex: The index of the service instance. e.g. If two HID Services are 
 253:Generated_Source\PSoC4/BLE_hids.c **** *                 supported in your design, then first service will be identified
 254:Generated_Source\PSoC4/BLE_hids.c **** *                 by serviceIndex of 0 and the second by serviceIndex of 1.
 255:Generated_Source\PSoC4/BLE_hids.c **** * 
 256:Generated_Source\PSoC4/BLE_hids.c **** *  \param charIndex: The index of the service characteristic. 
 257:Generated_Source\PSoC4/BLE_hids.c **** *              * CYBLE_HIDS_PROTOCOL_MODE - Protocol Mode characteristic
 258:Generated_Source\PSoC4/BLE_hids.c **** *              * CYBLE_HIDS_REPORT_MAP - Report Map characteristic
 259:Generated_Source\PSoC4/BLE_hids.c **** *              * CYBLE_HIDS_INFORMATION - HID Information characteristic
 260:Generated_Source\PSoC4/BLE_hids.c **** *              * CYBLE_HIDS_CONTROL_POINT - HID Control Point characteristic
 261:Generated_Source\PSoC4/BLE_hids.c **** *              * CYBLE_HIDS_BOOT_KYBRD_IN_REP - Boot Keyboard Input Report Characteristic
 262:Generated_Source\PSoC4/BLE_hids.c **** *              * CYBLE_HIDS_BOOT_KYBRD_OUT_REP - Boot Keyboard Output Report Characteristic
 263:Generated_Source\PSoC4/BLE_hids.c **** *              * CYBLE_HIDS_BOOT_MOUSE_IN_REP - Boot Mouse Input Report Characteristic
 264:Generated_Source\PSoC4/BLE_hids.c **** *              * CYBLE_HIDS_REPORT - Report Characteristic
 265:Generated_Source\PSoC4/BLE_hids.c **** * 
 266:Generated_Source\PSoC4/BLE_hids.c **** *  \param attrSize: The size of the characteristic value attribute.
 267:Generated_Source\PSoC4/BLE_hids.c **** * 
 268:Generated_Source\PSoC4/BLE_hids.c **** *  \param attrValue: The pointer to the location where characteristic value data
 269:Generated_Source\PSoC4/BLE_hids.c **** *               should be stored.
 270:Generated_Source\PSoC4/BLE_hids.c **** * 
 271:Generated_Source\PSoC4/BLE_hids.c **** * \return
 272:Generated_Source\PSoC4/BLE_hids.c **** *  Return value is of type CYBLE_API_RESULT_T.
 273:Generated_Source\PSoC4/BLE_hids.c **** *  * CYBLE_ERROR_OK - The request handled successfully
 274:Generated_Source\PSoC4/BLE_hids.c **** *  * CYBLE_ERROR_INVALID_PARAMETER - Validation of the input parameter failed
 275:Generated_Source\PSoC4/BLE_hids.c **** *  * CYBLE_ERROR_GATT_DB_INVALID_ATTR_HANDLE - Optional characteristic is absent
 276:Generated_Source\PSoC4/BLE_hids.c **** *
 277:Generated_Source\PSoC4/BLE_hids.c **** *
 278:Generated_Source\PSoC4/BLE_hids.c **** ******************************************************************************/
 279:Generated_Source\PSoC4/BLE_hids.c **** CYBLE_API_RESULT_T CyBle_HidssGetCharacteristicValue(uint8 serviceIndex, CYBLE_HIDS_CHAR_INDEX_T ch
 280:Generated_Source\PSoC4/BLE_hids.c ****     uint8 attrSize, uint8 *attrValue)
 281:Generated_Source\PSoC4/BLE_hids.c **** {
 435              		.loc 1 281 0
 436              		.cfi_startproc
 437 0000 90B5     		push	{r4, r7, lr}
 438              		.cfi_def_cfa_offset 12
 439              		.cfi_offset 4, -12
 440              		.cfi_offset 7, -8
 441              		.cfi_offset 14, -4
 442 0002 87B0     		sub	sp, sp, #28
 443              		.cfi_def_cfa_offset 40
 444 0004 00AF     		add	r7, sp, #0
 445              		.cfi_def_cfa_register 7
 446 0006 041C     		mov	r4, r0
 447 0008 081C     		mov	r0, r1
 448 000a 111C     		mov	r1, r2
 449 000c 3B60     		str	r3, [r7]
 450 000e FB1D     		add	r3, r7, #7
 451 0010 221C     		add	r2, r4, #0
 452 0012 1A70     		strb	r2, [r3]
 453 0014 BB1D     		add	r3, r7, #6
 454 0016 021C     		add	r2, r0, #0
 455 0018 1A70     		strb	r2, [r3]
 456 001a 7B1D     		add	r3, r7, #5
 457 001c 0A1C     		add	r2, r1, #0
 458 001e 1A70     		strb	r2, [r3]
ARM GAS  C:\Users\akita\AppData\Local\Temp\ccIEDY99.s 			page 14


 282:Generated_Source\PSoC4/BLE_hids.c ****     CYBLE_API_RESULT_T apiResult = CYBLE_ERROR_OK;
 459              		.loc 1 282 0
 460 0020 1623     		mov	r3, #22
 461 0022 FB18     		add	r3, r7, r3
 462 0024 0022     		mov	r2, #0
 463 0026 1A80     		strh	r2, [r3]
 283:Generated_Source\PSoC4/BLE_hids.c ****     CYBLE_GATT_DB_ATTR_HANDLE_T charValueHandle;
 284:Generated_Source\PSoC4/BLE_hids.c ****     CYBLE_GATT_HANDLE_VALUE_PAIR_T locHandleValuePair;
 285:Generated_Source\PSoC4/BLE_hids.c **** 
 286:Generated_Source\PSoC4/BLE_hids.c ****     if((serviceIndex >= CYBLE_HIDSS_SERVICE_COUNT) || (charIndex >= CYBLE_HIDS_CHAR_COUNT))
 464              		.loc 1 286 0
 465 0028 FB1D     		add	r3, r7, #7
 466 002a 1B78     		ldrb	r3, [r3]
 467 002c 002B     		cmp	r3, #0
 468 002e 03D1     		bne	.L27
 469              		.loc 1 286 0 is_stmt 0 discriminator 1
 470 0030 BB1D     		add	r3, r7, #6
 471 0032 1B78     		ldrb	r3, [r3]
 472 0034 082B     		cmp	r3, #8
 473 0036 04D9     		bls	.L28
 474              	.L27:
 287:Generated_Source\PSoC4/BLE_hids.c ****     {
 288:Generated_Source\PSoC4/BLE_hids.c ****         apiResult = CYBLE_ERROR_INVALID_PARAMETER;
 475              		.loc 1 288 0 is_stmt 1
 476 0038 1623     		mov	r3, #22
 477 003a FB18     		add	r3, r7, r3
 478 003c 0122     		mov	r2, #1
 479 003e 1A80     		strh	r2, [r3]
 480 0040 BAE0     		b	.L29
 481              	.L28:
 289:Generated_Source\PSoC4/BLE_hids.c ****     }
 290:Generated_Source\PSoC4/BLE_hids.c ****     else
 291:Generated_Source\PSoC4/BLE_hids.c ****     {
 292:Generated_Source\PSoC4/BLE_hids.c ****         switch(charIndex)
 482              		.loc 1 292 0
 483 0042 BB1D     		add	r3, r7, #6
 484 0044 1B78     		ldrb	r3, [r3]
 485 0046 062B     		cmp	r3, #6
 486 0048 65D8     		bhi	.L30
 487 004a 9A00     		lsl	r2, r3, #2
 488 004c 5E4B     		ldr	r3, .L45
 489 004e D318     		add	r3, r2, r3
 490 0050 1B68     		ldr	r3, [r3]
 491 0052 9F46     		mov	pc, r3
 492              		.section	.rodata
 493              		.align	2
 494              	.L32:
 495 0050 54000000 		.word	.L31
 496 0054 8A000000 		.word	.L33
 497 0058 A6000000 		.word	.L34
 498 005c 6E000000 		.word	.L35
 499 0060 C2000000 		.word	.L36
 500 0064 DE000000 		.word	.L37
 501 0068 FA000000 		.word	.L38
 502              		.section	.text.CyBle_HidssGetCharacteristicValue
 503              	.L31:
 293:Generated_Source\PSoC4/BLE_hids.c ****         {
ARM GAS  C:\Users\akita\AppData\Local\Temp\ccIEDY99.s 			page 15


 294:Generated_Source\PSoC4/BLE_hids.c ****             case CYBLE_HIDS_PROTOCOL_MODE:
 295:Generated_Source\PSoC4/BLE_hids.c ****                 charValueHandle = cyBle_hidss[serviceIndex].protocolModeHandle;
 504              		.loc 1 295 0
 505 0054 FB1D     		add	r3, r7, #7
 506 0056 1A78     		ldrb	r2, [r3]
 507 0058 1423     		mov	r3, #20
 508 005a F918     		add	r1, r7, r3
 509 005c 5B48     		ldr	r0, .L45+4
 510 005e 131C     		mov	r3, r2
 511 0060 9B00     		lsl	r3, r3, #2
 512 0062 9B18     		add	r3, r3, r2
 513 0064 DB00     		lsl	r3, r3, #3
 514 0066 C318     		add	r3, r0, r3
 515 0068 5B88     		ldrh	r3, [r3, #2]
 516 006a 0B80     		strh	r3, [r1]
 296:Generated_Source\PSoC4/BLE_hids.c ****                 break;
 517              		.loc 1 296 0
 518 006c 7DE0     		b	.L39
 519              	.L35:
 297:Generated_Source\PSoC4/BLE_hids.c ****             case CYBLE_HIDS_REPORT_MAP:
 298:Generated_Source\PSoC4/BLE_hids.c ****                 charValueHandle = cyBle_hidss[serviceIndex].reportMapHandle;
 520              		.loc 1 298 0
 521 006e FB1D     		add	r3, r7, #7
 522 0070 1A78     		ldrb	r2, [r3]
 523 0072 1423     		mov	r3, #20
 524 0074 F918     		add	r1, r7, r3
 525 0076 5548     		ldr	r0, .L45+4
 526 0078 131C     		mov	r3, r2
 527 007a 9B00     		lsl	r3, r3, #2
 528 007c 9B18     		add	r3, r3, r2
 529 007e DB00     		lsl	r3, r3, #3
 530 0080 C318     		add	r3, r0, r3
 531 0082 1833     		add	r3, r3, #24
 532 0084 DB88     		ldrh	r3, [r3, #6]
 533 0086 0B80     		strh	r3, [r1]
 299:Generated_Source\PSoC4/BLE_hids.c ****                 break;
 534              		.loc 1 299 0
 535 0088 6FE0     		b	.L39
 536              	.L33:
 300:Generated_Source\PSoC4/BLE_hids.c ****             case CYBLE_HIDS_INFORMATION:
 301:Generated_Source\PSoC4/BLE_hids.c ****                 charValueHandle = cyBle_hidss[serviceIndex].informationHandle;
 537              		.loc 1 301 0
 538 008a FB1D     		add	r3, r7, #7
 539 008c 1A78     		ldrb	r2, [r3]
 540 008e 1423     		mov	r3, #20
 541 0090 F918     		add	r1, r7, r3
 542 0092 4E48     		ldr	r0, .L45+4
 543 0094 131C     		mov	r3, r2
 544 0096 9B00     		lsl	r3, r3, #2
 545 0098 9B18     		add	r3, r3, r2
 546 009a DB00     		lsl	r3, r3, #3
 547 009c C318     		add	r3, r0, r3
 548 009e 2033     		add	r3, r3, #32
 549 00a0 5B88     		ldrh	r3, [r3, #2]
 550 00a2 0B80     		strh	r3, [r1]
 302:Generated_Source\PSoC4/BLE_hids.c ****                 break;
 551              		.loc 1 302 0
ARM GAS  C:\Users\akita\AppData\Local\Temp\ccIEDY99.s 			page 16


 552 00a4 61E0     		b	.L39
 553              	.L34:
 303:Generated_Source\PSoC4/BLE_hids.c ****             case CYBLE_HIDS_CONTROL_POINT:
 304:Generated_Source\PSoC4/BLE_hids.c ****                 charValueHandle = cyBle_hidss[serviceIndex].controlPointHandle;
 554              		.loc 1 304 0
 555 00a6 FB1D     		add	r3, r7, #7
 556 00a8 1A78     		ldrb	r2, [r3]
 557 00aa 1423     		mov	r3, #20
 558 00ac F918     		add	r1, r7, r3
 559 00ae 4748     		ldr	r0, .L45+4
 560 00b0 131C     		mov	r3, r2
 561 00b2 9B00     		lsl	r3, r3, #2
 562 00b4 9B18     		add	r3, r3, r2
 563 00b6 DB00     		lsl	r3, r3, #3
 564 00b8 C318     		add	r3, r0, r3
 565 00ba 2033     		add	r3, r3, #32
 566 00bc 9B88     		ldrh	r3, [r3, #4]
 567 00be 0B80     		strh	r3, [r1]
 305:Generated_Source\PSoC4/BLE_hids.c ****                 break;
 568              		.loc 1 305 0
 569 00c0 53E0     		b	.L39
 570              	.L36:
 306:Generated_Source\PSoC4/BLE_hids.c ****             case CYBLE_HIDS_BOOT_KYBRD_IN_REP:
 307:Generated_Source\PSoC4/BLE_hids.c ****                 charValueHandle =
 308:Generated_Source\PSoC4/BLE_hids.c ****                     cyBle_hidss[serviceIndex].bootReportArray[CYBLE_HIDS_BOOT_KYBRD_IN_REP_INDX].re
 571              		.loc 1 308 0
 572 00c2 FB1D     		add	r3, r7, #7
 573 00c4 1A78     		ldrb	r2, [r3]
 307:Generated_Source\PSoC4/BLE_hids.c ****                     cyBle_hidss[serviceIndex].bootReportArray[CYBLE_HIDS_BOOT_KYBRD_IN_REP_INDX].re
 574              		.loc 1 307 0
 575 00c6 1423     		mov	r3, #20
 576 00c8 F918     		add	r1, r7, r3
 577 00ca 4048     		ldr	r0, .L45+4
 578 00cc 131C     		mov	r3, r2
 579 00ce 9B00     		lsl	r3, r3, #2
 580 00d0 9B18     		add	r3, r3, r2
 581 00d2 DB00     		lsl	r3, r3, #3
 582 00d4 C318     		add	r3, r0, r3
 583 00d6 0833     		add	r3, r3, #8
 584 00d8 9B88     		ldrh	r3, [r3, #4]
 585 00da 0B80     		strh	r3, [r1]
 309:Generated_Source\PSoC4/BLE_hids.c ****                 break;
 586              		.loc 1 309 0
 587 00dc 45E0     		b	.L39
 588              	.L37:
 310:Generated_Source\PSoC4/BLE_hids.c ****             case CYBLE_HIDS_BOOT_KYBRD_OUT_REP:
 311:Generated_Source\PSoC4/BLE_hids.c ****                 charValueHandle =
 312:Generated_Source\PSoC4/BLE_hids.c ****                     cyBle_hidss[serviceIndex].bootReportArray[CYBLE_HIDS_BOOT_KYBRD_OUT_REP_INDX].r
 589              		.loc 1 312 0
 590 00de FB1D     		add	r3, r7, #7
 591 00e0 1A78     		ldrb	r2, [r3]
 311:Generated_Source\PSoC4/BLE_hids.c ****                     cyBle_hidss[serviceIndex].bootReportArray[CYBLE_HIDS_BOOT_KYBRD_OUT_REP_INDX].r
 592              		.loc 1 311 0
 593 00e2 1423     		mov	r3, #20
 594 00e4 F918     		add	r1, r7, r3
 595 00e6 3948     		ldr	r0, .L45+4
 596 00e8 131C     		mov	r3, r2
ARM GAS  C:\Users\akita\AppData\Local\Temp\ccIEDY99.s 			page 17


 597 00ea 9B00     		lsl	r3, r3, #2
 598 00ec 9B18     		add	r3, r3, r2
 599 00ee DB00     		lsl	r3, r3, #3
 600 00f0 C318     		add	r3, r0, r3
 601 00f2 0E33     		add	r3, r3, #14
 602 00f4 9B88     		ldrh	r3, [r3, #4]
 603 00f6 0B80     		strh	r3, [r1]
 313:Generated_Source\PSoC4/BLE_hids.c ****                 break;
 604              		.loc 1 313 0
 605 00f8 37E0     		b	.L39
 606              	.L38:
 314:Generated_Source\PSoC4/BLE_hids.c ****             case CYBLE_HIDS_BOOT_MOUSE_IN_REP:
 315:Generated_Source\PSoC4/BLE_hids.c ****                 charValueHandle =
 316:Generated_Source\PSoC4/BLE_hids.c ****                     cyBle_hidss[serviceIndex].bootReportArray[CYBLE_HIDS_BOOT_MOUSE_IN_REP_INDX].re
 607              		.loc 1 316 0
 608 00fa FB1D     		add	r3, r7, #7
 609 00fc 1A78     		ldrb	r2, [r3]
 315:Generated_Source\PSoC4/BLE_hids.c ****                     cyBle_hidss[serviceIndex].bootReportArray[CYBLE_HIDS_BOOT_MOUSE_IN_REP_INDX].re
 610              		.loc 1 315 0
 611 00fe 1423     		mov	r3, #20
 612 0100 F918     		add	r1, r7, r3
 613 0102 3248     		ldr	r0, .L45+4
 614 0104 131C     		mov	r3, r2
 615 0106 9B00     		lsl	r3, r3, #2
 616 0108 9B18     		add	r3, r3, r2
 617 010a DB00     		lsl	r3, r3, #3
 618 010c C318     		add	r3, r0, r3
 619 010e 1433     		add	r3, r3, #20
 620 0110 9B88     		ldrh	r3, [r3, #4]
 621 0112 0B80     		strh	r3, [r1]
 317:Generated_Source\PSoC4/BLE_hids.c ****                 break;
 622              		.loc 1 317 0
 623 0114 29E0     		b	.L39
 624              	.L30:
 318:Generated_Source\PSoC4/BLE_hids.c ****             default:                    /* Report characteristic */
 319:Generated_Source\PSoC4/BLE_hids.c ****                 /* Verify that requested report exists in particular service */
 320:Generated_Source\PSoC4/BLE_hids.c ****                 if((charIndex - CYBLE_HIDS_REPORT) < cyBle_hidss[serviceIndex].reportCount)
 625              		.loc 1 320 0
 626 0116 BB1D     		add	r3, r7, #6
 627 0118 1B78     		ldrb	r3, [r3]
 628 011a D91F     		sub	r1, r3, #7
 629 011c FB1D     		add	r3, r7, #7
 630 011e 1A78     		ldrb	r2, [r3]
 631 0120 2A48     		ldr	r0, .L45+4
 632 0122 131C     		mov	r3, r2
 633 0124 9B00     		lsl	r3, r3, #2
 634 0126 9B18     		add	r3, r3, r2
 635 0128 DB00     		lsl	r3, r3, #3
 636 012a C318     		add	r3, r0, r3
 637 012c 1B79     		ldrb	r3, [r3, #4]
 638 012e 9942     		cmp	r1, r3
 639 0130 16DA     		bge	.L40
 321:Generated_Source\PSoC4/BLE_hids.c ****                 {
 322:Generated_Source\PSoC4/BLE_hids.c ****                     charValueHandle = cyBle_hidss[serviceIndex].reportArray[charIndex - CYBLE_HIDS_
 640              		.loc 1 322 0
 641 0132 FB1D     		add	r3, r7, #7
 642 0134 1A78     		ldrb	r2, [r3]
ARM GAS  C:\Users\akita\AppData\Local\Temp\ccIEDY99.s 			page 18


 643 0136 2549     		ldr	r1, .L45+4
 644 0138 131C     		mov	r3, r2
 645 013a 9B00     		lsl	r3, r3, #2
 646 013c 9B18     		add	r3, r3, r2
 647 013e DB00     		lsl	r3, r3, #3
 648 0140 CB18     		add	r3, r1, r3
 649 0142 0833     		add	r3, r3, #8
 650 0144 1968     		ldr	r1, [r3]
 651 0146 BB1D     		add	r3, r7, #6
 652 0148 1A78     		ldrb	r2, [r3]
 653 014a 131C     		mov	r3, r2
 654 014c 5B00     		lsl	r3, r3, #1
 655 014e 9B18     		add	r3, r3, r2
 656 0150 5B00     		lsl	r3, r3, #1
 657 0152 2A3B     		sub	r3, r3, #42
 658 0154 CA18     		add	r2, r1, r3
 659 0156 1423     		mov	r3, #20
 660 0158 FB18     		add	r3, r7, r3
 661 015a 1288     		ldrh	r2, [r2]
 662 015c 1A80     		strh	r2, [r3]
 323:Generated_Source\PSoC4/BLE_hids.c ****                 }
 324:Generated_Source\PSoC4/BLE_hids.c ****                 else
 325:Generated_Source\PSoC4/BLE_hids.c ****                 {
 326:Generated_Source\PSoC4/BLE_hids.c ****                     charValueHandle = CYBLE_GATT_INVALID_ATTR_HANDLE_VALUE;
 327:Generated_Source\PSoC4/BLE_hids.c ****                 }
 328:Generated_Source\PSoC4/BLE_hids.c ****                 break;
 663              		.loc 1 328 0
 664 015e 03E0     		b	.L44
 665              	.L40:
 326:Generated_Source\PSoC4/BLE_hids.c ****                 }
 666              		.loc 1 326 0
 667 0160 1423     		mov	r3, #20
 668 0162 FB18     		add	r3, r7, r3
 669 0164 0022     		mov	r2, #0
 670 0166 1A80     		strh	r2, [r3]
 671              	.L44:
 672              		.loc 1 328 0
 673 0168 C046     		mov	r8, r8
 674              	.L39:
 329:Generated_Source\PSoC4/BLE_hids.c ****         }
 330:Generated_Source\PSoC4/BLE_hids.c **** 
 331:Generated_Source\PSoC4/BLE_hids.c ****         if(charValueHandle == CYBLE_GATT_INVALID_ATTR_HANDLE_VALUE)
 675              		.loc 1 331 0
 676 016a 1423     		mov	r3, #20
 677 016c FB18     		add	r3, r7, r3
 678 016e 1B88     		ldrh	r3, [r3]
 679 0170 002B     		cmp	r3, #0
 680 0172 04D1     		bne	.L42
 332:Generated_Source\PSoC4/BLE_hids.c ****         {
 333:Generated_Source\PSoC4/BLE_hids.c ****             apiResult = CYBLE_ERROR_GATT_DB_INVALID_ATTR_HANDLE;
 681              		.loc 1 333 0
 682 0174 1623     		mov	r3, #22
 683 0176 FB18     		add	r3, r7, r3
 684 0178 1322     		mov	r2, #19
 685 017a 1A80     		strh	r2, [r3]
 686 017c 1CE0     		b	.L29
 687              	.L42:
ARM GAS  C:\Users\akita\AppData\Local\Temp\ccIEDY99.s 			page 19


 334:Generated_Source\PSoC4/BLE_hids.c ****         }
 335:Generated_Source\PSoC4/BLE_hids.c ****         else
 336:Generated_Source\PSoC4/BLE_hids.c ****         {
 337:Generated_Source\PSoC4/BLE_hids.c ****             /* Read characteristic value from database */
 338:Generated_Source\PSoC4/BLE_hids.c ****             locHandleValuePair.attrHandle = charValueHandle;
 688              		.loc 1 338 0
 689 017e 0823     		mov	r3, #8
 690 0180 FB18     		add	r3, r7, r3
 691 0182 1422     		mov	r2, #20
 692 0184 BA18     		add	r2, r7, r2
 693 0186 1288     		ldrh	r2, [r2]
 694 0188 1A81     		strh	r2, [r3, #8]
 339:Generated_Source\PSoC4/BLE_hids.c ****             locHandleValuePair.value.len = attrSize;
 695              		.loc 1 339 0
 696 018a 7B1D     		add	r3, r7, #5
 697 018c 1B78     		ldrb	r3, [r3]
 698 018e 9AB2     		uxth	r2, r3
 699 0190 0823     		mov	r3, #8
 700 0192 FB18     		add	r3, r7, r3
 701 0194 9A80     		strh	r2, [r3, #4]
 340:Generated_Source\PSoC4/BLE_hids.c ****             locHandleValuePair.value.val = attrValue;
 702              		.loc 1 340 0
 703 0196 0823     		mov	r3, #8
 704 0198 FB18     		add	r3, r7, r3
 705 019a 3A68     		ldr	r2, [r7]
 706 019c 1A60     		str	r2, [r3]
 341:Generated_Source\PSoC4/BLE_hids.c ****             if(CYBLE_GATT_ERR_NONE !=
 342:Generated_Source\PSoC4/BLE_hids.c ****                 CyBle_GattsReadAttributeValue(&locHandleValuePair, NULL, CYBLE_GATT_DB_LOCALLY_INIT
 707              		.loc 1 342 0
 708 019e 0823     		mov	r3, #8
 709 01a0 FB18     		add	r3, r7, r3
 710 01a2 181C     		mov	r0, r3
 711 01a4 0021     		mov	r1, #0
 712 01a6 0022     		mov	r2, #0
 713 01a8 FFF7FEFF 		bl	CyBle_GattsReadAttributeValue
 714 01ac 031E     		sub	r3, r0, #0
 341:Generated_Source\PSoC4/BLE_hids.c ****             if(CYBLE_GATT_ERR_NONE !=
 715              		.loc 1 341 0
 716 01ae 03D0     		beq	.L29
 343:Generated_Source\PSoC4/BLE_hids.c ****             {
 344:Generated_Source\PSoC4/BLE_hids.c ****                 apiResult = CYBLE_ERROR_INVALID_PARAMETER;
 717              		.loc 1 344 0
 718 01b0 1623     		mov	r3, #22
 719 01b2 FB18     		add	r3, r7, r3
 720 01b4 0122     		mov	r2, #1
 721 01b6 1A80     		strh	r2, [r3]
 722              	.L29:
 345:Generated_Source\PSoC4/BLE_hids.c ****             }
 346:Generated_Source\PSoC4/BLE_hids.c ****         }
 347:Generated_Source\PSoC4/BLE_hids.c ****     }
 348:Generated_Source\PSoC4/BLE_hids.c ****     return (apiResult);
 723              		.loc 1 348 0
 724 01b8 1623     		mov	r3, #22
 725 01ba FB18     		add	r3, r7, r3
 726 01bc 1B88     		ldrh	r3, [r3]
 349:Generated_Source\PSoC4/BLE_hids.c **** }
 727              		.loc 1 349 0
ARM GAS  C:\Users\akita\AppData\Local\Temp\ccIEDY99.s 			page 20


 728 01be 181C     		mov	r0, r3
 729 01c0 BD46     		mov	sp, r7
 730 01c2 07B0     		add	sp, sp, #28
 731              		@ sp needed
 732 01c4 90BD     		pop	{r4, r7, pc}
 733              	.L46:
 734 01c6 C046     		.align	2
 735              	.L45:
 736 01c8 50000000 		.word	.L32
 737 01cc 00000000 		.word	cyBle_hidss
 738              		.cfi_endproc
 739              	.LFE5:
 740              		.size	CyBle_HidssGetCharacteristicValue, .-CyBle_HidssGetCharacteristicValue
 741              		.section	.text.CyBle_HidssGetCharacteristicDescriptor,"ax",%progbits
 742              		.align	2
 743              		.global	CyBle_HidssGetCharacteristicDescriptor
 744              		.code	16
 745              		.thumb_func
 746              		.type	CyBle_HidssGetCharacteristicDescriptor, %function
 747              	CyBle_HidssGetCharacteristicDescriptor:
 748              	.LFB6:
 350:Generated_Source\PSoC4/BLE_hids.c **** 
 351:Generated_Source\PSoC4/BLE_hids.c **** 
 352:Generated_Source\PSoC4/BLE_hids.c **** /****************************************************************************** 
 353:Generated_Source\PSoC4/BLE_hids.c **** * Function Name: CyBle_HidssGetCharacteristicDescriptor
 354:Generated_Source\PSoC4/BLE_hids.c **** ***************************************************************************//**
 355:Generated_Source\PSoC4/BLE_hids.c **** * 
 356:Generated_Source\PSoC4/BLE_hids.c **** *  Gets local characteristic descriptor of the specified HID Service 
 357:Generated_Source\PSoC4/BLE_hids.c **** *  characteristic.
 358:Generated_Source\PSoC4/BLE_hids.c **** * 
 359:Generated_Source\PSoC4/BLE_hids.c **** *  \param serviceIndex: The index of the service instance. e.g. If two HID Services are 
 360:Generated_Source\PSoC4/BLE_hids.c **** *                 supported in your design, then first service will be identified
 361:Generated_Source\PSoC4/BLE_hids.c **** *                 by serviceIndex of 0 and the second by serviceIndex of 1.
 362:Generated_Source\PSoC4/BLE_hids.c **** * 
 363:Generated_Source\PSoC4/BLE_hids.c **** *  \param charIndex: The index of the characteristic.
 364:Generated_Source\PSoC4/BLE_hids.c **** *              * CYBLE_HIDS_REPORT_MAP          - Report Map Characteristic
 365:Generated_Source\PSoC4/BLE_hids.c **** *              * CYBLE_HIDS_BOOT_KYBRD_IN_REP   - Boot Keyboard Input Report Characteristic
 366:Generated_Source\PSoC4/BLE_hids.c **** *              * CYBLE_HIDS_BOOT_KYBRD_OUT_REP  - Boot Keyboard Output Report Characteristic
 367:Generated_Source\PSoC4/BLE_hids.c **** *              * CYBLE_HIDS_BOOT_MOUSE_IN_REP   - Boot Mouse Input Report Characteristic
 368:Generated_Source\PSoC4/BLE_hids.c **** *              * CYBLE_HIDS_REPORT              - Report Characteristic
 369:Generated_Source\PSoC4/BLE_hids.c **** * 
 370:Generated_Source\PSoC4/BLE_hids.c **** *  \param descrIndex: The index of the descriptor.
 371:Generated_Source\PSoC4/BLE_hids.c **** *               * CYBLE_HIDS_REPORT_CCCD - Client Characteristic Configuration descriptor
 372:Generated_Source\PSoC4/BLE_hids.c **** *               * CYBLE_HIDS_REPORT_RRD - Report Reference descriptor
 373:Generated_Source\PSoC4/BLE_hids.c **** *               * CYBLE_HIDS_REPORT_MAP_ERRD - Report Map External Report Reference descriptor
 374:Generated_Source\PSoC4/BLE_hids.c **** * 
 375:Generated_Source\PSoC4/BLE_hids.c **** *  \param attrSize: The size of the descriptor value attribute.
 376:Generated_Source\PSoC4/BLE_hids.c **** * 
 377:Generated_Source\PSoC4/BLE_hids.c **** *  \param attrValue: The pointer to the location where characteristic descriptor
 378:Generated_Source\PSoC4/BLE_hids.c **** *               value data should be stored.
 379:Generated_Source\PSoC4/BLE_hids.c **** * 
 380:Generated_Source\PSoC4/BLE_hids.c **** * \return
 381:Generated_Source\PSoC4/BLE_hids.c **** *  Return value is of type CYBLE_API_RESULT_T.
 382:Generated_Source\PSoC4/BLE_hids.c **** *  * CYBLE_ERROR_OK - The request handled successfully
 383:Generated_Source\PSoC4/BLE_hids.c **** *  * CYBLE_ERROR_INVALID_PARAMETER - Validation of the input parameter failed
 384:Generated_Source\PSoC4/BLE_hids.c **** *  * CYBLE_ERROR_GATT_DB_INVALID_ATTR_HANDLE - Optional descriptor is absent
 385:Generated_Source\PSoC4/BLE_hids.c **** *
ARM GAS  C:\Users\akita\AppData\Local\Temp\ccIEDY99.s 			page 21


 386:Generated_Source\PSoC4/BLE_hids.c **** *
 387:Generated_Source\PSoC4/BLE_hids.c **** ******************************************************************************/
 388:Generated_Source\PSoC4/BLE_hids.c **** CYBLE_API_RESULT_T CyBle_HidssGetCharacteristicDescriptor(uint8 serviceIndex, CYBLE_HIDS_CHAR_INDEX
 389:Generated_Source\PSoC4/BLE_hids.c ****     CYBLE_HIDS_DESCR_T descrIndex, uint8 attrSize, uint8 *attrValue)
 390:Generated_Source\PSoC4/BLE_hids.c **** {
 749              		.loc 1 390 0
 750              		.cfi_startproc
 751 0000 B0B5     		push	{r4, r5, r7, lr}
 752              		.cfi_def_cfa_offset 16
 753              		.cfi_offset 4, -16
 754              		.cfi_offset 5, -12
 755              		.cfi_offset 7, -8
 756              		.cfi_offset 14, -4
 757 0002 88B0     		sub	sp, sp, #32
 758              		.cfi_def_cfa_offset 48
 759 0004 00AF     		add	r7, sp, #0
 760              		.cfi_def_cfa_register 7
 761 0006 051C     		mov	r5, r0
 762 0008 0C1C     		mov	r4, r1
 763 000a 101C     		mov	r0, r2
 764 000c 191C     		mov	r1, r3
 765 000e FB1D     		add	r3, r7, #7
 766 0010 2A1C     		add	r2, r5, #0
 767 0012 1A70     		strb	r2, [r3]
 768 0014 BB1D     		add	r3, r7, #6
 769 0016 221C     		add	r2, r4, #0
 770 0018 1A70     		strb	r2, [r3]
 771 001a 7B1D     		add	r3, r7, #5
 772 001c 021C     		add	r2, r0, #0
 773 001e 1A70     		strb	r2, [r3]
 774 0020 3B1D     		add	r3, r7, #4
 775 0022 0A1C     		add	r2, r1, #0
 776 0024 1A70     		strb	r2, [r3]
 391:Generated_Source\PSoC4/BLE_hids.c ****     CYBLE_API_RESULT_T apiResult = CYBLE_ERROR_OK;
 777              		.loc 1 391 0
 778 0026 1E23     		mov	r3, #30
 779 0028 FB18     		add	r3, r7, r3
 780 002a 0022     		mov	r2, #0
 781 002c 1A80     		strh	r2, [r3]
 392:Generated_Source\PSoC4/BLE_hids.c ****     CYBLE_GATT_DB_ATTR_HANDLE_T locDescrHandle = CYBLE_GATT_INVALID_ATTR_HANDLE_VALUE;
 782              		.loc 1 392 0
 783 002e 1C23     		mov	r3, #28
 784 0030 FB18     		add	r3, r7, r3
 785 0032 0022     		mov	r2, #0
 786 0034 1A80     		strh	r2, [r3]
 393:Generated_Source\PSoC4/BLE_hids.c ****     const CYBLE_HIDSS_REPORT_T *locReport;
 394:Generated_Source\PSoC4/BLE_hids.c ****     CYBLE_GATT_HANDLE_VALUE_PAIR_T locHandleValuePair;
 395:Generated_Source\PSoC4/BLE_hids.c **** 
 396:Generated_Source\PSoC4/BLE_hids.c ****     if((serviceIndex >= CYBLE_HIDSS_SERVICE_COUNT) || (descrIndex >= CYBLE_HIDS_DESCR_COUNT) ||
 787              		.loc 1 396 0
 788 0036 FB1D     		add	r3, r7, #7
 789 0038 1B78     		ldrb	r3, [r3]
 790 003a 002B     		cmp	r3, #0
 791 003c 0FD1     		bne	.L48
 792              		.loc 1 396 0 is_stmt 0 discriminator 1
 793 003e 7B1D     		add	r3, r7, #5
 794 0040 1B78     		ldrb	r3, [r3]
ARM GAS  C:\Users\akita\AppData\Local\Temp\ccIEDY99.s 			page 22


 795 0042 022B     		cmp	r3, #2
 796 0044 0BD8     		bhi	.L48
 797              		.loc 1 396 0 discriminator 2
 798 0046 BB1D     		add	r3, r7, #6
 799 0048 1B78     		ldrb	r3, [r3]
 800 004a 082B     		cmp	r3, #8
 801 004c 07D8     		bhi	.L48
 397:Generated_Source\PSoC4/BLE_hids.c ****        (charIndex >= CYBLE_HIDS_CHAR_COUNT) || (charIndex < CYBLE_HIDS_REPORT_MAP) || 
 802              		.loc 1 397 0 is_stmt 1
 803 004e BB1D     		add	r3, r7, #6
 804 0050 1B78     		ldrb	r3, [r3]
 805 0052 022B     		cmp	r3, #2
 806 0054 03D9     		bls	.L48
 807              		.loc 1 397 0 is_stmt 0 discriminator 1
 808 0056 BB1D     		add	r3, r7, #6
 809 0058 1B78     		ldrb	r3, [r3]
 810 005a 052B     		cmp	r3, #5
 811 005c 04D1     		bne	.L49
 812              	.L48:
 398:Generated_Source\PSoC4/BLE_hids.c ****        (charIndex == CYBLE_HIDS_BOOT_KYBRD_OUT_REP))
 399:Generated_Source\PSoC4/BLE_hids.c ****     {
 400:Generated_Source\PSoC4/BLE_hids.c ****         apiResult = CYBLE_ERROR_INVALID_PARAMETER;
 813              		.loc 1 400 0 is_stmt 1
 814 005e 1E23     		mov	r3, #30
 815 0060 FB18     		add	r3, r7, r3
 816 0062 0122     		mov	r2, #1
 817 0064 1A80     		strh	r2, [r3]
 818 0066 63E0     		b	.L50
 819              	.L49:
 401:Generated_Source\PSoC4/BLE_hids.c ****     }
 402:Generated_Source\PSoC4/BLE_hids.c ****     else
 403:Generated_Source\PSoC4/BLE_hids.c ****     {
 404:Generated_Source\PSoC4/BLE_hids.c ****         if(charIndex == CYBLE_HIDS_REPORT_MAP)
 820              		.loc 1 404 0
 821 0068 BB1D     		add	r3, r7, #6
 822 006a 1B78     		ldrb	r3, [r3]
 823 006c 032B     		cmp	r3, #3
 824 006e 16D1     		bne	.L51
 405:Generated_Source\PSoC4/BLE_hids.c ****         {
 406:Generated_Source\PSoC4/BLE_hids.c ****             if(descrIndex == CYBLE_HIDS_REPORT_MAP_ERRD)
 825              		.loc 1 406 0
 826 0070 7B1D     		add	r3, r7, #5
 827 0072 1B78     		ldrb	r3, [r3]
 828 0074 022B     		cmp	r3, #2
 829 0076 0DD1     		bne	.L52
 407:Generated_Source\PSoC4/BLE_hids.c ****             {
 408:Generated_Source\PSoC4/BLE_hids.c ****                 locDescrHandle = cyBle_hidss[serviceIndex].reportMapErrdHandle;
 830              		.loc 1 408 0
 831 0078 FB1D     		add	r3, r7, #7
 832 007a 1A78     		ldrb	r2, [r3]
 833 007c 1C23     		mov	r3, #28
 834 007e F918     		add	r1, r7, r3
 835 0080 4548     		ldr	r0, .L61
 836 0082 131C     		mov	r3, r2
 837 0084 9B00     		lsl	r3, r3, #2
 838 0086 9B18     		add	r3, r3, r2
 839 0088 DB00     		lsl	r3, r3, #3
ARM GAS  C:\Users\akita\AppData\Local\Temp\ccIEDY99.s 			page 23


 840 008a C318     		add	r3, r0, r3
 841 008c 2033     		add	r3, r3, #32
 842 008e 1B88     		ldrh	r3, [r3]
 843 0090 0B80     		strh	r3, [r1]
 844 0092 4DE0     		b	.L50
 845              	.L52:
 409:Generated_Source\PSoC4/BLE_hids.c ****             }
 410:Generated_Source\PSoC4/BLE_hids.c ****             else
 411:Generated_Source\PSoC4/BLE_hids.c ****             {
 412:Generated_Source\PSoC4/BLE_hids.c ****                 apiResult = CYBLE_ERROR_INVALID_PARAMETER;
 846              		.loc 1 412 0
 847 0094 1E23     		mov	r3, #30
 848 0096 FB18     		add	r3, r7, r3
 849 0098 0122     		mov	r2, #1
 850 009a 1A80     		strh	r2, [r3]
 851 009c 48E0     		b	.L50
 852              	.L51:
 413:Generated_Source\PSoC4/BLE_hids.c ****             }
 414:Generated_Source\PSoC4/BLE_hids.c ****         }
 415:Generated_Source\PSoC4/BLE_hids.c ****         else /* Report characteristics */
 416:Generated_Source\PSoC4/BLE_hids.c ****         {
 417:Generated_Source\PSoC4/BLE_hids.c ****             /* Get report structure */
 418:Generated_Source\PSoC4/BLE_hids.c ****             if((charIndex >= CYBLE_HIDS_BOOT_KYBRD_IN_REP) && (charIndex <= CYBLE_HIDS_BOOT_MOUSE_I
 853              		.loc 1 418 0
 854 009e BB1D     		add	r3, r7, #6
 855 00a0 1B78     		ldrb	r3, [r3]
 856 00a2 032B     		cmp	r3, #3
 857 00a4 19D9     		bls	.L54
 858              		.loc 1 418 0 is_stmt 0 discriminator 1
 859 00a6 BB1D     		add	r3, r7, #6
 860 00a8 1B78     		ldrb	r3, [r3]
 861 00aa 062B     		cmp	r3, #6
 862 00ac 15D8     		bhi	.L54
 419:Generated_Source\PSoC4/BLE_hids.c ****             {
 420:Generated_Source\PSoC4/BLE_hids.c ****                 locReport = &cyBle_hidss[serviceIndex].bootReportArray[charIndex - CYBLE_HIDS_BOOT_
 863              		.loc 1 420 0 is_stmt 1
 864 00ae FB1D     		add	r3, r7, #7
 865 00b0 1978     		ldrb	r1, [r3]
 866 00b2 BB1D     		add	r3, r7, #6
 867 00b4 1B78     		ldrb	r3, [r3]
 868 00b6 043B     		sub	r3, r3, #4
 869 00b8 1A1C     		mov	r2, r3
 870 00ba 5200     		lsl	r2, r2, #1
 871 00bc D218     		add	r2, r2, r3
 872 00be 5300     		lsl	r3, r2, #1
 873 00c0 1A1C     		mov	r2, r3
 874 00c2 0B1C     		mov	r3, r1
 875 00c4 9B00     		lsl	r3, r3, #2
 876 00c6 5B18     		add	r3, r3, r1
 877 00c8 DB00     		lsl	r3, r3, #3
 878 00ca D318     		add	r3, r2, r3
 879 00cc 0833     		add	r3, r3, #8
 880 00ce 1A1C     		mov	r2, r3
 881 00d0 314B     		ldr	r3, .L61
 882 00d2 D318     		add	r3, r2, r3
 883 00d4 0433     		add	r3, r3, #4
 884 00d6 BB61     		str	r3, [r7, #24]
ARM GAS  C:\Users\akita\AppData\Local\Temp\ccIEDY99.s 			page 24


 885 00d8 12E0     		b	.L55
 886              	.L54:
 421:Generated_Source\PSoC4/BLE_hids.c ****             }
 422:Generated_Source\PSoC4/BLE_hids.c ****             else
 423:Generated_Source\PSoC4/BLE_hids.c ****             {
 424:Generated_Source\PSoC4/BLE_hids.c ****                 locReport = &cyBle_hidss[serviceIndex].reportArray[charIndex - CYBLE_HIDS_REPORT];
 887              		.loc 1 424 0
 888 00da FB1D     		add	r3, r7, #7
 889 00dc 1A78     		ldrb	r2, [r3]
 890 00de 2E49     		ldr	r1, .L61
 891 00e0 131C     		mov	r3, r2
 892 00e2 9B00     		lsl	r3, r3, #2
 893 00e4 9B18     		add	r3, r3, r2
 894 00e6 DB00     		lsl	r3, r3, #3
 895 00e8 CB18     		add	r3, r1, r3
 896 00ea 0833     		add	r3, r3, #8
 897 00ec 1968     		ldr	r1, [r3]
 898 00ee BB1D     		add	r3, r7, #6
 899 00f0 1A78     		ldrb	r2, [r3]
 900 00f2 131C     		mov	r3, r2
 901 00f4 5B00     		lsl	r3, r3, #1
 902 00f6 9B18     		add	r3, r3, r2
 903 00f8 5B00     		lsl	r3, r3, #1
 904 00fa 2A3B     		sub	r3, r3, #42
 905 00fc CB18     		add	r3, r1, r3
 906 00fe BB61     		str	r3, [r7, #24]
 907              	.L55:
 425:Generated_Source\PSoC4/BLE_hids.c ****             }
 426:Generated_Source\PSoC4/BLE_hids.c ****             /* Get descriptor handle from report structure */
 427:Generated_Source\PSoC4/BLE_hids.c ****             if(descrIndex == CYBLE_HIDS_REPORT_CCCD)
 908              		.loc 1 427 0
 909 0100 7B1D     		add	r3, r7, #5
 910 0102 1B78     		ldrb	r3, [r3]
 911 0104 002B     		cmp	r3, #0
 912 0106 05D1     		bne	.L56
 428:Generated_Source\PSoC4/BLE_hids.c ****             {
 429:Generated_Source\PSoC4/BLE_hids.c ****                 locDescrHandle = locReport->cccdHandle;
 913              		.loc 1 429 0
 914 0108 1C23     		mov	r3, #28
 915 010a FB18     		add	r3, r7, r3
 916 010c BA69     		ldr	r2, [r7, #24]
 917 010e 5288     		ldrh	r2, [r2, #2]
 918 0110 1A80     		strh	r2, [r3]
 919 0112 0DE0     		b	.L50
 920              	.L56:
 430:Generated_Source\PSoC4/BLE_hids.c ****             }
 431:Generated_Source\PSoC4/BLE_hids.c ****             else if(descrIndex == CYBLE_HIDS_REPORT_RRD)
 921              		.loc 1 431 0
 922 0114 7B1D     		add	r3, r7, #5
 923 0116 1B78     		ldrb	r3, [r3]
 924 0118 012B     		cmp	r3, #1
 925 011a 05D1     		bne	.L57
 432:Generated_Source\PSoC4/BLE_hids.c ****             {
 433:Generated_Source\PSoC4/BLE_hids.c ****                 locDescrHandle = locReport->rrdHandle;
 926              		.loc 1 433 0
 927 011c 1C23     		mov	r3, #28
 928 011e FB18     		add	r3, r7, r3
ARM GAS  C:\Users\akita\AppData\Local\Temp\ccIEDY99.s 			page 25


 929 0120 BA69     		ldr	r2, [r7, #24]
 930 0122 9288     		ldrh	r2, [r2, #4]
 931 0124 1A80     		strh	r2, [r3]
 932 0126 03E0     		b	.L50
 933              	.L57:
 434:Generated_Source\PSoC4/BLE_hids.c ****             }
 435:Generated_Source\PSoC4/BLE_hids.c ****             else /* External Report Reference descriptor doesn't exist for report characteristic */
 436:Generated_Source\PSoC4/BLE_hids.c ****             {
 437:Generated_Source\PSoC4/BLE_hids.c ****                 apiResult = CYBLE_ERROR_INVALID_PARAMETER;
 934              		.loc 1 437 0
 935 0128 1E23     		mov	r3, #30
 936 012a FB18     		add	r3, r7, r3
 937 012c 0122     		mov	r2, #1
 938 012e 1A80     		strh	r2, [r3]
 939              	.L50:
 438:Generated_Source\PSoC4/BLE_hids.c ****             }
 439:Generated_Source\PSoC4/BLE_hids.c ****         }
 440:Generated_Source\PSoC4/BLE_hids.c ****     }
 441:Generated_Source\PSoC4/BLE_hids.c ****     if(apiResult != CYBLE_ERROR_INVALID_PARAMETER)
 940              		.loc 1 441 0
 941 0130 1E23     		mov	r3, #30
 942 0132 FB18     		add	r3, r7, r3
 943 0134 1B88     		ldrh	r3, [r3]
 944 0136 012B     		cmp	r3, #1
 945 0138 26D0     		beq	.L58
 442:Generated_Source\PSoC4/BLE_hids.c ****     {
 443:Generated_Source\PSoC4/BLE_hids.c ****         if(locDescrHandle == CYBLE_GATT_INVALID_ATTR_HANDLE_VALUE)
 946              		.loc 1 443 0
 947 013a 1C23     		mov	r3, #28
 948 013c FB18     		add	r3, r7, r3
 949 013e 1B88     		ldrh	r3, [r3]
 950 0140 002B     		cmp	r3, #0
 951 0142 04D1     		bne	.L59
 444:Generated_Source\PSoC4/BLE_hids.c ****         {
 445:Generated_Source\PSoC4/BLE_hids.c ****             apiResult = CYBLE_ERROR_GATT_DB_INVALID_ATTR_HANDLE;
 952              		.loc 1 445 0
 953 0144 1E23     		mov	r3, #30
 954 0146 FB18     		add	r3, r7, r3
 955 0148 1322     		mov	r2, #19
 956 014a 1A80     		strh	r2, [r3]
 957 014c 1CE0     		b	.L58
 958              	.L59:
 446:Generated_Source\PSoC4/BLE_hids.c ****         }
 447:Generated_Source\PSoC4/BLE_hids.c ****         else
 448:Generated_Source\PSoC4/BLE_hids.c ****         {
 449:Generated_Source\PSoC4/BLE_hids.c ****             /* Read value from database */
 450:Generated_Source\PSoC4/BLE_hids.c ****             locHandleValuePair.attrHandle = locDescrHandle;
 959              		.loc 1 450 0
 960 014e 0C23     		mov	r3, #12
 961 0150 FB18     		add	r3, r7, r3
 962 0152 1C22     		mov	r2, #28
 963 0154 BA18     		add	r2, r7, r2
 964 0156 1288     		ldrh	r2, [r2]
 965 0158 1A81     		strh	r2, [r3, #8]
 451:Generated_Source\PSoC4/BLE_hids.c ****             locHandleValuePair.value.len = attrSize;
 966              		.loc 1 451 0
 967 015a 3B1D     		add	r3, r7, #4
ARM GAS  C:\Users\akita\AppData\Local\Temp\ccIEDY99.s 			page 26


 968 015c 1B78     		ldrb	r3, [r3]
 969 015e 9AB2     		uxth	r2, r3
 970 0160 0C23     		mov	r3, #12
 971 0162 FB18     		add	r3, r7, r3
 972 0164 9A80     		strh	r2, [r3, #4]
 452:Generated_Source\PSoC4/BLE_hids.c ****             locHandleValuePair.value.val = attrValue;
 973              		.loc 1 452 0
 974 0166 0C23     		mov	r3, #12
 975 0168 FB18     		add	r3, r7, r3
 976 016a 3A6B     		ldr	r2, [r7, #48]
 977 016c 1A60     		str	r2, [r3]
 453:Generated_Source\PSoC4/BLE_hids.c ****             if(CYBLE_GATT_ERR_NONE !=
 454:Generated_Source\PSoC4/BLE_hids.c ****                 CyBle_GattsReadAttributeValue(&locHandleValuePair, NULL, CYBLE_GATT_DB_LOCALLY_INIT
 978              		.loc 1 454 0
 979 016e 0C23     		mov	r3, #12
 980 0170 FB18     		add	r3, r7, r3
 981 0172 181C     		mov	r0, r3
 982 0174 0021     		mov	r1, #0
 983 0176 0022     		mov	r2, #0
 984 0178 FFF7FEFF 		bl	CyBle_GattsReadAttributeValue
 985 017c 031E     		sub	r3, r0, #0
 453:Generated_Source\PSoC4/BLE_hids.c ****             if(CYBLE_GATT_ERR_NONE !=
 986              		.loc 1 453 0
 987 017e 03D0     		beq	.L58
 455:Generated_Source\PSoC4/BLE_hids.c ****             {
 456:Generated_Source\PSoC4/BLE_hids.c ****                 apiResult = CYBLE_ERROR_INVALID_PARAMETER;
 988              		.loc 1 456 0
 989 0180 1E23     		mov	r3, #30
 990 0182 FB18     		add	r3, r7, r3
 991 0184 0122     		mov	r2, #1
 992 0186 1A80     		strh	r2, [r3]
 993              	.L58:
 457:Generated_Source\PSoC4/BLE_hids.c ****             }
 458:Generated_Source\PSoC4/BLE_hids.c ****         }
 459:Generated_Source\PSoC4/BLE_hids.c ****     }
 460:Generated_Source\PSoC4/BLE_hids.c ****     return (apiResult);
 994              		.loc 1 460 0
 995 0188 1E23     		mov	r3, #30
 996 018a FB18     		add	r3, r7, r3
 997 018c 1B88     		ldrh	r3, [r3]
 461:Generated_Source\PSoC4/BLE_hids.c **** }
 998              		.loc 1 461 0
 999 018e 181C     		mov	r0, r3
 1000 0190 BD46     		mov	sp, r7
 1001 0192 08B0     		add	sp, sp, #32
 1002              		@ sp needed
 1003 0194 B0BD     		pop	{r4, r5, r7, pc}
 1004              	.L62:
 1005 0196 C046     		.align	2
 1006              	.L61:
 1007 0198 00000000 		.word	cyBle_hidss
 1008              		.cfi_endproc
 1009              	.LFE6:
 1010              		.size	CyBle_HidssGetCharacteristicDescriptor, .-CyBle_HidssGetCharacteristicDescriptor
 1011              		.section	.text.CyBle_HidssCccdWriteEventHandler,"ax",%progbits
 1012              		.align	2
 1013              		.code	16
ARM GAS  C:\Users\akita\AppData\Local\Temp\ccIEDY99.s 			page 27


 1014              		.thumb_func
 1015              		.type	CyBle_HidssCccdWriteEventHandler, %function
 1016              	CyBle_HidssCccdWriteEventHandler:
 1017              	.LFB7:
 462:Generated_Source\PSoC4/BLE_hids.c **** 
 463:Generated_Source\PSoC4/BLE_hids.c **** 
 464:Generated_Source\PSoC4/BLE_hids.c **** /****************************************************************************** 
 465:Generated_Source\PSoC4/BLE_hids.c **** * Function Name: CyBle_HidssCccdWriteEventHandler
 466:Generated_Source\PSoC4/BLE_hids.c **** ***************************************************************************//**
 467:Generated_Source\PSoC4/BLE_hids.c **** * 
 468:Generated_Source\PSoC4/BLE_hids.c **** *  Handles the Write Request Event of the Client Characteristic Configuration
 469:Generated_Source\PSoC4/BLE_hids.c **** *  descriptor.
 470:Generated_Source\PSoC4/BLE_hids.c **** * 
 471:Generated_Source\PSoC4/BLE_hids.c **** *  \param serviceIndex: The index of the service instance.
 472:Generated_Source\PSoC4/BLE_hids.c **** *  \param charIndex: The index of the characteristic.
 473:Generated_Source\PSoC4/BLE_hids.c **** *  \param eventParam: The pointer to the data structure specified by the event.
 474:Generated_Source\PSoC4/BLE_hids.c **** * 
 475:Generated_Source\PSoC4/BLE_hids.c **** * \return
 476:Generated_Source\PSoC4/BLE_hids.c **** *  uint32 eventCode: The event code to be send to application.
 477:Generated_Source\PSoC4/BLE_hids.c **** * 
 478:Generated_Source\PSoC4/BLE_hids.c **** ******************************************************************************/
 479:Generated_Source\PSoC4/BLE_hids.c **** static uint32 CyBle_HidssCccdWriteEventHandler(uint8 serviceIndex, const CYBLE_GATTS_WRITE_REQ_PARA
 480:Generated_Source\PSoC4/BLE_hids.c **** {
 1018              		.loc 1 480 0
 1019              		.cfi_startproc
 1020 0000 80B5     		push	{r7, lr}
 1021              		.cfi_def_cfa_offset 8
 1022              		.cfi_offset 7, -8
 1023              		.cfi_offset 14, -4
 1024 0002 84B0     		sub	sp, sp, #16
 1025              		.cfi_def_cfa_offset 24
 1026 0004 00AF     		add	r7, sp, #0
 1027              		.cfi_def_cfa_register 7
 1028 0006 021C     		mov	r2, r0
 1029 0008 3960     		str	r1, [r7]
 1030 000a FB1D     		add	r3, r7, #7
 1031 000c 1A70     		strb	r2, [r3]
 481:Generated_Source\PSoC4/BLE_hids.c ****     uint32 eventCode;
 482:Generated_Source\PSoC4/BLE_hids.c **** 
 483:Generated_Source\PSoC4/BLE_hids.c ****     if(CYBLE_IS_NOTIFICATION_ENABLED_IN_PTR(eventParam->handleValPair.value.val))
 1032              		.loc 1 483 0
 1033 000e 3B68     		ldr	r3, [r7]
 1034 0010 5B68     		ldr	r3, [r3, #4]
 1035 0012 181C     		mov	r0, r3
 1036 0014 FFF7FEFF 		bl	CyBle_Get16ByPtr
 1037 0018 031C     		mov	r3, r0
 1038 001a 1A1C     		mov	r2, r3
 1039 001c 0123     		mov	r3, #1
 1040 001e 1340     		and	r3, r2
 1041 0020 9BB2     		uxth	r3, r3
 1042 0022 002B     		cmp	r3, #0
 1043 0024 03D0     		beq	.L64
 484:Generated_Source\PSoC4/BLE_hids.c ****     {
 485:Generated_Source\PSoC4/BLE_hids.c ****         eventCode = (uint32)CYBLE_EVT_HIDSS_NOTIFICATION_ENABLED;
 1044              		.loc 1 485 0
 1045 0026 C323     		mov	r3, #195
 1046 0028 5B00     		lsl	r3, r3, #1
ARM GAS  C:\Users\akita\AppData\Local\Temp\ccIEDY99.s 			page 28


 1047 002a FB60     		str	r3, [r7, #12]
 1048 002c 02E0     		b	.L65
 1049              	.L64:
 486:Generated_Source\PSoC4/BLE_hids.c ****     }
 487:Generated_Source\PSoC4/BLE_hids.c ****     else
 488:Generated_Source\PSoC4/BLE_hids.c ****     {
 489:Generated_Source\PSoC4/BLE_hids.c ****         eventCode = (uint32)CYBLE_EVT_HIDSS_NOTIFICATION_DISABLED;
 1050              		.loc 1 489 0
 1051 002e 8823     		mov	r3, #136
 1052 0030 FF33     		add	r3, r3, #255
 1053 0032 FB60     		str	r3, [r7, #12]
 1054              	.L65:
 490:Generated_Source\PSoC4/BLE_hids.c ****     }
 491:Generated_Source\PSoC4/BLE_hids.c ****     cyBle_eventHandlerFlag &= (uint8)~CYBLE_CALLBACK;
 1055              		.loc 1 491 0
 1056 0034 0B4B     		ldr	r3, .L68
 1057 0036 1B78     		ldrb	r3, [r3]
 1058 0038 DBB2     		uxtb	r3, r3
 1059 003a 0122     		mov	r2, #1
 1060 003c 9343     		bic	r3, r2
 1061 003e DAB2     		uxtb	r2, r3
 1062 0040 084B     		ldr	r3, .L68
 1063 0042 1A70     		strb	r2, [r3]
 492:Generated_Source\PSoC4/BLE_hids.c ****     
 493:Generated_Source\PSoC4/BLE_hids.c **** #if((CYBLE_GAP_ROLE_PERIPHERAL || CYBLE_GAP_ROLE_CENTRAL) && (CYBLE_BONDING_REQUIREMENT == CYBLE_BO
 494:Generated_Source\PSoC4/BLE_hids.c ****     /* Set flag to store bonding data to flash */
 495:Generated_Source\PSoC4/BLE_hids.c ****     if(cyBle_peerBonding == CYBLE_GAP_BONDING)
 1064              		.loc 1 495 0
 1065 0044 084B     		ldr	r3, .L68+4
 1066 0046 1B78     		ldrb	r3, [r3]
 1067 0048 012B     		cmp	r3, #1
 1068 004a 06D1     		bne	.L66
 496:Generated_Source\PSoC4/BLE_hids.c ****     {
 497:Generated_Source\PSoC4/BLE_hids.c ****         cyBle_pendingFlashWrite |= CYBLE_PENDING_CCCD_FLASH_WRITE_BIT;
 1069              		.loc 1 497 0
 1070 004c 074B     		ldr	r3, .L68+8
 1071 004e 1B78     		ldrb	r3, [r3]
 1072 0050 0222     		mov	r2, #2
 1073 0052 1343     		orr	r3, r2
 1074 0054 DAB2     		uxtb	r2, r3
 1075 0056 054B     		ldr	r3, .L68+8
 1076 0058 1A70     		strb	r2, [r3]
 1077              	.L66:
 498:Generated_Source\PSoC4/BLE_hids.c ****     }
 499:Generated_Source\PSoC4/BLE_hids.c **** #endif /* (CYBLE_BONDING_REQUIREMENT == CYBLE_BONDING_YES) */
 500:Generated_Source\PSoC4/BLE_hids.c **** 
 501:Generated_Source\PSoC4/BLE_hids.c ****     return(eventCode);
 1078              		.loc 1 501 0
 1079 005a FB68     		ldr	r3, [r7, #12]
 502:Generated_Source\PSoC4/BLE_hids.c **** }
 1080              		.loc 1 502 0
 1081 005c 181C     		mov	r0, r3
 1082 005e BD46     		mov	sp, r7
 1083 0060 04B0     		add	sp, sp, #16
 1084              		@ sp needed
 1085 0062 80BD     		pop	{r7, pc}
 1086              	.L69:
ARM GAS  C:\Users\akita\AppData\Local\Temp\ccIEDY99.s 			page 29


 1087              		.align	2
 1088              	.L68:
 1089 0064 00000000 		.word	cyBle_eventHandlerFlag
 1090 0068 00000000 		.word	cyBle_peerBonding
 1091 006c 00000000 		.word	cyBle_pendingFlashWrite
 1092              		.cfi_endproc
 1093              	.LFE7:
 1094              		.size	CyBle_HidssCccdWriteEventHandler, .-CyBle_HidssCccdWriteEventHandler
 1095              		.section	.text.CyBle_HidssWriteEventHandler,"ax",%progbits
 1096              		.align	2
 1097              		.global	CyBle_HidssWriteEventHandler
 1098              		.code	16
 1099              		.thumb_func
 1100              		.type	CyBle_HidssWriteEventHandler, %function
 1101              	CyBle_HidssWriteEventHandler:
 1102              	.LFB8:
 503:Generated_Source\PSoC4/BLE_hids.c **** 
 504:Generated_Source\PSoC4/BLE_hids.c **** 
 505:Generated_Source\PSoC4/BLE_hids.c **** /****************************************************************************** 
 506:Generated_Source\PSoC4/BLE_hids.c **** * Function Name: CyBle_HidssWriteEventHandler
 507:Generated_Source\PSoC4/BLE_hids.c **** ***************************************************************************//**
 508:Generated_Source\PSoC4/BLE_hids.c **** * 
 509:Generated_Source\PSoC4/BLE_hids.c **** *  Handles the Write Request Event.
 510:Generated_Source\PSoC4/BLE_hids.c **** * 
 511:Generated_Source\PSoC4/BLE_hids.c **** *  \param eventParam: The pointer to the data structure specified by the event.
 512:Generated_Source\PSoC4/BLE_hids.c **** * 
 513:Generated_Source\PSoC4/BLE_hids.c **** * \return
 514:Generated_Source\PSoC4/BLE_hids.c **** *  Return value is of type CYBLE_GATT_ERR_CODE_T.
 515:Generated_Source\PSoC4/BLE_hids.c **** *   * CYBLE_GATT_ERR_NONE - Write is successful.
 516:Generated_Source\PSoC4/BLE_hids.c **** * 
 517:Generated_Source\PSoC4/BLE_hids.c **** ******************************************************************************/
 518:Generated_Source\PSoC4/BLE_hids.c **** CYBLE_GATT_ERR_CODE_T CyBle_HidssWriteEventHandler(CYBLE_GATTS_WRITE_REQ_PARAM_T *eventParam)
 519:Generated_Source\PSoC4/BLE_hids.c **** {
 1103              		.loc 1 519 0
 1104              		.cfi_startproc
 1105 0000 90B5     		push	{r4, r7, lr}
 1106              		.cfi_def_cfa_offset 12
 1107              		.cfi_offset 4, -12
 1108              		.cfi_offset 7, -8
 1109              		.cfi_offset 14, -4
 1110 0002 89B0     		sub	sp, sp, #36
 1111              		.cfi_def_cfa_offset 48
 1112 0004 00AF     		add	r7, sp, #0
 1113              		.cfi_def_cfa_register 7
 1114 0006 7860     		str	r0, [r7, #4]
 520:Generated_Source\PSoC4/BLE_hids.c ****     CYBLE_GATT_ERR_CODE_T gattErr = CYBLE_GATT_ERR_NONE;
 1115              		.loc 1 520 0
 1116 0008 1F23     		mov	r3, #31
 1117 000a FB18     		add	r3, r7, r3
 1118 000c 0022     		mov	r2, #0
 1119 000e 1A70     		strb	r2, [r3]
 521:Generated_Source\PSoC4/BLE_hids.c ****     uint8 locServIndex = 0u;
 1120              		.loc 1 521 0
 1121 0010 1E23     		mov	r3, #30
 1122 0012 FB18     		add	r3, r7, r3
 1123 0014 0022     		mov	r2, #0
 1124 0016 1A70     		strb	r2, [r3]
ARM GAS  C:\Users\akita\AppData\Local\Temp\ccIEDY99.s 			page 30


 522:Generated_Source\PSoC4/BLE_hids.c ****     uint8 reportIndex;
 523:Generated_Source\PSoC4/BLE_hids.c ****     CYBLE_HIDS_CHAR_INDEX_T locCharIndex;
 524:Generated_Source\PSoC4/BLE_hids.c ****     CYBLE_HIDS_CHAR_VALUE_T locCharValue;
 525:Generated_Source\PSoC4/BLE_hids.c ****     uint32 eventCode = 0u;
 1125              		.loc 1 525 0
 1126 0018 0023     		mov	r3, #0
 1127 001a BB61     		str	r3, [r7, #24]
 526:Generated_Source\PSoC4/BLE_hids.c **** 
 527:Generated_Source\PSoC4/BLE_hids.c ****     if(NULL != CyBle_HidsApplCallback)
 1128              		.loc 1 527 0
 1129 001c 9C4B     		ldr	r3, .L96
 1130 001e 1B68     		ldr	r3, [r3]
 1131 0020 002B     		cmp	r3, #0
 1132 0022 00D1     		bne	.LCB1005
 1133 0024 EBE1     		b	.L71	@long jump
 1134              	.LCB1005:
 528:Generated_Source\PSoC4/BLE_hids.c ****     {
 529:Generated_Source\PSoC4/BLE_hids.c ****         locCharValue.connHandle = eventParam->connHandle;
 1135              		.loc 1 529 0
 1136 0026 0C23     		mov	r3, #12
 1137 0028 FB18     		add	r3, r7, r3
 1138 002a 7A68     		ldr	r2, [r7, #4]
 1139 002c 1288     		ldrh	r2, [r2]
 1140 002e 1A80     		strh	r2, [r3]
 530:Generated_Source\PSoC4/BLE_hids.c ****         locCharValue.value = NULL;
 1141              		.loc 1 530 0
 1142 0030 0C23     		mov	r3, #12
 1143 0032 FB18     		add	r3, r7, r3
 1144 0034 0022     		mov	r2, #0
 1145 0036 5A60     		str	r2, [r3, #4]
 1146              	.L94:
 531:Generated_Source\PSoC4/BLE_hids.c ****         do
 532:Generated_Source\PSoC4/BLE_hids.c ****         {
 533:Generated_Source\PSoC4/BLE_hids.c ****             locCharValue.serviceIndex = locServIndex;
 1147              		.loc 1 533 0
 1148 0038 0C23     		mov	r3, #12
 1149 003a FB18     		add	r3, r7, r3
 1150 003c 1E22     		mov	r2, #30
 1151 003e BA18     		add	r2, r7, r2
 1152 0040 1278     		ldrb	r2, [r2]
 1153 0042 9A70     		strb	r2, [r3, #2]
 534:Generated_Source\PSoC4/BLE_hids.c ****             /* Protocol Mode characteristic write request */
 535:Generated_Source\PSoC4/BLE_hids.c ****             if(eventParam->handleValPair.attrHandle == cyBle_hidss[locServIndex].protocolModeHandle
 1154              		.loc 1 535 0
 1155 0044 7B68     		ldr	r3, [r7, #4]
 1156 0046 9989     		ldrh	r1, [r3, #12]
 1157 0048 1E23     		mov	r3, #30
 1158 004a FB18     		add	r3, r7, r3
 1159 004c 1A78     		ldrb	r2, [r3]
 1160 004e 9148     		ldr	r0, .L96+4
 1161 0050 131C     		mov	r3, r2
 1162 0052 9B00     		lsl	r3, r3, #2
 1163 0054 9B18     		add	r3, r3, r2
 1164 0056 DB00     		lsl	r3, r3, #3
 1165 0058 C318     		add	r3, r0, r3
 1166 005a 5B88     		ldrh	r3, [r3, #2]
 1167 005c 9942     		cmp	r1, r3
ARM GAS  C:\Users\akita\AppData\Local\Temp\ccIEDY99.s 			page 31


 1168 005e 29D1     		bne	.L72
 536:Generated_Source\PSoC4/BLE_hids.c ****             {
 537:Generated_Source\PSoC4/BLE_hids.c ****                 locCharValue.charIndex = CYBLE_HIDS_PROTOCOL_MODE;
 1169              		.loc 1 537 0
 1170 0060 0C23     		mov	r3, #12
 1171 0062 FB18     		add	r3, r7, r3
 1172 0064 0022     		mov	r2, #0
 1173 0066 DA70     		strb	r2, [r3, #3]
 538:Generated_Source\PSoC4/BLE_hids.c ****                 if(eventParam->handleValPair.value.len == CYBLE_HIDS_PM_CHAR_LEN)
 1174              		.loc 1 538 0
 1175 0068 7B68     		ldr	r3, [r7, #4]
 1176 006a 1B89     		ldrh	r3, [r3, #8]
 1177 006c 012B     		cmp	r3, #1
 1178 006e 00D0     		beq	.LCB1044
 1179 0070 95E1     		b	.L77	@long jump
 1180              	.LCB1044:
 539:Generated_Source\PSoC4/BLE_hids.c ****                 {
 540:Generated_Source\PSoC4/BLE_hids.c ****                     switch(eventParam->handleValPair.value.val[0u])
 1181              		.loc 1 540 0
 1182 0072 7B68     		ldr	r3, [r7, #4]
 1183 0074 5B68     		ldr	r3, [r3, #4]
 1184 0076 1B78     		ldrb	r3, [r3]
 1185 0078 002B     		cmp	r3, #0
 1186 007a 02D0     		beq	.L75
 1187 007c 012B     		cmp	r3, #1
 1188 007e 0CD0     		beq	.L76
 541:Generated_Source\PSoC4/BLE_hids.c ****                     {
 542:Generated_Source\PSoC4/BLE_hids.c ****                         case CYBLE_HIDS_PROTOCOL_MODE_BOOT:
 543:Generated_Source\PSoC4/BLE_hids.c ****                             eventCode = (uint32)CYBLE_EVT_HIDSS_BOOT_MODE_ENTER;
 544:Generated_Source\PSoC4/BLE_hids.c ****                             cyBle_eventHandlerFlag &= (uint8)~CYBLE_CALLBACK;
 545:Generated_Source\PSoC4/BLE_hids.c ****                             break;
 546:Generated_Source\PSoC4/BLE_hids.c ****                         case CYBLE_HIDS_PROTOCOL_MODE_REPORT:
 547:Generated_Source\PSoC4/BLE_hids.c ****                             eventCode = (uint32)CYBLE_EVT_HIDSS_REPORT_MODE_ENTER;
 548:Generated_Source\PSoC4/BLE_hids.c ****                             cyBle_eventHandlerFlag &= (uint8)~CYBLE_CALLBACK;
 549:Generated_Source\PSoC4/BLE_hids.c ****                             break;
 550:Generated_Source\PSoC4/BLE_hids.c ****                         default:    /* Reserved for Future Use. */
 551:Generated_Source\PSoC4/BLE_hids.c ****                             break;
 1189              		.loc 1 551 0
 1190 0080 17E0     		b	.L73
 1191              	.L75:
 543:Generated_Source\PSoC4/BLE_hids.c ****                             cyBle_eventHandlerFlag &= (uint8)~CYBLE_CALLBACK;
 1192              		.loc 1 543 0
 1193 0082 C423     		mov	r3, #196
 1194 0084 5B00     		lsl	r3, r3, #1
 1195 0086 BB61     		str	r3, [r7, #24]
 544:Generated_Source\PSoC4/BLE_hids.c ****                             break;
 1196              		.loc 1 544 0
 1197 0088 834B     		ldr	r3, .L96+8
 1198 008a 1B78     		ldrb	r3, [r3]
 1199 008c DBB2     		uxtb	r3, r3
 1200 008e 0122     		mov	r2, #1
 1201 0090 9343     		bic	r3, r2
 1202 0092 DAB2     		uxtb	r2, r3
 1203 0094 804B     		ldr	r3, .L96+8
 1204 0096 1A70     		strb	r2, [r3]
 545:Generated_Source\PSoC4/BLE_hids.c ****                         case CYBLE_HIDS_PROTOCOL_MODE_REPORT:
 1205              		.loc 1 545 0
ARM GAS  C:\Users\akita\AppData\Local\Temp\ccIEDY99.s 			page 32


 1206 0098 0BE0     		b	.L73
 1207              	.L76:
 547:Generated_Source\PSoC4/BLE_hids.c ****                             cyBle_eventHandlerFlag &= (uint8)~CYBLE_CALLBACK;
 1208              		.loc 1 547 0
 1209 009a 8A23     		mov	r3, #138
 1210 009c FF33     		add	r3, r3, #255
 1211 009e BB61     		str	r3, [r7, #24]
 548:Generated_Source\PSoC4/BLE_hids.c ****                             break;
 1212              		.loc 1 548 0
 1213 00a0 7D4B     		ldr	r3, .L96+8
 1214 00a2 1B78     		ldrb	r3, [r3]
 1215 00a4 DBB2     		uxtb	r3, r3
 1216 00a6 0122     		mov	r2, #1
 1217 00a8 9343     		bic	r3, r2
 1218 00aa DAB2     		uxtb	r2, r3
 1219 00ac 7A4B     		ldr	r3, .L96+8
 1220 00ae 1A70     		strb	r2, [r3]
 549:Generated_Source\PSoC4/BLE_hids.c ****                         default:    /* Reserved for Future Use. */
 1221              		.loc 1 549 0
 1222 00b0 C046     		mov	r8, r8
 1223              	.L73:
 1224 00b2 74E1     		b	.L77
 1225              	.L72:
 552:Generated_Source\PSoC4/BLE_hids.c ****                     }
 553:Generated_Source\PSoC4/BLE_hids.c ****                 }
 554:Generated_Source\PSoC4/BLE_hids.c ****             }
 555:Generated_Source\PSoC4/BLE_hids.c ****             /* Control Point characteristic write request */
 556:Generated_Source\PSoC4/BLE_hids.c ****             else if(eventParam->handleValPair.attrHandle == cyBle_hidss[locServIndex].controlPointH
 1226              		.loc 1 556 0
 1227 00b4 7B68     		ldr	r3, [r7, #4]
 1228 00b6 9989     		ldrh	r1, [r3, #12]
 1229 00b8 1E23     		mov	r3, #30
 1230 00ba FB18     		add	r3, r7, r3
 1231 00bc 1A78     		ldrb	r2, [r3]
 1232 00be 7548     		ldr	r0, .L96+4
 1233 00c0 131C     		mov	r3, r2
 1234 00c2 9B00     		lsl	r3, r3, #2
 1235 00c4 9B18     		add	r3, r3, r2
 1236 00c6 DB00     		lsl	r3, r3, #3
 1237 00c8 C318     		add	r3, r0, r3
 1238 00ca 2033     		add	r3, r3, #32
 1239 00cc 9B88     		ldrh	r3, [r3, #4]
 1240 00ce 9942     		cmp	r1, r3
 1241 00d0 29D1     		bne	.L78
 557:Generated_Source\PSoC4/BLE_hids.c ****             {
 558:Generated_Source\PSoC4/BLE_hids.c ****                 locCharValue.charIndex = CYBLE_HIDS_CONTROL_POINT;
 1242              		.loc 1 558 0
 1243 00d2 0C23     		mov	r3, #12
 1244 00d4 FB18     		add	r3, r7, r3
 1245 00d6 0222     		mov	r2, #2
 1246 00d8 DA70     		strb	r2, [r3, #3]
 559:Generated_Source\PSoC4/BLE_hids.c ****                 if(eventParam->handleValPair.value.len == CYBLE_HIDS_CP_CHAR_LEN)
 1247              		.loc 1 559 0
 1248 00da 7B68     		ldr	r3, [r7, #4]
 1249 00dc 1B89     		ldrh	r3, [r3, #8]
 1250 00de 012B     		cmp	r3, #1
 1251 00e0 00D0     		beq	.LCB1111
ARM GAS  C:\Users\akita\AppData\Local\Temp\ccIEDY99.s 			page 33


 1252 00e2 5CE1     		b	.L77	@long jump
 1253              	.LCB1111:
 560:Generated_Source\PSoC4/BLE_hids.c ****                 {
 561:Generated_Source\PSoC4/BLE_hids.c ****                     switch(eventParam->handleValPair.value.val[0u])
 1254              		.loc 1 561 0
 1255 00e4 7B68     		ldr	r3, [r7, #4]
 1256 00e6 5B68     		ldr	r3, [r3, #4]
 1257 00e8 1B78     		ldrb	r3, [r3]
 1258 00ea 002B     		cmp	r3, #0
 1259 00ec 02D0     		beq	.L81
 1260 00ee 012B     		cmp	r3, #1
 1261 00f0 0CD0     		beq	.L82
 562:Generated_Source\PSoC4/BLE_hids.c ****                     {
 563:Generated_Source\PSoC4/BLE_hids.c ****                         case CYBLE_HIDS_CP_SUSPEND:
 564:Generated_Source\PSoC4/BLE_hids.c ****                             eventCode = (uint32)CYBLE_EVT_HIDSS_SUSPEND;
 565:Generated_Source\PSoC4/BLE_hids.c ****                             cyBle_eventHandlerFlag &= (uint8)~CYBLE_CALLBACK;
 566:Generated_Source\PSoC4/BLE_hids.c ****                             break;
 567:Generated_Source\PSoC4/BLE_hids.c ****                         case CYBLE_HIDS_CP_EXIT_SUSPEND:
 568:Generated_Source\PSoC4/BLE_hids.c ****                             eventCode = (uint32)CYBLE_EVT_HIDSS_EXIT_SUSPEND;
 569:Generated_Source\PSoC4/BLE_hids.c ****                             cyBle_eventHandlerFlag &= (uint8)~CYBLE_CALLBACK;
 570:Generated_Source\PSoC4/BLE_hids.c ****                             break;
 571:Generated_Source\PSoC4/BLE_hids.c ****                         default:    /* Reserved for Future Use. */
 572:Generated_Source\PSoC4/BLE_hids.c ****                             break;
 1262              		.loc 1 572 0
 1263 00f2 17E0     		b	.L79
 1264              	.L81:
 564:Generated_Source\PSoC4/BLE_hids.c ****                             cyBle_eventHandlerFlag &= (uint8)~CYBLE_CALLBACK;
 1265              		.loc 1 564 0
 1266 00f4 C523     		mov	r3, #197
 1267 00f6 5B00     		lsl	r3, r3, #1
 1268 00f8 BB61     		str	r3, [r7, #24]
 565:Generated_Source\PSoC4/BLE_hids.c ****                             break;
 1269              		.loc 1 565 0
 1270 00fa 674B     		ldr	r3, .L96+8
 1271 00fc 1B78     		ldrb	r3, [r3]
 1272 00fe DBB2     		uxtb	r3, r3
 1273 0100 0122     		mov	r2, #1
 1274 0102 9343     		bic	r3, r2
 1275 0104 DAB2     		uxtb	r2, r3
 1276 0106 644B     		ldr	r3, .L96+8
 1277 0108 1A70     		strb	r2, [r3]
 566:Generated_Source\PSoC4/BLE_hids.c ****                         case CYBLE_HIDS_CP_EXIT_SUSPEND:
 1278              		.loc 1 566 0
 1279 010a 0BE0     		b	.L79
 1280              	.L82:
 568:Generated_Source\PSoC4/BLE_hids.c ****                             cyBle_eventHandlerFlag &= (uint8)~CYBLE_CALLBACK;
 1281              		.loc 1 568 0
 1282 010c 8C23     		mov	r3, #140
 1283 010e FF33     		add	r3, r3, #255
 1284 0110 BB61     		str	r3, [r7, #24]
 569:Generated_Source\PSoC4/BLE_hids.c ****                             break;
 1285              		.loc 1 569 0
 1286 0112 614B     		ldr	r3, .L96+8
 1287 0114 1B78     		ldrb	r3, [r3]
 1288 0116 DBB2     		uxtb	r3, r3
 1289 0118 0122     		mov	r2, #1
 1290 011a 9343     		bic	r3, r2
ARM GAS  C:\Users\akita\AppData\Local\Temp\ccIEDY99.s 			page 34


 1291 011c DAB2     		uxtb	r2, r3
 1292 011e 5E4B     		ldr	r3, .L96+8
 1293 0120 1A70     		strb	r2, [r3]
 570:Generated_Source\PSoC4/BLE_hids.c ****                         default:    /* Reserved for Future Use. */
 1294              		.loc 1 570 0
 1295 0122 C046     		mov	r8, r8
 1296              	.L79:
 1297 0124 3BE1     		b	.L77
 1298              	.L78:
 573:Generated_Source\PSoC4/BLE_hids.c ****                     }
 574:Generated_Source\PSoC4/BLE_hids.c ****                 }
 575:Generated_Source\PSoC4/BLE_hids.c ****             }
 576:Generated_Source\PSoC4/BLE_hids.c ****             else if(eventParam->handleValPair.attrHandle ==
 1299              		.loc 1 576 0
 1300 0126 7B68     		ldr	r3, [r7, #4]
 1301 0128 9989     		ldrh	r1, [r3, #12]
 577:Generated_Source\PSoC4/BLE_hids.c ****                         cyBle_hidss[locServIndex].bootReportArray[CYBLE_HIDS_BOOT_KYBRD_IN_REP_INDX
 1302              		.loc 1 577 0
 1303 012a 1E23     		mov	r3, #30
 1304 012c FB18     		add	r3, r7, r3
 1305 012e 1A78     		ldrb	r2, [r3]
 1306 0130 5848     		ldr	r0, .L96+4
 1307 0132 131C     		mov	r3, r2
 1308 0134 9B00     		lsl	r3, r3, #2
 1309 0136 9B18     		add	r3, r3, r2
 1310 0138 DB00     		lsl	r3, r3, #3
 1311 013a C318     		add	r3, r0, r3
 1312 013c 0833     		add	r3, r3, #8
 1313 013e 9B88     		ldrh	r3, [r3, #4]
 576:Generated_Source\PSoC4/BLE_hids.c ****                         cyBle_hidss[locServIndex].bootReportArray[CYBLE_HIDS_BOOT_KYBRD_IN_REP_INDX
 1314              		.loc 1 576 0
 1315 0140 9942     		cmp	r1, r3
 1316 0142 14D1     		bne	.L83
 578:Generated_Source\PSoC4/BLE_hids.c ****             {
 579:Generated_Source\PSoC4/BLE_hids.c ****                 locCharValue.charIndex = CYBLE_HIDS_BOOT_KYBRD_IN_REP;
 1317              		.loc 1 579 0
 1318 0144 0C23     		mov	r3, #12
 1319 0146 FB18     		add	r3, r7, r3
 1320 0148 0422     		mov	r2, #4
 1321 014a DA70     		strb	r2, [r3, #3]
 580:Generated_Source\PSoC4/BLE_hids.c ****                 locCharValue.value = &eventParam->handleValPair.value;
 1322              		.loc 1 580 0
 1323 014c 7B68     		ldr	r3, [r7, #4]
 1324 014e 1A1D     		add	r2, r3, #4
 1325 0150 0C23     		mov	r3, #12
 1326 0152 FB18     		add	r3, r7, r3
 1327 0154 5A60     		str	r2, [r3, #4]
 581:Generated_Source\PSoC4/BLE_hids.c ****                 eventCode = (uint32)CYBLE_EVT_HIDSS_REPORT_CHAR_WRITE;
 1328              		.loc 1 581 0
 1329 0156 C623     		mov	r3, #198
 1330 0158 5B00     		lsl	r3, r3, #1
 1331 015a BB61     		str	r3, [r7, #24]
 582:Generated_Source\PSoC4/BLE_hids.c ****                 cyBle_eventHandlerFlag &= (uint8)~CYBLE_CALLBACK;
 1332              		.loc 1 582 0
 1333 015c 4E4B     		ldr	r3, .L96+8
 1334 015e 1B78     		ldrb	r3, [r3]
 1335 0160 DBB2     		uxtb	r3, r3
ARM GAS  C:\Users\akita\AppData\Local\Temp\ccIEDY99.s 			page 35


 1336 0162 0122     		mov	r2, #1
 1337 0164 9343     		bic	r3, r2
 1338 0166 DAB2     		uxtb	r2, r3
 1339 0168 4B4B     		ldr	r3, .L96+8
 1340 016a 1A70     		strb	r2, [r3]
 1341 016c 17E1     		b	.L77
 1342              	.L83:
 583:Generated_Source\PSoC4/BLE_hids.c ****             }
 584:Generated_Source\PSoC4/BLE_hids.c ****             else if(eventParam->handleValPair.attrHandle ==
 1343              		.loc 1 584 0
 1344 016e 7B68     		ldr	r3, [r7, #4]
 1345 0170 9989     		ldrh	r1, [r3, #12]
 585:Generated_Source\PSoC4/BLE_hids.c ****                         cyBle_hidss[locServIndex].bootReportArray[CYBLE_HIDS_BOOT_KYBRD_IN_REP_INDX
 1346              		.loc 1 585 0
 1347 0172 1E23     		mov	r3, #30
 1348 0174 FB18     		add	r3, r7, r3
 1349 0176 1A78     		ldrb	r2, [r3]
 1350 0178 4648     		ldr	r0, .L96+4
 1351 017a 131C     		mov	r3, r2
 1352 017c 9B00     		lsl	r3, r3, #2
 1353 017e 9B18     		add	r3, r3, r2
 1354 0180 DB00     		lsl	r3, r3, #3
 1355 0182 C318     		add	r3, r0, r3
 1356 0184 0833     		add	r3, r3, #8
 1357 0186 DB88     		ldrh	r3, [r3, #6]
 584:Generated_Source\PSoC4/BLE_hids.c ****                         cyBle_hidss[locServIndex].bootReportArray[CYBLE_HIDS_BOOT_KYBRD_IN_REP_INDX
 1358              		.loc 1 584 0
 1359 0188 9942     		cmp	r1, r3
 1360 018a 0ED1     		bne	.L84
 586:Generated_Source\PSoC4/BLE_hids.c ****             {
 587:Generated_Source\PSoC4/BLE_hids.c ****                 locCharValue.charIndex = CYBLE_HIDS_BOOT_KYBRD_IN_REP;
 1361              		.loc 1 587 0
 1362 018c 0C23     		mov	r3, #12
 1363 018e FB18     		add	r3, r7, r3
 1364 0190 0422     		mov	r2, #4
 1365 0192 DA70     		strb	r2, [r3, #3]
 588:Generated_Source\PSoC4/BLE_hids.c ****                 eventCode = CyBle_HidssCccdWriteEventHandler(locServIndex, eventParam);
 1366              		.loc 1 588 0
 1367 0194 1E23     		mov	r3, #30
 1368 0196 FB18     		add	r3, r7, r3
 1369 0198 1A78     		ldrb	r2, [r3]
 1370 019a 7B68     		ldr	r3, [r7, #4]
 1371 019c 101C     		mov	r0, r2
 1372 019e 191C     		mov	r1, r3
 1373 01a0 FFF7FEFF 		bl	CyBle_HidssCccdWriteEventHandler
 1374 01a4 031C     		mov	r3, r0
 1375 01a6 BB61     		str	r3, [r7, #24]
 1376 01a8 F9E0     		b	.L77
 1377              	.L84:
 589:Generated_Source\PSoC4/BLE_hids.c ****             }
 590:Generated_Source\PSoC4/BLE_hids.c ****             else if(eventParam->handleValPair.attrHandle ==
 1378              		.loc 1 590 0
 1379 01aa 7B68     		ldr	r3, [r7, #4]
 1380 01ac 9989     		ldrh	r1, [r3, #12]
 591:Generated_Source\PSoC4/BLE_hids.c ****                         cyBle_hidss[locServIndex].bootReportArray[CYBLE_HIDS_BOOT_KYBRD_OUT_REP_IND
 1381              		.loc 1 591 0
 1382 01ae 1E23     		mov	r3, #30
ARM GAS  C:\Users\akita\AppData\Local\Temp\ccIEDY99.s 			page 36


 1383 01b0 FB18     		add	r3, r7, r3
 1384 01b2 1A78     		ldrb	r2, [r3]
 1385 01b4 3748     		ldr	r0, .L96+4
 1386 01b6 131C     		mov	r3, r2
 1387 01b8 9B00     		lsl	r3, r3, #2
 1388 01ba 9B18     		add	r3, r3, r2
 1389 01bc DB00     		lsl	r3, r3, #3
 1390 01be C318     		add	r3, r0, r3
 1391 01c0 0E33     		add	r3, r3, #14
 1392 01c2 9B88     		ldrh	r3, [r3, #4]
 590:Generated_Source\PSoC4/BLE_hids.c ****                         cyBle_hidss[locServIndex].bootReportArray[CYBLE_HIDS_BOOT_KYBRD_OUT_REP_IND
 1393              		.loc 1 590 0
 1394 01c4 9942     		cmp	r1, r3
 1395 01c6 14D1     		bne	.L85
 592:Generated_Source\PSoC4/BLE_hids.c ****             {
 593:Generated_Source\PSoC4/BLE_hids.c ****                 locCharValue.charIndex = CYBLE_HIDS_BOOT_KYBRD_OUT_REP;
 1396              		.loc 1 593 0
 1397 01c8 0C23     		mov	r3, #12
 1398 01ca FB18     		add	r3, r7, r3
 1399 01cc 0522     		mov	r2, #5
 1400 01ce DA70     		strb	r2, [r3, #3]
 594:Generated_Source\PSoC4/BLE_hids.c ****                 locCharValue.value = &eventParam->handleValPair.value;
 1401              		.loc 1 594 0
 1402 01d0 7B68     		ldr	r3, [r7, #4]
 1403 01d2 1A1D     		add	r2, r3, #4
 1404 01d4 0C23     		mov	r3, #12
 1405 01d6 FB18     		add	r3, r7, r3
 1406 01d8 5A60     		str	r2, [r3, #4]
 595:Generated_Source\PSoC4/BLE_hids.c ****                 eventCode = (uint32)CYBLE_EVT_HIDSS_REPORT_CHAR_WRITE;
 1407              		.loc 1 595 0
 1408 01da C623     		mov	r3, #198
 1409 01dc 5B00     		lsl	r3, r3, #1
 1410 01de BB61     		str	r3, [r7, #24]
 596:Generated_Source\PSoC4/BLE_hids.c ****                 cyBle_eventHandlerFlag &= (uint8)~CYBLE_CALLBACK;
 1411              		.loc 1 596 0
 1412 01e0 2D4B     		ldr	r3, .L96+8
 1413 01e2 1B78     		ldrb	r3, [r3]
 1414 01e4 DBB2     		uxtb	r3, r3
 1415 01e6 0122     		mov	r2, #1
 1416 01e8 9343     		bic	r3, r2
 1417 01ea DAB2     		uxtb	r2, r3
 1418 01ec 2A4B     		ldr	r3, .L96+8
 1419 01ee 1A70     		strb	r2, [r3]
 1420 01f0 D5E0     		b	.L77
 1421              	.L85:
 597:Generated_Source\PSoC4/BLE_hids.c ****             }
 598:Generated_Source\PSoC4/BLE_hids.c ****             else if(eventParam->handleValPair.attrHandle ==
 1422              		.loc 1 598 0
 1423 01f2 7B68     		ldr	r3, [r7, #4]
 1424 01f4 9989     		ldrh	r1, [r3, #12]
 599:Generated_Source\PSoC4/BLE_hids.c ****                         cyBle_hidss[locServIndex].bootReportArray[CYBLE_HIDS_BOOT_MOUSE_IN_REP_INDX
 1425              		.loc 1 599 0
 1426 01f6 1E23     		mov	r3, #30
 1427 01f8 FB18     		add	r3, r7, r3
 1428 01fa 1A78     		ldrb	r2, [r3]
 1429 01fc 2548     		ldr	r0, .L96+4
 1430 01fe 131C     		mov	r3, r2
ARM GAS  C:\Users\akita\AppData\Local\Temp\ccIEDY99.s 			page 37


 1431 0200 9B00     		lsl	r3, r3, #2
 1432 0202 9B18     		add	r3, r3, r2
 1433 0204 DB00     		lsl	r3, r3, #3
 1434 0206 C318     		add	r3, r0, r3
 1435 0208 1433     		add	r3, r3, #20
 1436 020a 9B88     		ldrh	r3, [r3, #4]
 598:Generated_Source\PSoC4/BLE_hids.c ****                         cyBle_hidss[locServIndex].bootReportArray[CYBLE_HIDS_BOOT_MOUSE_IN_REP_INDX
 1437              		.loc 1 598 0
 1438 020c 9942     		cmp	r1, r3
 1439 020e 14D1     		bne	.L86
 600:Generated_Source\PSoC4/BLE_hids.c ****             {
 601:Generated_Source\PSoC4/BLE_hids.c ****                 locCharValue.charIndex = CYBLE_HIDS_BOOT_MOUSE_IN_REP;
 1440              		.loc 1 601 0
 1441 0210 0C23     		mov	r3, #12
 1442 0212 FB18     		add	r3, r7, r3
 1443 0214 0622     		mov	r2, #6
 1444 0216 DA70     		strb	r2, [r3, #3]
 602:Generated_Source\PSoC4/BLE_hids.c ****                 locCharValue.value = &eventParam->handleValPair.value;
 1445              		.loc 1 602 0
 1446 0218 7B68     		ldr	r3, [r7, #4]
 1447 021a 1A1D     		add	r2, r3, #4
 1448 021c 0C23     		mov	r3, #12
 1449 021e FB18     		add	r3, r7, r3
 1450 0220 5A60     		str	r2, [r3, #4]
 603:Generated_Source\PSoC4/BLE_hids.c ****                 eventCode = (uint32)CYBLE_EVT_HIDSS_REPORT_CHAR_WRITE;
 1451              		.loc 1 603 0
 1452 0222 C623     		mov	r3, #198
 1453 0224 5B00     		lsl	r3, r3, #1
 1454 0226 BB61     		str	r3, [r7, #24]
 604:Generated_Source\PSoC4/BLE_hids.c ****                 cyBle_eventHandlerFlag &= (uint8)~CYBLE_CALLBACK;
 1455              		.loc 1 604 0
 1456 0228 1B4B     		ldr	r3, .L96+8
 1457 022a 1B78     		ldrb	r3, [r3]
 1458 022c DBB2     		uxtb	r3, r3
 1459 022e 0122     		mov	r2, #1
 1460 0230 9343     		bic	r3, r2
 1461 0232 DAB2     		uxtb	r2, r3
 1462 0234 184B     		ldr	r3, .L96+8
 1463 0236 1A70     		strb	r2, [r3]
 1464 0238 B1E0     		b	.L77
 1465              	.L86:
 605:Generated_Source\PSoC4/BLE_hids.c ****             }
 606:Generated_Source\PSoC4/BLE_hids.c ****             else if(eventParam->handleValPair.attrHandle ==
 1466              		.loc 1 606 0
 1467 023a 7B68     		ldr	r3, [r7, #4]
 1468 023c 9989     		ldrh	r1, [r3, #12]
 607:Generated_Source\PSoC4/BLE_hids.c ****                         cyBle_hidss[locServIndex].bootReportArray[CYBLE_HIDS_BOOT_MOUSE_IN_REP_INDX
 1469              		.loc 1 607 0
 1470 023e 1E23     		mov	r3, #30
 1471 0240 FB18     		add	r3, r7, r3
 1472 0242 1A78     		ldrb	r2, [r3]
 1473 0244 1348     		ldr	r0, .L96+4
 1474 0246 131C     		mov	r3, r2
 1475 0248 9B00     		lsl	r3, r3, #2
 1476 024a 9B18     		add	r3, r3, r2
 1477 024c DB00     		lsl	r3, r3, #3
 1478 024e C318     		add	r3, r0, r3
ARM GAS  C:\Users\akita\AppData\Local\Temp\ccIEDY99.s 			page 38


 1479 0250 1433     		add	r3, r3, #20
 1480 0252 DB88     		ldrh	r3, [r3, #6]
 606:Generated_Source\PSoC4/BLE_hids.c ****                         cyBle_hidss[locServIndex].bootReportArray[CYBLE_HIDS_BOOT_MOUSE_IN_REP_INDX
 1481              		.loc 1 606 0
 1482 0254 9942     		cmp	r1, r3
 1483 0256 0ED1     		bne	.L87
 608:Generated_Source\PSoC4/BLE_hids.c ****             {
 609:Generated_Source\PSoC4/BLE_hids.c ****                 locCharValue.charIndex = CYBLE_HIDS_BOOT_MOUSE_IN_REP;
 1484              		.loc 1 609 0
 1485 0258 0C23     		mov	r3, #12
 1486 025a FB18     		add	r3, r7, r3
 1487 025c 0622     		mov	r2, #6
 1488 025e DA70     		strb	r2, [r3, #3]
 610:Generated_Source\PSoC4/BLE_hids.c ****                 eventCode = CyBle_HidssCccdWriteEventHandler(locServIndex, eventParam);
 1489              		.loc 1 610 0
 1490 0260 1E23     		mov	r3, #30
 1491 0262 FB18     		add	r3, r7, r3
 1492 0264 1A78     		ldrb	r2, [r3]
 1493 0266 7B68     		ldr	r3, [r7, #4]
 1494 0268 101C     		mov	r0, r2
 1495 026a 191C     		mov	r1, r3
 1496 026c FFF7FEFF 		bl	CyBle_HidssCccdWriteEventHandler
 1497 0270 031C     		mov	r3, r0
 1498 0272 BB61     		str	r3, [r7, #24]
 1499 0274 93E0     		b	.L77
 1500              	.L87:
 1501              	.LBB2:
 611:Generated_Source\PSoC4/BLE_hids.c ****             }
 612:Generated_Source\PSoC4/BLE_hids.c ****             else
 613:Generated_Source\PSoC4/BLE_hids.c ****             {
 614:Generated_Source\PSoC4/BLE_hids.c ****                 uint8 locReqHandle = 0u;
 1502              		.loc 1 614 0
 1503 0276 1723     		mov	r3, #23
 1504 0278 FB18     		add	r3, r7, r3
 1505 027a 0022     		mov	r2, #0
 1506 027c 1A70     		strb	r2, [r3]
 615:Generated_Source\PSoC4/BLE_hids.c ****                 
 616:Generated_Source\PSoC4/BLE_hids.c ****                 locCharIndex = CYBLE_HIDS_REPORT;
 1507              		.loc 1 616 0
 1508 027e 1C23     		mov	r3, #28
 1509 0280 FB18     		add	r3, r7, r3
 1510 0282 0722     		mov	r2, #7
 1511 0284 1A70     		strb	r2, [r3]
 617:Generated_Source\PSoC4/BLE_hids.c ****                 for(reportIndex = 0u; (reportIndex < cyBle_hidss[locServIndex].reportCount) && (loc
 1512              		.loc 1 617 0
 1513 0286 1D23     		mov	r3, #29
 1514 0288 FB18     		add	r3, r7, r3
 1515 028a 0022     		mov	r2, #0
 1516 028c 1A70     		strb	r2, [r3]
 1517 028e 71E0     		b	.L88
 1518              	.L97:
 1519              		.align	2
 1520              	.L96:
 1521 0290 00000000 		.word	CyBle_HidsApplCallback
 1522 0294 00000000 		.word	cyBle_hidss
 1523 0298 00000000 		.word	cyBle_eventHandlerFlag
 1524              	.L91:
ARM GAS  C:\Users\akita\AppData\Local\Temp\ccIEDY99.s 			page 39


 618:Generated_Source\PSoC4/BLE_hids.c ****                         reportIndex++)
 619:Generated_Source\PSoC4/BLE_hids.c ****                 {
 620:Generated_Source\PSoC4/BLE_hids.c ****                     if(eventParam->handleValPair.attrHandle == 
 1525              		.loc 1 620 0
 1526 029c 7B68     		ldr	r3, [r7, #4]
 1527 029e 9989     		ldrh	r1, [r3, #12]
 621:Generated_Source\PSoC4/BLE_hids.c ****                         cyBle_hidss[locServIndex].reportArray[reportIndex].reportHandle)
 1528              		.loc 1 621 0
 1529 02a0 1E23     		mov	r3, #30
 1530 02a2 FB18     		add	r3, r7, r3
 1531 02a4 1A78     		ldrb	r2, [r3]
 1532 02a6 5948     		ldr	r0, .L98
 1533 02a8 131C     		mov	r3, r2
 1534 02aa 9B00     		lsl	r3, r3, #2
 1535 02ac 9B18     		add	r3, r3, r2
 1536 02ae DB00     		lsl	r3, r3, #3
 1537 02b0 C318     		add	r3, r0, r3
 1538 02b2 0833     		add	r3, r3, #8
 1539 02b4 1868     		ldr	r0, [r3]
 1540 02b6 1D23     		mov	r3, #29
 1541 02b8 FB18     		add	r3, r7, r3
 1542 02ba 1A78     		ldrb	r2, [r3]
 1543 02bc 131C     		mov	r3, r2
 1544 02be 5B00     		lsl	r3, r3, #1
 1545 02c0 9B18     		add	r3, r3, r2
 1546 02c2 5B00     		lsl	r3, r3, #1
 1547 02c4 C318     		add	r3, r0, r3
 1548 02c6 1B88     		ldrh	r3, [r3]
 620:Generated_Source\PSoC4/BLE_hids.c ****                         cyBle_hidss[locServIndex].reportArray[reportIndex].reportHandle)
 1549              		.loc 1 620 0
 1550 02c8 9942     		cmp	r1, r3
 1551 02ca 19D1     		bne	.L89
 622:Generated_Source\PSoC4/BLE_hids.c ****                     {
 623:Generated_Source\PSoC4/BLE_hids.c ****                         locCharValue.charIndex = locCharIndex;
 1552              		.loc 1 623 0
 1553 02cc 0C23     		mov	r3, #12
 1554 02ce FB18     		add	r3, r7, r3
 1555 02d0 1C22     		mov	r2, #28
 1556 02d2 BA18     		add	r2, r7, r2
 1557 02d4 1278     		ldrb	r2, [r2]
 1558 02d6 DA70     		strb	r2, [r3, #3]
 624:Generated_Source\PSoC4/BLE_hids.c ****                         locCharValue.value = &eventParam->handleValPair.value;
 1559              		.loc 1 624 0
 1560 02d8 7B68     		ldr	r3, [r7, #4]
 1561 02da 1A1D     		add	r2, r3, #4
 1562 02dc 0C23     		mov	r3, #12
 1563 02de FB18     		add	r3, r7, r3
 1564 02e0 5A60     		str	r2, [r3, #4]
 625:Generated_Source\PSoC4/BLE_hids.c ****                         eventCode = (uint32)CYBLE_EVT_HIDSS_REPORT_CHAR_WRITE;
 1565              		.loc 1 625 0
 1566 02e2 C623     		mov	r3, #198
 1567 02e4 5B00     		lsl	r3, r3, #1
 1568 02e6 BB61     		str	r3, [r7, #24]
 626:Generated_Source\PSoC4/BLE_hids.c ****                         cyBle_eventHandlerFlag &= (uint8)~CYBLE_CALLBACK;
 1569              		.loc 1 626 0
 1570 02e8 494B     		ldr	r3, .L98+4
 1571 02ea 1B78     		ldrb	r3, [r3]
ARM GAS  C:\Users\akita\AppData\Local\Temp\ccIEDY99.s 			page 40


 1572 02ec DBB2     		uxtb	r3, r3
 1573 02ee 0122     		mov	r2, #1
 1574 02f0 9343     		bic	r3, r2
 1575 02f2 DAB2     		uxtb	r2, r3
 1576 02f4 464B     		ldr	r3, .L98+4
 1577 02f6 1A70     		strb	r2, [r3]
 627:Generated_Source\PSoC4/BLE_hids.c ****                         locReqHandle = 1u;
 1578              		.loc 1 627 0
 1579 02f8 1723     		mov	r3, #23
 1580 02fa FB18     		add	r3, r7, r3
 1581 02fc 0122     		mov	r2, #1
 1582 02fe 1A70     		strb	r2, [r3]
 1583              	.L89:
 628:Generated_Source\PSoC4/BLE_hids.c ****                     }
 629:Generated_Source\PSoC4/BLE_hids.c ****                     if(eventParam->handleValPair.attrHandle == 
 1584              		.loc 1 629 0
 1585 0300 7B68     		ldr	r3, [r7, #4]
 1586 0302 9989     		ldrh	r1, [r3, #12]
 630:Generated_Source\PSoC4/BLE_hids.c ****                         cyBle_hidss[locServIndex].reportArray[reportIndex].cccdHandle)
 1587              		.loc 1 630 0
 1588 0304 1E23     		mov	r3, #30
 1589 0306 FB18     		add	r3, r7, r3
 1590 0308 1A78     		ldrb	r2, [r3]
 1591 030a 4048     		ldr	r0, .L98
 1592 030c 131C     		mov	r3, r2
 1593 030e 9B00     		lsl	r3, r3, #2
 1594 0310 9B18     		add	r3, r3, r2
 1595 0312 DB00     		lsl	r3, r3, #3
 1596 0314 C318     		add	r3, r0, r3
 1597 0316 0833     		add	r3, r3, #8
 1598 0318 1868     		ldr	r0, [r3]
 1599 031a 1D23     		mov	r3, #29
 1600 031c FB18     		add	r3, r7, r3
 1601 031e 1A78     		ldrb	r2, [r3]
 1602 0320 131C     		mov	r3, r2
 1603 0322 5B00     		lsl	r3, r3, #1
 1604 0324 9B18     		add	r3, r3, r2
 1605 0326 5B00     		lsl	r3, r3, #1
 1606 0328 C318     		add	r3, r0, r3
 1607 032a 5B88     		ldrh	r3, [r3, #2]
 629:Generated_Source\PSoC4/BLE_hids.c ****                         cyBle_hidss[locServIndex].reportArray[reportIndex].cccdHandle)
 1608              		.loc 1 629 0
 1609 032c 9942     		cmp	r1, r3
 1610 032e 13D1     		bne	.L90
 631:Generated_Source\PSoC4/BLE_hids.c ****                     {
 632:Generated_Source\PSoC4/BLE_hids.c ****                         locCharValue.charIndex = locCharIndex;
 1611              		.loc 1 632 0
 1612 0330 0C23     		mov	r3, #12
 1613 0332 FB18     		add	r3, r7, r3
 1614 0334 1C22     		mov	r2, #28
 1615 0336 BA18     		add	r2, r7, r2
 1616 0338 1278     		ldrb	r2, [r2]
 1617 033a DA70     		strb	r2, [r3, #3]
 633:Generated_Source\PSoC4/BLE_hids.c ****                         eventCode = CyBle_HidssCccdWriteEventHandler(locServIndex, eventParam);
 1618              		.loc 1 633 0
 1619 033c 1E23     		mov	r3, #30
 1620 033e FB18     		add	r3, r7, r3
ARM GAS  C:\Users\akita\AppData\Local\Temp\ccIEDY99.s 			page 41


 1621 0340 1A78     		ldrb	r2, [r3]
 1622 0342 7B68     		ldr	r3, [r7, #4]
 1623 0344 101C     		mov	r0, r2
 1624 0346 191C     		mov	r1, r3
 1625 0348 FFF7FEFF 		bl	CyBle_HidssCccdWriteEventHandler
 1626 034c 031C     		mov	r3, r0
 1627 034e BB61     		str	r3, [r7, #24]
 634:Generated_Source\PSoC4/BLE_hids.c ****                         locReqHandle = 1u;
 1628              		.loc 1 634 0
 1629 0350 1723     		mov	r3, #23
 1630 0352 FB18     		add	r3, r7, r3
 1631 0354 0122     		mov	r2, #1
 1632 0356 1A70     		strb	r2, [r3]
 1633              	.L90:
 635:Generated_Source\PSoC4/BLE_hids.c ****                     }
 636:Generated_Source\PSoC4/BLE_hids.c ****                     locCharIndex++;
 1634              		.loc 1 636 0
 1635 0358 1C23     		mov	r3, #28
 1636 035a FB18     		add	r3, r7, r3
 1637 035c 1A78     		ldrb	r2, [r3]
 1638 035e 1C23     		mov	r3, #28
 1639 0360 FB18     		add	r3, r7, r3
 1640 0362 0132     		add	r2, r2, #1
 1641 0364 1A70     		strb	r2, [r3]
 618:Generated_Source\PSoC4/BLE_hids.c ****                 {
 1642              		.loc 1 618 0
 1643 0366 1D23     		mov	r3, #29
 1644 0368 FB18     		add	r3, r7, r3
 1645 036a 1A78     		ldrb	r2, [r3]
 1646 036c 1D23     		mov	r3, #29
 1647 036e FB18     		add	r3, r7, r3
 1648 0370 0132     		add	r2, r2, #1
 1649 0372 1A70     		strb	r2, [r3]
 1650              	.L88:
 617:Generated_Source\PSoC4/BLE_hids.c ****                         reportIndex++)
 1651              		.loc 1 617 0 discriminator 1
 1652 0374 1E23     		mov	r3, #30
 1653 0376 FB18     		add	r3, r7, r3
 1654 0378 1A78     		ldrb	r2, [r3]
 1655 037a 2449     		ldr	r1, .L98
 1656 037c 131C     		mov	r3, r2
 1657 037e 9B00     		lsl	r3, r3, #2
 1658 0380 9B18     		add	r3, r3, r2
 1659 0382 DB00     		lsl	r3, r3, #3
 1660 0384 CB18     		add	r3, r1, r3
 1661 0386 1B79     		ldrb	r3, [r3, #4]
 1662 0388 1D22     		mov	r2, #29
 1663 038a BA18     		add	r2, r7, r2
 1664 038c 1278     		ldrb	r2, [r2]
 1665 038e 9A42     		cmp	r2, r3
 1666 0390 05D2     		bcs	.L77
 617:Generated_Source\PSoC4/BLE_hids.c ****                         reportIndex++)
 1667              		.loc 1 617 0 is_stmt 0 discriminator 2
 1668 0392 1723     		mov	r3, #23
 1669 0394 FB18     		add	r3, r7, r3
 1670 0396 1B78     		ldrb	r3, [r3]
 1671 0398 002B     		cmp	r3, #0
ARM GAS  C:\Users\akita\AppData\Local\Temp\ccIEDY99.s 			page 42


 1672 039a 00D1     		bne	.LCB1494
 1673 039c 7EE7     		b	.L91	@long jump
 1674              	.LCB1494:
 1675              	.L77:
 1676              	.LBE2:
 637:Generated_Source\PSoC4/BLE_hids.c ****                 }
 638:Generated_Source\PSoC4/BLE_hids.c ****             }
 639:Generated_Source\PSoC4/BLE_hids.c ****             locServIndex++;
 1677              		.loc 1 639 0 is_stmt 1
 1678 039e 1E23     		mov	r3, #30
 1679 03a0 FB18     		add	r3, r7, r3
 1680 03a2 1A78     		ldrb	r2, [r3]
 1681 03a4 1E23     		mov	r3, #30
 1682 03a6 FB18     		add	r3, r7, r3
 1683 03a8 0132     		add	r2, r2, #1
 1684 03aa 1A70     		strb	r2, [r3]
 640:Generated_Source\PSoC4/BLE_hids.c ****             /* Store data to database if event is handled */
 641:Generated_Source\PSoC4/BLE_hids.c ****             if((cyBle_eventHandlerFlag & CYBLE_CALLBACK) == 0u)
 1685              		.loc 1 641 0
 1686 03ac 184B     		ldr	r3, .L98+4
 1687 03ae 1B78     		ldrb	r3, [r3]
 1688 03b0 DBB2     		uxtb	r3, r3
 1689 03b2 1A1C     		mov	r2, r3
 1690 03b4 0123     		mov	r3, #1
 1691 03b6 1340     		and	r3, r2
 1692 03b8 1BD1     		bne	.L92
 642:Generated_Source\PSoC4/BLE_hids.c ****             {
 643:Generated_Source\PSoC4/BLE_hids.c ****                 gattErr = CyBle_GattsWriteAttributeValue(&eventParam->handleValPair, 0u, 
 1693              		.loc 1 643 0
 1694 03ba 7B68     		ldr	r3, [r7, #4]
 1695 03bc 1A1D     		add	r2, r3, #4
 1696 03be 7B68     		ldr	r3, [r7, #4]
 1697 03c0 1F21     		mov	r1, #31
 1698 03c2 7C18     		add	r4, r7, r1
 1699 03c4 101C     		mov	r0, r2
 1700 03c6 0021     		mov	r1, #0
 1701 03c8 1A1C     		mov	r2, r3
 1702 03ca 4023     		mov	r3, #64
 1703 03cc FFF7FEFF 		bl	CyBle_GattsWriteAttributeValue
 1704 03d0 031C     		mov	r3, r0
 1705 03d2 2370     		strb	r3, [r4]
 644:Generated_Source\PSoC4/BLE_hids.c ****                     &eventParam->connHandle, CYBLE_GATT_DB_PEER_INITIATED);
 645:Generated_Source\PSoC4/BLE_hids.c ****                 if(gattErr == CYBLE_GATT_ERR_NONE)
 1706              		.loc 1 645 0
 1707 03d4 1F23     		mov	r3, #31
 1708 03d6 FB18     		add	r3, r7, r3
 1709 03d8 1B78     		ldrb	r3, [r3]
 1710 03da 002B     		cmp	r3, #0
 1711 03dc 08D1     		bne	.L93
 646:Generated_Source\PSoC4/BLE_hids.c ****                 {                
 647:Generated_Source\PSoC4/BLE_hids.c ****                     CyBle_HidsApplCallback(eventCode, &locCharValue);
 1712              		.loc 1 647 0
 1713 03de 0D4B     		ldr	r3, .L98+8
 1714 03e0 1B68     		ldr	r3, [r3]
 1715 03e2 B969     		ldr	r1, [r7, #24]
 1716 03e4 0C22     		mov	r2, #12
 1717 03e6 BA18     		add	r2, r7, r2
ARM GAS  C:\Users\akita\AppData\Local\Temp\ccIEDY99.s 			page 43


 1718 03e8 081C     		mov	r0, r1
 1719 03ea 111C     		mov	r1, r2
 1720 03ec 9847     		blx	r3
 648:Generated_Source\PSoC4/BLE_hids.c ****                 }
 649:Generated_Source\PSoC4/BLE_hids.c ****                 break;
 1721              		.loc 1 649 0
 1722 03ee 06E0     		b	.L71
 1723              	.L93:
 1724 03f0 05E0     		b	.L71
 1725              	.L92:
 650:Generated_Source\PSoC4/BLE_hids.c ****             }
 651:Generated_Source\PSoC4/BLE_hids.c ****         }while(locServIndex < CYBLE_HIDSS_SERVICE_COUNT);
 1726              		.loc 1 651 0
 1727 03f2 1E23     		mov	r3, #30
 1728 03f4 FB18     		add	r3, r7, r3
 1729 03f6 1B78     		ldrb	r3, [r3]
 1730 03f8 002B     		cmp	r3, #0
 1731 03fa 00D1     		bne	.LCB1549
 1732 03fc 1CE6     		b	.L94	@long jump
 1733              	.LCB1549:
 1734              	.L71:
 652:Generated_Source\PSoC4/BLE_hids.c ****     }
 653:Generated_Source\PSoC4/BLE_hids.c ****     return (gattErr);
 1735              		.loc 1 653 0
 1736 03fe 1F23     		mov	r3, #31
 1737 0400 FB18     		add	r3, r7, r3
 1738 0402 1B78     		ldrb	r3, [r3]
 654:Generated_Source\PSoC4/BLE_hids.c **** }
 1739              		.loc 1 654 0
 1740 0404 181C     		mov	r0, r3
 1741 0406 BD46     		mov	sp, r7
 1742 0408 09B0     		add	sp, sp, #36
 1743              		@ sp needed
 1744 040a 90BD     		pop	{r4, r7, pc}
 1745              	.L99:
 1746              		.align	2
 1747              	.L98:
 1748 040c 00000000 		.word	cyBle_hidss
 1749 0410 00000000 		.word	cyBle_eventHandlerFlag
 1750 0414 00000000 		.word	CyBle_HidsApplCallback
 1751              		.cfi_endproc
 1752              	.LFE8:
 1753              		.size	CyBle_HidssWriteEventHandler, .-CyBle_HidssWriteEventHandler
 1754              		.section	.text.CyBle_HidssSendNotification,"ax",%progbits
 1755              		.align	2
 1756              		.global	CyBle_HidssSendNotification
 1757              		.code	16
 1758              		.thumb_func
 1759              		.type	CyBle_HidssSendNotification, %function
 1760              	CyBle_HidssSendNotification:
 1761              	.LFB9:
 655:Generated_Source\PSoC4/BLE_hids.c **** 
 656:Generated_Source\PSoC4/BLE_hids.c **** 
 657:Generated_Source\PSoC4/BLE_hids.c **** /****************************************************************************** 
 658:Generated_Source\PSoC4/BLE_hids.c **** * Function Name: CyBle_HidssSendNotification
 659:Generated_Source\PSoC4/BLE_hids.c **** ***************************************************************************//**
 660:Generated_Source\PSoC4/BLE_hids.c **** * 
ARM GAS  C:\Users\akita\AppData\Local\Temp\ccIEDY99.s 			page 44


 661:Generated_Source\PSoC4/BLE_hids.c **** *  Sends specified HID Service characteristic notification to the Client device.
 662:Generated_Source\PSoC4/BLE_hids.c **** * 
 663:Generated_Source\PSoC4/BLE_hids.c **** *  CYBLE_EVT_HIDSC_NOTIFICATION event is received by the peer device, on invoking 
 664:Generated_Source\PSoC4/BLE_hids.c **** *   this function.
 665:Generated_Source\PSoC4/BLE_hids.c **** *
 666:Generated_Source\PSoC4/BLE_hids.c **** *  On enabling notification successfully for a service characteristic, if the GATT
 667:Generated_Source\PSoC4/BLE_hids.c **** *  server has an updated value to be notified to the GATT Client, it sends out a
 668:Generated_Source\PSoC4/BLE_hids.c **** *  'Handle Value Notification' which results in CYBLE_EVT_HIDSC_NOTIFICATION event
 669:Generated_Source\PSoC4/BLE_hids.c **** *  at the GATT Client's end.
 670:Generated_Source\PSoC4/BLE_hids.c **** * 
 671:Generated_Source\PSoC4/BLE_hids.c **** *  \param connHandle: BLE peer device connection handle.
 672:Generated_Source\PSoC4/BLE_hids.c **** *  \param serviceIndex: The index of the HID service instance. e.g. If two HID Services
 673:Generated_Source\PSoC4/BLE_hids.c **** *                 are supported in your design, then first service will be 
 674:Generated_Source\PSoC4/BLE_hids.c **** *                 identified by serviceIndex of 0 and the second by serviceIndex
 675:Generated_Source\PSoC4/BLE_hids.c **** *                 of 1.
 676:Generated_Source\PSoC4/BLE_hids.c **** *  \param charIndex: The index of the service characteristic.
 677:Generated_Source\PSoC4/BLE_hids.c **** *  \param attrSize: The size of the characteristic value attribute.
 678:Generated_Source\PSoC4/BLE_hids.c **** *  \param attrValue: Pointer to the characteristic value data that should be sent to
 679:Generated_Source\PSoC4/BLE_hids.c **** *               the Client device.
 680:Generated_Source\PSoC4/BLE_hids.c **** * 
 681:Generated_Source\PSoC4/BLE_hids.c **** * \return
 682:Generated_Source\PSoC4/BLE_hids.c **** *  Return value is of type CYBLE_API_RESULT_T.
 683:Generated_Source\PSoC4/BLE_hids.c **** *   * CYBLE_ERROR_OK - The request handled successfully
 684:Generated_Source\PSoC4/BLE_hids.c **** *   * CYBLE_ERROR_INVALID_PARAMETER - Validation of the input parameter failed
 685:Generated_Source\PSoC4/BLE_hids.c **** *   * CYBLE_ERROR_INVALID_OPERATION - This operation is not permitted
 686:Generated_Source\PSoC4/BLE_hids.c **** *   * CYBLE_ERROR_GATT_DB_INVALID_ATTR_HANDLE - Optional characteristic is absent
 687:Generated_Source\PSoC4/BLE_hids.c **** *   * CYBLE_ERROR_INVALID_STATE - Connection with the client is not established
 688:Generated_Source\PSoC4/BLE_hids.c **** *   * CYBLE_ERROR_MEMORY_ALLOCATION_FAILED - Memory allocation failed. 
 689:Generated_Source\PSoC4/BLE_hids.c **** * 
 690:Generated_Source\PSoC4/BLE_hids.c **** ******************************************************************************/
 691:Generated_Source\PSoC4/BLE_hids.c **** CYBLE_API_RESULT_T CyBle_HidssSendNotification(CYBLE_CONN_HANDLE_T connHandle,
 692:Generated_Source\PSoC4/BLE_hids.c ****     uint8 serviceIndex, CYBLE_HIDS_CHAR_INDEX_T charIndex, uint8 attrSize, uint8 *attrValue)
 693:Generated_Source\PSoC4/BLE_hids.c **** {
 1762              		.loc 1 693 0
 1763              		.cfi_startproc
 1764 0000 90B5     		push	{r4, r7, lr}
 1765              		.cfi_def_cfa_offset 12
 1766              		.cfi_offset 4, -12
 1767              		.cfi_offset 7, -8
 1768              		.cfi_offset 14, -4
 1769 0002 8BB0     		sub	sp, sp, #44
 1770              		.cfi_def_cfa_offset 56
 1771 0004 00AF     		add	r7, sp, #0
 1772              		.cfi_def_cfa_register 7
 1773 0006 3C1D     		add	r4, r7, #4
 1774 0008 2080     		strh	r0, [r4]
 1775 000a 0C1C     		mov	r4, r1
 1776 000c 101C     		mov	r0, r2
 1777 000e 191C     		mov	r1, r3
 1778 0010 FB1C     		add	r3, r7, #3
 1779 0012 221C     		add	r2, r4, #0
 1780 0014 1A70     		strb	r2, [r3]
 1781 0016 BB1C     		add	r3, r7, #2
 1782 0018 021C     		add	r2, r0, #0
 1783 001a 1A70     		strb	r2, [r3]
 1784 001c 7B1C     		add	r3, r7, #1
 1785 001e 0A1C     		add	r2, r1, #0
ARM GAS  C:\Users\akita\AppData\Local\Temp\ccIEDY99.s 			page 45


 1786 0020 1A70     		strb	r2, [r3]
 694:Generated_Source\PSoC4/BLE_hids.c ****     CYBLE_API_RESULT_T apiResult = CYBLE_ERROR_OK;
 1787              		.loc 1 694 0
 1788 0022 2623     		mov	r3, #38
 1789 0024 FB18     		add	r3, r7, r3
 1790 0026 0022     		mov	r2, #0
 1791 0028 1A80     		strh	r2, [r3]
 695:Generated_Source\PSoC4/BLE_hids.c ****     const CYBLE_HIDSS_REPORT_T *locReport;
 696:Generated_Source\PSoC4/BLE_hids.c ****     CYBLE_GATTS_HANDLE_VALUE_NTF_T ntfReqParam;
 697:Generated_Source\PSoC4/BLE_hids.c ****     CYBLE_GATT_HANDLE_VALUE_PAIR_T locHandleValuePair;
 698:Generated_Source\PSoC4/BLE_hids.c **** 
 699:Generated_Source\PSoC4/BLE_hids.c ****     if((serviceIndex >= CYBLE_HIDSS_SERVICE_COUNT) || (charIndex >= CYBLE_HIDS_CHAR_COUNT))
 1792              		.loc 1 699 0
 1793 002a FB1C     		add	r3, r7, #3
 1794 002c 1B78     		ldrb	r3, [r3]
 1795 002e 002B     		cmp	r3, #0
 1796 0030 03D1     		bne	.L101
 1797              		.loc 1 699 0 is_stmt 0 discriminator 1
 1798 0032 BB1C     		add	r3, r7, #2
 1799 0034 1B78     		ldrb	r3, [r3]
 1800 0036 082B     		cmp	r3, #8
 1801 0038 04D9     		bls	.L102
 1802              	.L101:
 700:Generated_Source\PSoC4/BLE_hids.c ****     {
 701:Generated_Source\PSoC4/BLE_hids.c ****         apiResult = CYBLE_ERROR_INVALID_PARAMETER;
 1803              		.loc 1 701 0 is_stmt 1
 1804 003a 2623     		mov	r3, #38
 1805 003c FB18     		add	r3, r7, r3
 1806 003e 0122     		mov	r2, #1
 1807 0040 1A80     		strh	r2, [r3]
 1808 0042 BAE0     		b	.L103
 1809              	.L102:
 702:Generated_Source\PSoC4/BLE_hids.c ****     }
 703:Generated_Source\PSoC4/BLE_hids.c ****     else
 704:Generated_Source\PSoC4/BLE_hids.c ****     {
 705:Generated_Source\PSoC4/BLE_hids.c ****         if(charIndex == CYBLE_HIDS_BOOT_KYBRD_IN_REP)
 1810              		.loc 1 705 0
 1811 0044 BB1C     		add	r3, r7, #2
 1812 0046 1B78     		ldrb	r3, [r3]
 1813 0048 042B     		cmp	r3, #4
 1814 004a 0CD1     		bne	.L104
 706:Generated_Source\PSoC4/BLE_hids.c ****         {
 707:Generated_Source\PSoC4/BLE_hids.c ****             locReport = &cyBle_hidss[serviceIndex].bootReportArray[CYBLE_HIDS_BOOT_KYBRD_IN_REP_IND
 1815              		.loc 1 707 0
 1816 004c FB1C     		add	r3, r7, #3
 1817 004e 1A78     		ldrb	r2, [r3]
 1818 0050 131C     		mov	r3, r2
 1819 0052 9B00     		lsl	r3, r3, #2
 1820 0054 9B18     		add	r3, r3, r2
 1821 0056 DB00     		lsl	r3, r3, #3
 1822 0058 0833     		add	r3, r3, #8
 1823 005a 1A1C     		mov	r2, r3
 1824 005c 5A4B     		ldr	r3, .L115
 1825 005e D318     		add	r3, r2, r3
 1826 0060 0433     		add	r3, r3, #4
 1827 0062 3B62     		str	r3, [r7, #32]
 1828 0064 43E0     		b	.L105
ARM GAS  C:\Users\akita\AppData\Local\Temp\ccIEDY99.s 			page 46


 1829              	.L104:
 708:Generated_Source\PSoC4/BLE_hids.c ****         }
 709:Generated_Source\PSoC4/BLE_hids.c ****         else if(charIndex == CYBLE_HIDS_BOOT_MOUSE_IN_REP)
 1830              		.loc 1 709 0
 1831 0066 BB1C     		add	r3, r7, #2
 1832 0068 1B78     		ldrb	r3, [r3]
 1833 006a 062B     		cmp	r3, #6
 1834 006c 0CD1     		bne	.L106
 710:Generated_Source\PSoC4/BLE_hids.c ****         {
 711:Generated_Source\PSoC4/BLE_hids.c ****             locReport = &cyBle_hidss[serviceIndex].bootReportArray[CYBLE_HIDS_BOOT_MOUSE_IN_REP_IND
 1835              		.loc 1 711 0
 1836 006e FB1C     		add	r3, r7, #3
 1837 0070 1A78     		ldrb	r2, [r3]
 1838 0072 131C     		mov	r3, r2
 1839 0074 9B00     		lsl	r3, r3, #2
 1840 0076 9B18     		add	r3, r3, r2
 1841 0078 DB00     		lsl	r3, r3, #3
 1842 007a 1433     		add	r3, r3, #20
 1843 007c 1A1C     		mov	r2, r3
 1844 007e 524B     		ldr	r3, .L115
 1845 0080 D318     		add	r3, r2, r3
 1846 0082 0433     		add	r3, r3, #4
 1847 0084 3B62     		str	r3, [r7, #32]
 1848 0086 32E0     		b	.L105
 1849              	.L106:
 712:Generated_Source\PSoC4/BLE_hids.c ****         }
 713:Generated_Source\PSoC4/BLE_hids.c ****         else if((charIndex >= CYBLE_HIDS_REPORT) && (charIndex <= CYBLE_HIDS_REPORT_END))
 1850              		.loc 1 713 0
 1851 0088 BB1C     		add	r3, r7, #2
 1852 008a 1B78     		ldrb	r3, [r3]
 1853 008c 062B     		cmp	r3, #6
 1854 008e 2AD9     		bls	.L107
 1855              		.loc 1 713 0 is_stmt 0 discriminator 1
 1856 0090 BB1C     		add	r3, r7, #2
 1857 0092 1B78     		ldrb	r3, [r3]
 1858 0094 082B     		cmp	r3, #8
 1859 0096 26D8     		bhi	.L107
 714:Generated_Source\PSoC4/BLE_hids.c ****         {
 715:Generated_Source\PSoC4/BLE_hids.c ****             /* Verify that requested report exists in particular service */
 716:Generated_Source\PSoC4/BLE_hids.c ****             if((charIndex - CYBLE_HIDS_REPORT) < cyBle_hidss[serviceIndex].reportCount)
 1860              		.loc 1 716 0 is_stmt 1
 1861 0098 BB1C     		add	r3, r7, #2
 1862 009a 1B78     		ldrb	r3, [r3]
 1863 009c D91F     		sub	r1, r3, #7
 1864 009e FB1C     		add	r3, r7, #3
 1865 00a0 1A78     		ldrb	r2, [r3]
 1866 00a2 4948     		ldr	r0, .L115
 1867 00a4 131C     		mov	r3, r2
 1868 00a6 9B00     		lsl	r3, r3, #2
 1869 00a8 9B18     		add	r3, r3, r2
 1870 00aa DB00     		lsl	r3, r3, #3
 1871 00ac C318     		add	r3, r0, r3
 1872 00ae 1B79     		ldrb	r3, [r3, #4]
 1873 00b0 9942     		cmp	r1, r3
 1874 00b2 13DA     		bge	.L108
 717:Generated_Source\PSoC4/BLE_hids.c ****             {
 718:Generated_Source\PSoC4/BLE_hids.c ****                 locReport = &cyBle_hidss[serviceIndex].reportArray[charIndex - CYBLE_HIDS_REPORT];
ARM GAS  C:\Users\akita\AppData\Local\Temp\ccIEDY99.s 			page 47


 1875              		.loc 1 718 0
 1876 00b4 FB1C     		add	r3, r7, #3
 1877 00b6 1A78     		ldrb	r2, [r3]
 1878 00b8 4349     		ldr	r1, .L115
 1879 00ba 131C     		mov	r3, r2
 1880 00bc 9B00     		lsl	r3, r3, #2
 1881 00be 9B18     		add	r3, r3, r2
 1882 00c0 DB00     		lsl	r3, r3, #3
 1883 00c2 CB18     		add	r3, r1, r3
 1884 00c4 0833     		add	r3, r3, #8
 1885 00c6 1968     		ldr	r1, [r3]
 1886 00c8 BB1C     		add	r3, r7, #2
 1887 00ca 1A78     		ldrb	r2, [r3]
 1888 00cc 131C     		mov	r3, r2
 1889 00ce 5B00     		lsl	r3, r3, #1
 1890 00d0 9B18     		add	r3, r3, r2
 1891 00d2 5B00     		lsl	r3, r3, #1
 1892 00d4 2A3B     		sub	r3, r3, #42
 1893 00d6 CB18     		add	r3, r1, r3
 1894 00d8 3B62     		str	r3, [r7, #32]
 716:Generated_Source\PSoC4/BLE_hids.c ****             {
 1895              		.loc 1 716 0
 1896 00da 08E0     		b	.L105
 1897              	.L108:
 719:Generated_Source\PSoC4/BLE_hids.c ****             }
 720:Generated_Source\PSoC4/BLE_hids.c ****             else
 721:Generated_Source\PSoC4/BLE_hids.c ****             {
 722:Generated_Source\PSoC4/BLE_hids.c ****                 apiResult = CYBLE_ERROR_INVALID_PARAMETER;
 1898              		.loc 1 722 0
 1899 00dc 2623     		mov	r3, #38
 1900 00de FB18     		add	r3, r7, r3
 1901 00e0 0122     		mov	r2, #1
 1902 00e2 1A80     		strh	r2, [r3]
 716:Generated_Source\PSoC4/BLE_hids.c ****             {
 1903              		.loc 1 716 0
 1904 00e4 03E0     		b	.L105
 1905              	.L107:
 723:Generated_Source\PSoC4/BLE_hids.c ****             }
 724:Generated_Source\PSoC4/BLE_hids.c ****         }
 725:Generated_Source\PSoC4/BLE_hids.c ****         else
 726:Generated_Source\PSoC4/BLE_hids.c ****         {
 727:Generated_Source\PSoC4/BLE_hids.c ****             apiResult = CYBLE_ERROR_INVALID_PARAMETER;
 1906              		.loc 1 727 0
 1907 00e6 2623     		mov	r3, #38
 1908 00e8 FB18     		add	r3, r7, r3
 1909 00ea 0122     		mov	r2, #1
 1910 00ec 1A80     		strh	r2, [r3]
 1911              	.L105:
 728:Generated_Source\PSoC4/BLE_hids.c ****         }
 729:Generated_Source\PSoC4/BLE_hids.c ****         if(apiResult == CYBLE_ERROR_OK)
 1912              		.loc 1 729 0
 1913 00ee 2623     		mov	r3, #38
 1914 00f0 FB18     		add	r3, r7, r3
 1915 00f2 1B88     		ldrh	r3, [r3]
 1916 00f4 002B     		cmp	r3, #0
 1917 00f6 60D1     		bne	.L103
 730:Generated_Source\PSoC4/BLE_hids.c ****         {
ARM GAS  C:\Users\akita\AppData\Local\Temp\ccIEDY99.s 			page 48


 731:Generated_Source\PSoC4/BLE_hids.c ****             if(locReport->reportHandle == CYBLE_GATT_INVALID_ATTR_HANDLE_VALUE)
 1918              		.loc 1 731 0
 1919 00f8 3B6A     		ldr	r3, [r7, #32]
 1920 00fa 1B88     		ldrh	r3, [r3]
 1921 00fc 002B     		cmp	r3, #0
 1922 00fe 04D1     		bne	.L110
 732:Generated_Source\PSoC4/BLE_hids.c ****             {
 733:Generated_Source\PSoC4/BLE_hids.c ****                 apiResult = CYBLE_ERROR_GATT_DB_INVALID_ATTR_HANDLE;
 1923              		.loc 1 733 0
 1924 0100 2623     		mov	r3, #38
 1925 0102 FB18     		add	r3, r7, r3
 1926 0104 1322     		mov	r2, #19
 1927 0106 1A80     		strh	r2, [r3]
 1928 0108 57E0     		b	.L103
 1929              	.L110:
 734:Generated_Source\PSoC4/BLE_hids.c ****             }
 735:Generated_Source\PSoC4/BLE_hids.c ****             else
 736:Generated_Source\PSoC4/BLE_hids.c ****             {
 737:Generated_Source\PSoC4/BLE_hids.c ****                 /* Send Notification if it is enabled and connected */
 738:Generated_Source\PSoC4/BLE_hids.c ****                 if(CYBLE_IS_NOTIFICATION_ENABLED(locReport->cccdHandle))
 1930              		.loc 1 738 0
 1931 010a 3B6A     		ldr	r3, [r7, #32]
 1932 010c 5B88     		ldrh	r3, [r3, #2]
 1933 010e 5A1E     		sub	r2, r3, #1
 1934 0110 2E49     		ldr	r1, .L115+4
 1935 0112 131C     		mov	r3, r2
 1936 0114 9B00     		lsl	r3, r3, #2
 1937 0116 9B18     		add	r3, r3, r2
 1938 0118 9B00     		lsl	r3, r3, #2
 1939 011a CB18     		add	r3, r1, r3
 1940 011c 0833     		add	r3, r3, #8
 1941 011e 9B68     		ldr	r3, [r3, #8]
 1942 0120 5B68     		ldr	r3, [r3, #4]
 1943 0122 181C     		mov	r0, r3
 1944 0124 FFF7FEFF 		bl	CyBle_Get16ByPtr
 1945 0128 031C     		mov	r3, r0
 1946 012a 1A1C     		mov	r2, r3
 1947 012c 0123     		mov	r3, #1
 1948 012e 1340     		and	r3, r2
 1949 0130 9BB2     		uxth	r3, r3
 1950 0132 002B     		cmp	r3, #0
 1951 0134 24D0     		beq	.L111
 739:Generated_Source\PSoC4/BLE_hids.c ****                 {
 740:Generated_Source\PSoC4/BLE_hids.c ****                     if(cyBle_state == CYBLE_STATE_CONNECTED)
 1952              		.loc 1 740 0
 1953 0136 264B     		ldr	r3, .L115+8
 1954 0138 1B78     		ldrb	r3, [r3]
 1955 013a 022B     		cmp	r3, #2
 1956 013c 1AD1     		bne	.L112
 741:Generated_Source\PSoC4/BLE_hids.c ****                     {
 742:Generated_Source\PSoC4/BLE_hids.c ****                         /* Fill all fields of write request structure ... */
 743:Generated_Source\PSoC4/BLE_hids.c ****                         ntfReqParam.attrHandle = locReport->reportHandle;
 1957              		.loc 1 743 0
 1958 013e 3B6A     		ldr	r3, [r7, #32]
 1959 0140 1A88     		ldrh	r2, [r3]
 1960 0142 1423     		mov	r3, #20
 1961 0144 FB18     		add	r3, r7, r3
ARM GAS  C:\Users\akita\AppData\Local\Temp\ccIEDY99.s 			page 49


 1962 0146 1A81     		strh	r2, [r3, #8]
 744:Generated_Source\PSoC4/BLE_hids.c ****                         ntfReqParam.value.val = attrValue;
 1963              		.loc 1 744 0
 1964 0148 1423     		mov	r3, #20
 1965 014a FB18     		add	r3, r7, r3
 1966 014c BA6B     		ldr	r2, [r7, #56]
 1967 014e 1A60     		str	r2, [r3]
 745:Generated_Source\PSoC4/BLE_hids.c ****                         ntfReqParam.value.len = attrSize;
 1968              		.loc 1 745 0
 1969 0150 7B1C     		add	r3, r7, #1
 1970 0152 1B78     		ldrb	r3, [r3]
 1971 0154 9AB2     		uxth	r2, r3
 1972 0156 1423     		mov	r3, #20
 1973 0158 FB18     		add	r3, r7, r3
 1974 015a 9A80     		strh	r2, [r3, #4]
 746:Generated_Source\PSoC4/BLE_hids.c **** 
 747:Generated_Source\PSoC4/BLE_hids.c ****                         /* Send notification to client using previously filled structure */
 748:Generated_Source\PSoC4/BLE_hids.c ****                         apiResult = CyBle_GattsNotification(connHandle, &ntfReqParam);
 1975              		.loc 1 748 0
 1976 015c 2623     		mov	r3, #38
 1977 015e FC18     		add	r4, r7, r3
 1978 0160 3B1D     		add	r3, r7, #4
 1979 0162 1422     		mov	r2, #20
 1980 0164 BA18     		add	r2, r7, r2
 1981 0166 1868     		ldr	r0, [r3]
 1982 0168 111C     		mov	r1, r2
 1983 016a FFF7FEFF 		bl	CyBle_GattsNotification
 1984 016e 031C     		mov	r3, r0
 1985 0170 2380     		strh	r3, [r4]
 1986 0172 22E0     		b	.L103
 1987              	.L112:
 749:Generated_Source\PSoC4/BLE_hids.c ****                     }
 750:Generated_Source\PSoC4/BLE_hids.c ****                     else
 751:Generated_Source\PSoC4/BLE_hids.c ****                     {
 752:Generated_Source\PSoC4/BLE_hids.c ****                         apiResult = CYBLE_ERROR_INVALID_STATE;
 1988              		.loc 1 752 0
 1989 0174 2623     		mov	r3, #38
 1990 0176 FB18     		add	r3, r7, r3
 1991 0178 0422     		mov	r2, #4
 1992 017a FF32     		add	r2, r2, #255
 1993 017c 1A80     		strh	r2, [r3]
 1994 017e 1CE0     		b	.L103
 1995              	.L111:
 753:Generated_Source\PSoC4/BLE_hids.c ****                     }
 754:Generated_Source\PSoC4/BLE_hids.c ****                 }
 755:Generated_Source\PSoC4/BLE_hids.c ****                 else    /* Store data in database */
 756:Generated_Source\PSoC4/BLE_hids.c ****                 {
 757:Generated_Source\PSoC4/BLE_hids.c ****                     locHandleValuePair.attrHandle = locReport->reportHandle;
 1996              		.loc 1 757 0
 1997 0180 3B6A     		ldr	r3, [r7, #32]
 1998 0182 1A88     		ldrh	r2, [r3]
 1999 0184 0823     		mov	r3, #8
 2000 0186 FB18     		add	r3, r7, r3
 2001 0188 1A81     		strh	r2, [r3, #8]
 758:Generated_Source\PSoC4/BLE_hids.c ****                     locHandleValuePair.value.len = attrSize;
 2002              		.loc 1 758 0
 2003 018a 7B1C     		add	r3, r7, #1
ARM GAS  C:\Users\akita\AppData\Local\Temp\ccIEDY99.s 			page 50


 2004 018c 1B78     		ldrb	r3, [r3]
 2005 018e 9AB2     		uxth	r2, r3
 2006 0190 0823     		mov	r3, #8
 2007 0192 FB18     		add	r3, r7, r3
 2008 0194 9A80     		strh	r2, [r3, #4]
 759:Generated_Source\PSoC4/BLE_hids.c ****                     locHandleValuePair.value.val = attrValue;
 2009              		.loc 1 759 0
 2010 0196 0823     		mov	r3, #8
 2011 0198 FB18     		add	r3, r7, r3
 2012 019a BA6B     		ldr	r2, [r7, #56]
 2013 019c 1A60     		str	r2, [r3]
 760:Generated_Source\PSoC4/BLE_hids.c ****                     if(CYBLE_GATT_ERR_NONE !=
 761:Generated_Source\PSoC4/BLE_hids.c ****                         CyBle_GattsWriteAttributeValue(&locHandleValuePair, 0u, NULL, CYBLE_GATT_DB
 2014              		.loc 1 761 0
 2015 019e 0823     		mov	r3, #8
 2016 01a0 FB18     		add	r3, r7, r3
 2017 01a2 181C     		mov	r0, r3
 2018 01a4 0021     		mov	r1, #0
 2019 01a6 0022     		mov	r2, #0
 2020 01a8 0023     		mov	r3, #0
 2021 01aa FFF7FEFF 		bl	CyBle_GattsWriteAttributeValue
 2022 01ae 031E     		sub	r3, r0, #0
 760:Generated_Source\PSoC4/BLE_hids.c ****                     if(CYBLE_GATT_ERR_NONE !=
 2023              		.loc 1 760 0
 2024 01b0 03D0     		beq	.L103
 762:Generated_Source\PSoC4/BLE_hids.c ****                     {
 763:Generated_Source\PSoC4/BLE_hids.c ****                         apiResult = CYBLE_ERROR_INVALID_PARAMETER;
 2025              		.loc 1 763 0
 2026 01b2 2623     		mov	r3, #38
 2027 01b4 FB18     		add	r3, r7, r3
 2028 01b6 0122     		mov	r2, #1
 2029 01b8 1A80     		strh	r2, [r3]
 2030              	.L103:
 764:Generated_Source\PSoC4/BLE_hids.c ****                     }
 765:Generated_Source\PSoC4/BLE_hids.c ****                 }
 766:Generated_Source\PSoC4/BLE_hids.c ****             }
 767:Generated_Source\PSoC4/BLE_hids.c ****         }
 768:Generated_Source\PSoC4/BLE_hids.c ****     }
 769:Generated_Source\PSoC4/BLE_hids.c ****     return (apiResult);
 2031              		.loc 1 769 0
 2032 01ba 2623     		mov	r3, #38
 2033 01bc FB18     		add	r3, r7, r3
 2034 01be 1B88     		ldrh	r3, [r3]
 770:Generated_Source\PSoC4/BLE_hids.c **** }
 2035              		.loc 1 770 0
 2036 01c0 181C     		mov	r0, r3
 2037 01c2 BD46     		mov	sp, r7
 2038 01c4 0BB0     		add	sp, sp, #44
 2039              		@ sp needed
 2040 01c6 90BD     		pop	{r4, r7, pc}
 2041              	.L116:
 2042              		.align	2
 2043              	.L115:
 2044 01c8 00000000 		.word	cyBle_hidss
 2045 01cc 00000000 		.word	cyBle_gattDB
 2046 01d0 00000000 		.word	cyBle_state
 2047              		.cfi_endproc
ARM GAS  C:\Users\akita\AppData\Local\Temp\ccIEDY99.s 			page 51


 2048              	.LFE9:
 2049              		.size	CyBle_HidssSendNotification, .-CyBle_HidssSendNotification
 2050              		.section	.text.CyBle_HidssOnDeviceConnected,"ax",%progbits
 2051              		.align	2
 2052              		.global	CyBle_HidssOnDeviceConnected
 2053              		.code	16
 2054              		.thumb_func
 2055              		.type	CyBle_HidssOnDeviceConnected, %function
 2056              	CyBle_HidssOnDeviceConnected:
 2057              	.LFB10:
 771:Generated_Source\PSoC4/BLE_hids.c **** 
 772:Generated_Source\PSoC4/BLE_hids.c **** 
 773:Generated_Source\PSoC4/BLE_hids.c **** /****************************************************************************** 
 774:Generated_Source\PSoC4/BLE_hids.c **** * Function Name: CyBle_HidssOnDeviceConnected
 775:Generated_Source\PSoC4/BLE_hids.c **** ***************************************************************************//**
 776:Generated_Source\PSoC4/BLE_hids.c **** * 
 777:Generated_Source\PSoC4/BLE_hids.c **** *  Handles the connection establishment request.
 778:Generated_Source\PSoC4/BLE_hids.c **** * 
 779:Generated_Source\PSoC4/BLE_hids.c **** * \return
 780:Generated_Source\PSoC4/BLE_hids.c **** *  None
 781:Generated_Source\PSoC4/BLE_hids.c **** * 
 782:Generated_Source\PSoC4/BLE_hids.c **** ******************************************************************************/
 783:Generated_Source\PSoC4/BLE_hids.c **** void CyBle_HidssOnDeviceConnected(void)
 784:Generated_Source\PSoC4/BLE_hids.c **** {
 2058              		.loc 1 784 0
 2059              		.cfi_startproc
 2060 0000 80B5     		push	{r7, lr}
 2061              		.cfi_def_cfa_offset 8
 2062              		.cfi_offset 7, -8
 2063              		.cfi_offset 14, -4
 2064 0002 82B0     		sub	sp, sp, #8
 2065              		.cfi_def_cfa_offset 16
 2066 0004 00AF     		add	r7, sp, #0
 2067              		.cfi_def_cfa_register 7
 785:Generated_Source\PSoC4/BLE_hids.c ****     /* The Protocol Mode characteristic value shall be reset to the default value
 786:Generated_Source\PSoC4/BLE_hids.c ****        following a connection establishment */
 787:Generated_Source\PSoC4/BLE_hids.c ****     uint8 defaultProtocol = CYBLE_HIDS_PROTOCOL_DEFAULT;
 2068              		.loc 1 787 0
 2069 0006 BB1D     		add	r3, r7, #6
 2070 0008 0122     		mov	r2, #1
 2071 000a 1A70     		strb	r2, [r3]
 788:Generated_Source\PSoC4/BLE_hids.c ****     uint8 locServIndex = 0u;
 2072              		.loc 1 788 0
 2073 000c FB1D     		add	r3, r7, #7
 2074 000e 0022     		mov	r2, #0
 2075 0010 1A70     		strb	r2, [r3]
 2076              	.L119:
 789:Generated_Source\PSoC4/BLE_hids.c ****     do
 790:Generated_Source\PSoC4/BLE_hids.c ****     {
 791:Generated_Source\PSoC4/BLE_hids.c ****         if(cyBle_hidss[locServIndex].protocolModeHandle !=
 2077              		.loc 1 791 0
 2078 0012 FB1D     		add	r3, r7, #7
 2079 0014 1A78     		ldrb	r2, [r3]
 2080 0016 1549     		ldr	r1, .L120
 2081 0018 131C     		mov	r3, r2
 2082 001a 9B00     		lsl	r3, r3, #2
 2083 001c 9B18     		add	r3, r3, r2
ARM GAS  C:\Users\akita\AppData\Local\Temp\ccIEDY99.s 			page 52


 2084 001e DB00     		lsl	r3, r3, #3
 2085 0020 CB18     		add	r3, r1, r3
 2086 0022 5B88     		ldrh	r3, [r3, #2]
 2087 0024 002B     		cmp	r3, #0
 2088 0026 15D0     		beq	.L118
 792:Generated_Source\PSoC4/BLE_hids.c ****            CYBLE_GATT_INVALID_ATTR_HANDLE_VALUE)
 793:Generated_Source\PSoC4/BLE_hids.c ****         {
 794:Generated_Source\PSoC4/BLE_hids.c ****             /* Store default protocol value in database */
 795:Generated_Source\PSoC4/BLE_hids.c ****             CYBLE_GATT_DB_ATTR_SET_GEN_VALUE(cyBle_hidss[locServIndex].protocolModeHandle,
 2089              		.loc 1 795 0
 2090 0028 FB1D     		add	r3, r7, #7
 2091 002a 1A78     		ldrb	r2, [r3]
 2092 002c 0F49     		ldr	r1, .L120
 2093 002e 131C     		mov	r3, r2
 2094 0030 9B00     		lsl	r3, r3, #2
 2095 0032 9B18     		add	r3, r3, r2
 2096 0034 DB00     		lsl	r3, r3, #3
 2097 0036 CB18     		add	r3, r1, r3
 2098 0038 5B88     		ldrh	r3, [r3, #2]
 2099 003a 5A1E     		sub	r2, r3, #1
 2100 003c 0C49     		ldr	r1, .L120+4
 2101 003e 131C     		mov	r3, r2
 2102 0040 9B00     		lsl	r3, r3, #2
 2103 0042 9B18     		add	r3, r3, r2
 2104 0044 9B00     		lsl	r3, r3, #2
 2105 0046 CB18     		add	r3, r1, r3
 2106 0048 0833     		add	r3, r3, #8
 2107 004a 9B68     		ldr	r3, [r3, #8]
 2108 004c 5B68     		ldr	r3, [r3, #4]
 2109 004e BA1D     		add	r2, r7, #6
 2110 0050 1278     		ldrb	r2, [r2]
 2111 0052 1A70     		strb	r2, [r3]
 2112              	.L118:
 796:Generated_Source\PSoC4/BLE_hids.c ****                                                     &defaultProtocol, sizeof(defaultProtocol));
 797:Generated_Source\PSoC4/BLE_hids.c ****         }
 798:Generated_Source\PSoC4/BLE_hids.c ****         ++locServIndex;
 2113              		.loc 1 798 0
 2114 0054 FB1D     		add	r3, r7, #7
 2115 0056 FA1D     		add	r2, r7, #7
 2116 0058 1278     		ldrb	r2, [r2]
 2117 005a 0132     		add	r2, r2, #1
 2118 005c 1A70     		strb	r2, [r3]
 799:Generated_Source\PSoC4/BLE_hids.c ****     }while(locServIndex < CYBLE_HIDSS_SERVICE_COUNT);
 2119              		.loc 1 799 0
 2120 005e FB1D     		add	r3, r7, #7
 2121 0060 1B78     		ldrb	r3, [r3]
 2122 0062 002B     		cmp	r3, #0
 2123 0064 D5D0     		beq	.L119
 800:Generated_Source\PSoC4/BLE_hids.c **** }
 2124              		.loc 1 800 0
 2125 0066 BD46     		mov	sp, r7
 2126 0068 02B0     		add	sp, sp, #8
 2127              		@ sp needed
 2128 006a 80BD     		pop	{r7, pc}
 2129              	.L121:
 2130              		.align	2
 2131              	.L120:
ARM GAS  C:\Users\akita\AppData\Local\Temp\ccIEDY99.s 			page 53


 2132 006c 00000000 		.word	cyBle_hidss
 2133 0070 00000000 		.word	cyBle_gattDB
 2134              		.cfi_endproc
 2135              	.LFE10:
 2136              		.size	CyBle_HidssOnDeviceConnected, .-CyBle_HidssOnDeviceConnected
 2137              		.text
 2138              	.Letext0:
 2139              		.file 2 "Generated_Source\\PSoC4\\cytypes.h"
 2140              		.file 3 "Generated_Source\\PSoC4\\BLE_Stack.h"
 2141              		.file 4 "Generated_Source\\PSoC4\\BLE_StackGatt.h"
 2142              		.file 5 "Generated_Source\\PSoC4\\BLE_StackGattServer.h"
 2143              		.file 6 "Generated_Source\\PSoC4\\BLE_StackGattDb.h"
 2144              		.file 7 "Generated_Source\\PSoC4\\BLE.h"
 2145              		.file 8 "Generated_Source\\PSoC4\\BLE_dis.h"
 2146              		.file 9 "Generated_Source\\PSoC4\\BLE_hids.h"
 2147              		.file 10 "Generated_Source\\PSoC4\\BLE_eventHandler.h"
 2148              		.file 11 "Generated_Source\\PSoC4\\BLE_gatt.h"