ARM GAS  C:\Users\akita\AppData\Local\Temp\ccw8LNZW.s 			page 1


   1              		.cpu cortex-m0
   2              		.fpu softvfp
   3              		.eabi_attribute 20, 1
   4              		.eabi_attribute 21, 1
   5              		.eabi_attribute 23, 3
   6              		.eabi_attribute 24, 1
   7              		.eabi_attribute 25, 1
   8              		.eabi_attribute 26, 1
   9              		.eabi_attribute 30, 6
  10              		.eabi_attribute 34, 0
  11              		.eabi_attribute 18, 4
  12              		.code	16
  13              		.file	"debug.c"
  14              		.text
  15              	.Ltext0:
  16              		.cfi_sections	.debug_frame
  17              		.section	.text.ShowValue,"ax",%progbits
  18              		.align	2
  19              		.global	ShowValue
  20              		.code	16
  21              		.thumb_func
  22              		.type	ShowValue, %function
  23              	ShowValue:
  24              	.LFB37:
  25              		.file 1 "debug.c"
   1:debug.c       **** /*******************************************************************************
   2:debug.c       **** * File Name: debug.c
   3:debug.c       **** *
   4:debug.c       **** * Version: 1.0
   5:debug.c       **** *
   6:debug.c       **** * Description:
   7:debug.c       **** *  This file contains functions for printf functionality.
   8:debug.c       **** *
   9:debug.c       **** * Hardware Dependency:
  10:debug.c       **** *  CY8CKIT-042 BLE
  11:debug.c       **** * 
  12:debug.c       **** ********************************************************************************
  13:debug.c       **** * Copyright 2015, Cypress Semiconductor Corporation.  All rights reserved.
  14:debug.c       **** * You may use this file only in accordance with the license, terms, conditions,
  15:debug.c       **** * disclaimers, and limitations in the end user license agreement accompanying
  16:debug.c       **** * the software package with which this file was provided.
  17:debug.c       **** *******************************************************************************/
  18:debug.c       **** 
  19:debug.c       **** #include "common.h"
  20:debug.c       **** 
  21:debug.c       **** #if (DEBUG_UART_ENABLED == ENABLED)
  22:debug.c       **** 
  23:debug.c       **** #if defined(__ARMCC_VERSION)
  24:debug.c       ****     
  25:debug.c       **** /* For MDK/RVDS compiler revise fputc function for printf functionality */
  26:debug.c       **** struct __FILE 
  27:debug.c       **** {
  28:debug.c       ****     int handle;  
  29:debug.c       **** };
  30:debug.c       **** 
  31:debug.c       **** enum 
  32:debug.c       **** {
ARM GAS  C:\Users\akita\AppData\Local\Temp\ccw8LNZW.s 			page 2


  33:debug.c       ****     STDIN_HANDLE,
  34:debug.c       ****     STDOUT_HANDLE,
  35:debug.c       ****     STDERR_HANDLE
  36:debug.c       **** };
  37:debug.c       **** 
  38:debug.c       **** FILE __stdin = {STDIN_HANDLE};
  39:debug.c       **** FILE __stdout = {STDOUT_HANDLE};
  40:debug.c       **** FILE __stderr = {STDERR_HANDLE};
  41:debug.c       **** 
  42:debug.c       **** int fputc(int ch, FILE *file) 
  43:debug.c       **** {
  44:debug.c       ****     int ret = EOF;
  45:debug.c       **** 
  46:debug.c       ****     switch( file->handle )
  47:debug.c       ****     {
  48:debug.c       ****         case STDOUT_HANDLE:
  49:debug.c       ****             UART_DEB_UartPutChar(ch);
  50:debug.c       ****             ret = ch ;
  51:debug.c       ****             break ;
  52:debug.c       **** 
  53:debug.c       ****         case STDERR_HANDLE:
  54:debug.c       ****             ret = ch ;
  55:debug.c       ****             break ;
  56:debug.c       **** 
  57:debug.c       ****         default:
  58:debug.c       ****             file = file;
  59:debug.c       ****             break ;
  60:debug.c       ****     }
  61:debug.c       ****     return ret ;
  62:debug.c       **** }
  63:debug.c       **** 
  64:debug.c       **** #elif defined (__ICCARM__)      /* IAR */
  65:debug.c       **** 
  66:debug.c       **** /* For IAR compiler revise __write() function for printf functionality */
  67:debug.c       **** size_t __write(int handle, const unsigned char * buffer, size_t size)
  68:debug.c       **** {
  69:debug.c       ****     size_t nChars = 0;
  70:debug.c       **** 
  71:debug.c       ****     if (buffer == 0)
  72:debug.c       ****     {
  73:debug.c       ****         /*
  74:debug.c       ****          * This means that we should flush internal buffers.  Since we
  75:debug.c       ****          * don't we just return.  (Remember, "handle" == -1 means that all
  76:debug.c       ****          * handles should be flushed.)
  77:debug.c       ****          */
  78:debug.c       ****         return (0);
  79:debug.c       ****     }
  80:debug.c       **** 
  81:debug.c       ****     for (/* Empty */; size != 0; --size)
  82:debug.c       ****     {
  83:debug.c       ****         UART_DEB_UartPutChar(*buffer++);
  84:debug.c       ****         ++nChars;
  85:debug.c       ****     }
  86:debug.c       **** 
  87:debug.c       ****     return (nChars);
  88:debug.c       **** }
  89:debug.c       **** 
ARM GAS  C:\Users\akita\AppData\Local\Temp\ccw8LNZW.s 			page 3


  90:debug.c       **** #else  /* (__GNUC__)  GCC */
  91:debug.c       **** 
  92:debug.c       **** /* For GCC compiler revise _write() function for printf functionality */
  93:debug.c       **** int _write(int file, char *ptr, int len)
  94:debug.c       **** {
  95:debug.c       ****     int i;
  96:debug.c       ****     file = file;
  97:debug.c       ****     for (i = 0; i < len; i++)
  98:debug.c       ****     {
  99:debug.c       ****         UART_DEB_UartPutChar(*ptr++);
 100:debug.c       ****     }
 101:debug.c       ****     return len;
 102:debug.c       **** }
 103:debug.c       **** 
 104:debug.c       **** 
 105:debug.c       **** #endif  /* (__ARMCC_VERSION) */   
 106:debug.c       **** 
 107:debug.c       **** #endif /* DEBUG_UART_ENABLED == ENABLED */
 108:debug.c       **** 
 109:debug.c       **** void ShowValue(CYBLE_GATT_VALUE_T *value)
 110:debug.c       **** {
  26              		.loc 1 110 0
  27              		.cfi_startproc
  28 0000 80B5     		push	{r7, lr}
  29              		.cfi_def_cfa_offset 8
  30              		.cfi_offset 7, -8
  31              		.cfi_offset 14, -4
  32 0002 84B0     		sub	sp, sp, #16
  33              		.cfi_def_cfa_offset 24
  34 0004 00AF     		add	r7, sp, #0
  35              		.cfi_def_cfa_register 7
  36 0006 7860     		str	r0, [r7, #4]
 111:debug.c       ****     int16 i;
 112:debug.c       ****     
 113:debug.c       ****     for(i = 0; i < value->len; i++)
  37              		.loc 1 113 0
  38 0008 0E23     		mov	r3, #14
  39 000a FB18     		add	r3, r7, r3
  40 000c 0022     		mov	r2, #0
  41 000e 1A80     		strh	r2, [r3]
  42 0010 08E0     		b	.L2
  43              	.L3:
  44              		.loc 1 113 0 is_stmt 0 discriminator 3
  45 0012 0E23     		mov	r3, #14
  46 0014 FB18     		add	r3, r7, r3
  47 0016 1B88     		ldrh	r3, [r3]
  48 0018 9BB2     		uxth	r3, r3
  49 001a 0133     		add	r3, r3, #1
  50 001c 9AB2     		uxth	r2, r3
  51 001e 0E23     		mov	r3, #14
  52 0020 FB18     		add	r3, r7, r3
  53 0022 1A80     		strh	r2, [r3]
  54              	.L2:
  55              		.loc 1 113 0 discriminator 1
  56 0024 0E23     		mov	r3, #14
  57 0026 FB18     		add	r3, r7, r3
  58 0028 0022     		mov	r2, #0
ARM GAS  C:\Users\akita\AppData\Local\Temp\ccw8LNZW.s 			page 4


  59 002a 9B5E     		ldrsh	r3, [r3, r2]
  60 002c 7A68     		ldr	r2, [r7, #4]
  61 002e 9288     		ldrh	r2, [r2, #4]
  62 0030 9342     		cmp	r3, r2
  63 0032 EEDB     		blt	.L3
 114:debug.c       ****     {
 115:debug.c       ****         DBG_PRINTF("%2.2x ", value->val[i]);
 116:debug.c       ****     }
 117:debug.c       ****     DBG_PRINTF("\r\n");
 118:debug.c       **** }
  64              		.loc 1 118 0 is_stmt 1
  65 0034 BD46     		mov	sp, r7
  66 0036 04B0     		add	sp, sp, #16
  67              		@ sp needed
  68 0038 80BD     		pop	{r7, pc}
  69              		.cfi_endproc
  70              	.LFE37:
  71              		.size	ShowValue, .-ShowValue
  72 003a C046     		.section	.text.Set32ByPtr,"ax",%progbits
  73              		.align	2
  74              		.global	Set32ByPtr
  75              		.code	16
  76              		.thumb_func
  77              		.type	Set32ByPtr, %function
  78              	Set32ByPtr:
  79              	.LFB38:
 119:debug.c       **** 
 120:debug.c       **** 
 121:debug.c       **** void Set32ByPtr(uint8 ptr[], uint32 value)
 122:debug.c       **** {
  80              		.loc 1 122 0
  81              		.cfi_startproc
  82 0000 80B5     		push	{r7, lr}
  83              		.cfi_def_cfa_offset 8
  84              		.cfi_offset 7, -8
  85              		.cfi_offset 14, -4
  86 0002 82B0     		sub	sp, sp, #8
  87              		.cfi_def_cfa_offset 16
  88 0004 00AF     		add	r7, sp, #0
  89              		.cfi_def_cfa_register 7
  90 0006 7860     		str	r0, [r7, #4]
  91 0008 3960     		str	r1, [r7]
 123:debug.c       ****     ptr[0u] = (uint8) value;
  92              		.loc 1 123 0
  93 000a 3B68     		ldr	r3, [r7]
  94 000c DAB2     		uxtb	r2, r3
  95 000e 7B68     		ldr	r3, [r7, #4]
  96 0010 1A70     		strb	r2, [r3]
 124:debug.c       ****     ptr[1u] = (uint8) (value >> 8u);    
  97              		.loc 1 124 0
  98 0012 7B68     		ldr	r3, [r7, #4]
  99 0014 0133     		add	r3, r3, #1
 100 0016 3A68     		ldr	r2, [r7]
 101 0018 120A     		lsr	r2, r2, #8
 102 001a D2B2     		uxtb	r2, r2
 103 001c 1A70     		strb	r2, [r3]
 125:debug.c       ****     ptr[2u] = (uint8) (value >> 16u);    
ARM GAS  C:\Users\akita\AppData\Local\Temp\ccw8LNZW.s 			page 5


 104              		.loc 1 125 0
 105 001e 7B68     		ldr	r3, [r7, #4]
 106 0020 0233     		add	r3, r3, #2
 107 0022 3A68     		ldr	r2, [r7]
 108 0024 120C     		lsr	r2, r2, #16
 109 0026 D2B2     		uxtb	r2, r2
 110 0028 1A70     		strb	r2, [r3]
 126:debug.c       ****     ptr[3u] = (uint8) (value >> 24u);
 111              		.loc 1 126 0
 112 002a 7B68     		ldr	r3, [r7, #4]
 113 002c 0333     		add	r3, r3, #3
 114 002e 3A68     		ldr	r2, [r7]
 115 0030 120E     		lsr	r2, r2, #24
 116 0032 D2B2     		uxtb	r2, r2
 117 0034 1A70     		strb	r2, [r3]
 127:debug.c       **** }
 118              		.loc 1 127 0
 119 0036 BD46     		mov	sp, r7
 120 0038 02B0     		add	sp, sp, #8
 121              		@ sp needed
 122 003a 80BD     		pop	{r7, pc}
 123              		.cfi_endproc
 124              	.LFE38:
 125              		.size	Set32ByPtr, .-Set32ByPtr
 126              		.section	.text.ShowError,"ax",%progbits
 127              		.align	2
 128              		.global	ShowError
 129              		.code	16
 130              		.thumb_func
 131              		.type	ShowError, %function
 132              	ShowError:
 133              	.LFB39:
 128:debug.c       **** 
 129:debug.c       **** 
 130:debug.c       **** /*******************************************************************************
 131:debug.c       **** * Function Name: ShowError()
 132:debug.c       **** ********************************************************************************
 133:debug.c       **** *
 134:debug.c       **** * Summary:
 135:debug.c       **** *   Shows error condition: Turn On all leds - white colour will indicate error.
 136:debug.c       **** *
 137:debug.c       **** *******************************************************************************/
 138:debug.c       **** void ShowError(void)
 139:debug.c       **** {
 134              		.loc 1 139 0
 135              		.cfi_startproc
 136 0000 80B5     		push	{r7, lr}
 137              		.cfi_def_cfa_offset 8
 138              		.cfi_offset 7, -8
 139              		.cfi_offset 14, -4
 140 0002 00AF     		add	r7, sp, #0
 141              		.cfi_def_cfa_register 7
 140:debug.c       ****     Disconnect_LED_Write(LED_ON);
 142              		.loc 1 140 0
 143 0004 0020     		mov	r0, #0
 144 0006 FFF7FEFF 		bl	Disconnect_LED_Write
 141:debug.c       ****     Advertising_LED_Write(LED_ON);
ARM GAS  C:\Users\akita\AppData\Local\Temp\ccw8LNZW.s 			page 6


 145              		.loc 1 141 0
 146 000a 0020     		mov	r0, #0
 147 000c FFF7FEFF 		bl	Advertising_LED_Write
 142:debug.c       ****     CapsLock_LED_Write(LED_ON);
 148              		.loc 1 142 0
 149 0010 0020     		mov	r0, #0
 150 0012 FFF7FEFF 		bl	CapsLock_LED_Write
 143:debug.c       ****     /* Halt CPU in Debug mode */
 144:debug.c       ****     CYASSERT(0u != 0u);
 151              		.loc 1 144 0
 152 0016 0020     		mov	r0, #0
 153 0018 FFF7FEFF 		bl	CyHalt
 145:debug.c       **** }
 154              		.loc 1 145 0
 155 001c BD46     		mov	sp, r7
 156              		@ sp needed
 157 001e 80BD     		pop	{r7, pc}
 158              		.cfi_endproc
 159              	.LFE39:
 160              		.size	ShowError, .-ShowError
 161              		.text
 162              	.Letext0:
 163              		.file 2 "Generated_Source\\PSoC4/cytypes.h"
 164              		.file 3 "Generated_Source\\PSoC4/BLE_StackGatt.h"