ARM GAS  C:\Users\akita\AppData\Local\Temp\ccacA6Jb.s 			page 1


   1              		.cpu cortex-m0
   2              		.fpu softvfp
   3              		.eabi_attribute 20, 1
   4              		.eabi_attribute 21, 1
   5              		.eabi_attribute 23, 3
   6              		.eabi_attribute 24, 1
   7              		.eabi_attribute 25, 1
   8              		.eabi_attribute 26, 1
   9              		.eabi_attribute 30, 6
  10              		.eabi_attribute 34, 0
  11              		.eabi_attribute 18, 4
  12              		.code	16
  13              		.file	"hids.c"
  14              		.text
  15              	.Ltext0:
  16              		.cfi_sections	.debug_frame
  17              		.comm	Ton,4,4
  18              		.comm	keyboardSimulation,2,2
  19              		.global	protocol
  20              		.data
  21              		.type	protocol, %object
  22              		.size	protocol, 1
  23              	protocol:
  24 0000 01       		.byte	1
  25              		.global	suspend
  26              		.type	suspend, %object
  27              		.size	suspend, 1
  28              	suspend:
  29 0001 01       		.byte	1
  30              		.section	.rodata
  31              		.align	2
  32              	.LC0:
  33 0000 48494453 		.ascii	"HIDS event: %lx, \000"
  33      20657665 
  33      6E743A20 
  33      256C782C 
  33      2000
  34 0012 0000     		.align	2
  35              	.LC3:
  36 0014 4359424C 		.ascii	"CYBLE_EVT_HIDSS_NOTIFICATION_ENABLED: serv=%x, char"
  36      455F4556 
  36      545F4849 
  36      4453535F 
  36      4E4F5449 
  37 0047 3D25780D 		.ascii	"=%x\015\012\000"
  37      0A00
  38 004d 000000   		.align	2
  39              	.LC6:
  40 0050 4359424C 		.ascii	"CYBLE_EVT_HIDSS_NOTIFICATION_DISABLED: serv=%x, cha"
  40      455F4556 
  40      545F4849 
  40      4453535F 
  40      4E4F5449 
  41 0083 723D2578 		.ascii	"r=%x\015\012\000"
  41      0D0A00
  42 008a 0000     		.align	2
  43              	.LC8:
ARM GAS  C:\Users\akita\AppData\Local\Temp\ccacA6Jb.s 			page 2


  44 008c 4359424C 		.ascii	"CYBLE_EVT_HIDSS_BOOT_MODE_ENTER \015\000"
  44      455F4556 
  44      545F4849 
  44      4453535F 
  44      424F4F54 
  45 00ae 0000     		.align	2
  46              	.LC11:
  47 00b0 4359424C 		.ascii	"CYBLE_EVT_HIDSS_REPORT_MODE_ENTER \015\000"
  47      455F4556 
  47      545F4849 
  47      4453535F 
  47      5245504F 
  48              		.align	2
  49              	.LC13:
  50 00d4 4359424C 		.ascii	"CYBLE_EVT_HIDSS_SUSPEND \015\000"
  50      455F4556 
  50      545F4849 
  50      4453535F 
  50      53555350 
  51 00ee 0000     		.align	2
  52              	.LC16:
  53 00f0 4359424C 		.ascii	"CYBLE_EVT_HIDSS_EXIT_SUSPEND \015\000"
  53      455F4556 
  53      545F4849 
  53      4453535F 
  53      45584954 
  54 010f 00       		.align	2
  55              	.LC18:
  56 0110 4359424C 		.ascii	"CYBLE_EVT_HIDSS_REPORT_CHAR_WRITE: serv=%x, char=%x"
  56      455F4556 
  56      545F4849 
  56      4453535F 
  56      5245504F 
  57 0143 2C207661 		.ascii	", value=\000"
  57      6C75653D 
  57      00
  58              		.align	2
  59              	.LC20:
  60 014c 4E6F7420 		.ascii	"Not supported event\015\000"
  60      73757070 
  60      6F727465 
  60      64206576 
  60      656E740D 
  61              		.section	.text.HidsCallBack,"ax",%progbits
  62              		.align	2
  63              		.global	HidsCallBack
  64              		.code	16
  65              		.thumb_func
  66              		.type	HidsCallBack, %function
  67              	HidsCallBack:
  68              	.LFB37:
  69              		.file 1 "hids.c"
   1:hids.c        **** /*******************************************************************************
   2:hids.c        **** * File Name: hids.c
   3:hids.c        **** *
   4:hids.c        **** * Version: 1.0
   5:hids.c        **** *
ARM GAS  C:\Users\akita\AppData\Local\Temp\ccacA6Jb.s 			page 3


   6:hids.c        **** * Description:
   7:hids.c        **** *  This file contains HIDS callback handler function.
   8:hids.c        **** *
   9:hids.c        **** * Hardware Dependency:
  10:hids.c        **** *  CY8CKIT-042 BLE
  11:hids.c        **** * 
  12:hids.c        **** ********************************************************************************
  13:hids.c        **** * Copyright 2015, Cypress Semiconductor Corporation.  All rights reserved.
  14:hids.c        **** * You may use this file only in accordance with the license, terms, conditions,
  15:hids.c        **** * disclaimers, and limitations in the end user license agreement accompanying
  16:hids.c        **** * the software package with which this file was provided.
  17:hids.c        **** *******************************************************************************/
  18:hids.c        **** 
  19:hids.c        **** #include "common.h"
  20:hids.c        **** #include "hids.h"
  21:hids.c        **** 
  22:hids.c        **** uint16 keyboardSimulation;
  23:hids.c        **** uint8 protocol = CYBLE_HIDS_PROTOCOL_MODE_REPORT;   /* Boot or Report protocol mode */
  24:hids.c        **** uint8 suspend = CYBLE_HIDS_CP_EXIT_SUSPEND;         /* Suspend to enter into deep sleep mode */
  25:hids.c        **** 
  26:hids.c        **** 
  27:hids.c        **** /*******************************************************************************
  28:hids.c        **** * Function Name: HidsCallBack()
  29:hids.c        **** ********************************************************************************
  30:hids.c        **** *
  31:hids.c        **** * Summary:
  32:hids.c        **** *   This is an event callback function to receive service specific events from 
  33:hids.c        **** *   HID Service.
  34:hids.c        **** *
  35:hids.c        **** * Parameters:
  36:hids.c        **** *  event - the event code
  37:hids.c        **** *  *eventParam - the event parameters
  38:hids.c        **** *
  39:hids.c        **** * Return:
  40:hids.c        **** *  None.
  41:hids.c        **** *
  42:hids.c        **** ********************************************************************************/
  43:hids.c        **** void HidsCallBack(uint32 event, void *eventParam)
  44:hids.c        **** {
  70              		.loc 1 44 0
  71              		.cfi_startproc
  72 0000 80B5     		push	{r7, lr}
  73              		.cfi_def_cfa_offset 8
  74              		.cfi_offset 7, -8
  75              		.cfi_offset 14, -4
  76 0002 84B0     		sub	sp, sp, #16
  77              		.cfi_def_cfa_offset 24
  78 0004 00AF     		add	r7, sp, #0
  79              		.cfi_def_cfa_register 7
  80 0006 7860     		str	r0, [r7, #4]
  81 0008 3960     		str	r1, [r7]
  45:hids.c        ****     CYBLE_HIDS_CHAR_VALUE_T *locEventParam = (CYBLE_HIDS_CHAR_VALUE_T *)eventParam;
  82              		.loc 1 45 0
  83 000a 3B68     		ldr	r3, [r7]
  84 000c FB60     		str	r3, [r7, #12]
  46:hids.c        **** 
  47:hids.c        ****     DBG_PRINTF("HIDS event: %lx, ", event);
ARM GAS  C:\Users\akita\AppData\Local\Temp\ccacA6Jb.s 			page 4


  85              		.loc 1 47 0
  86 000e 4C4A     		ldr	r2, .L24
  87 0010 7B68     		ldr	r3, [r7, #4]
  88 0012 101C     		mov	r0, r2
  89 0014 191C     		mov	r1, r3
  90 0016 FFF7FEFF 		bl	printf
  48:hids.c        **** 
  49:hids.c        ****     switch(event)
  91              		.loc 1 49 0
  92 001a 7B68     		ldr	r3, [r7, #4]
  93 001c 873B     		sub	r3, r3, #135
  94 001e FF3B     		sub	r3, r3, #255
  95 0020 0B2B     		cmp	r3, #11
  96 0022 00D9     		bls	.LCB25
  97 0024 82E0     		b	.L2	@long jump
  98              	.LCB25:
  99 0026 9A00     		lsl	r2, r3, #2
 100 0028 464B     		ldr	r3, .L24+4
 101 002a D318     		add	r3, r2, r3
 102 002c 1B68     		ldr	r3, [r3]
 103 002e 9F46     		mov	pc, r3
 104              		.section	.rodata
 105 0161 000000   		.align	2
 106              	.L4:
 107 0164 30000000 		.word	.L3
 108 0168 56000000 		.word	.L5
 109 016c 7C000000 		.word	.L6
 110 0170 8C000000 		.word	.L7
 111 0174 9C000000 		.word	.L8
 112 0178 B0000000 		.word	.L9
 113 017c C4000000 		.word	.L10
 114 0180 38010000 		.word	.L23
 115 0184 38010000 		.word	.L23
 116 0188 38010000 		.word	.L23
 117 018c 38010000 		.word	.L23
 118 0190 38010000 		.word	.L23
 119              		.section	.text.HidsCallBack
 120              	.L3:
  50:hids.c        ****     {
  51:hids.c        ****         case CYBLE_EVT_HIDSS_NOTIFICATION_ENABLED:
  52:hids.c        ****             DBG_PRINTF("CYBLE_EVT_HIDSS_NOTIFICATION_ENABLED: serv=%x, char=%x\r\n", 
 121              		.loc 1 52 0
 122 0030 FB68     		ldr	r3, [r7, #12]
 123 0032 9B78     		ldrb	r3, [r3, #2]
 124 0034 191C     		mov	r1, r3
 125 0036 FB68     		ldr	r3, [r7, #12]
 126 0038 DB78     		ldrb	r3, [r3, #3]
 127 003a 1A1C     		mov	r2, r3
 128 003c 424B     		ldr	r3, .L24+8
 129 003e 181C     		mov	r0, r3
 130 0040 FFF7FEFF 		bl	printf
  53:hids.c        ****                 locEventParam->serviceIndex,
  54:hids.c        ****                 locEventParam->charIndex);
  55:hids.c        ****             if(CYBLE_HUMAN_INTERFACE_DEVICE_SERVICE_INDEX == locEventParam->serviceIndex)
 131              		.loc 1 55 0
 132 0044 FB68     		ldr	r3, [r7, #12]
 133 0046 9B78     		ldrb	r3, [r3, #2]
ARM GAS  C:\Users\akita\AppData\Local\Temp\ccacA6Jb.s 			page 5


 134 0048 002B     		cmp	r3, #0
 135 004a 03D1     		bne	.L16
  56:hids.c        ****             {
  57:hids.c        ****                 keyboardSimulation = ENABLED;
 136              		.loc 1 57 0
 137 004c 3F4B     		ldr	r3, .L24+12
 138 004e 0122     		mov	r2, #1
 139 0050 1A80     		strh	r2, [r3]
  58:hids.c        ****             }
  59:hids.c        ****             break;
 140              		.loc 1 59 0
 141 0052 72E0     		b	.L1
 142              	.L16:
 143 0054 71E0     		b	.L1
 144              	.L5:
  60:hids.c        ****         case CYBLE_EVT_HIDSS_NOTIFICATION_DISABLED:
  61:hids.c        ****             DBG_PRINTF("CYBLE_EVT_HIDSS_NOTIFICATION_DISABLED: serv=%x, char=%x\r\n", 
 145              		.loc 1 61 0
 146 0056 FB68     		ldr	r3, [r7, #12]
 147 0058 9B78     		ldrb	r3, [r3, #2]
 148 005a 191C     		mov	r1, r3
 149 005c FB68     		ldr	r3, [r7, #12]
 150 005e DB78     		ldrb	r3, [r3, #3]
 151 0060 1A1C     		mov	r2, r3
 152 0062 3B4B     		ldr	r3, .L24+16
 153 0064 181C     		mov	r0, r3
 154 0066 FFF7FEFF 		bl	printf
  62:hids.c        ****                 locEventParam->serviceIndex,
  63:hids.c        ****                 locEventParam->charIndex);
  64:hids.c        ****             if(CYBLE_HUMAN_INTERFACE_DEVICE_SERVICE_INDEX == locEventParam->serviceIndex)
 155              		.loc 1 64 0
 156 006a FB68     		ldr	r3, [r7, #12]
 157 006c 9B78     		ldrb	r3, [r3, #2]
 158 006e 002B     		cmp	r3, #0
 159 0070 03D1     		bne	.L18
  65:hids.c        ****             {
  66:hids.c        ****                 keyboardSimulation = DISABLED;
 160              		.loc 1 66 0
 161 0072 364B     		ldr	r3, .L24+12
 162 0074 0022     		mov	r2, #0
 163 0076 1A80     		strh	r2, [r3]
  67:hids.c        ****             }
  68:hids.c        ****             break;
 164              		.loc 1 68 0
 165 0078 5FE0     		b	.L1
 166              	.L18:
 167 007a 5EE0     		b	.L1
 168              	.L6:
  69:hids.c        ****         case CYBLE_EVT_HIDSS_BOOT_MODE_ENTER:
  70:hids.c        ****             DBG_PRINTF("CYBLE_EVT_HIDSS_BOOT_MODE_ENTER \r\n");
 169              		.loc 1 70 0
 170 007c 354B     		ldr	r3, .L24+20
 171 007e 181C     		mov	r0, r3
 172 0080 FFF7FEFF 		bl	puts
  71:hids.c        ****             protocol = CYBLE_HIDS_PROTOCOL_MODE_BOOT;
 173              		.loc 1 71 0
 174 0084 344B     		ldr	r3, .L24+24
ARM GAS  C:\Users\akita\AppData\Local\Temp\ccacA6Jb.s 			page 6


 175 0086 0022     		mov	r2, #0
 176 0088 1A70     		strb	r2, [r3]
  72:hids.c        ****             break;
 177              		.loc 1 72 0
 178 008a 56E0     		b	.L1
 179              	.L7:
  73:hids.c        ****         case CYBLE_EVT_HIDSS_REPORT_MODE_ENTER:
  74:hids.c        ****             DBG_PRINTF("CYBLE_EVT_HIDSS_REPORT_MODE_ENTER \r\n");
 180              		.loc 1 74 0
 181 008c 334B     		ldr	r3, .L24+28
 182 008e 181C     		mov	r0, r3
 183 0090 FFF7FEFF 		bl	puts
  75:hids.c        ****             protocol = CYBLE_HIDS_PROTOCOL_MODE_REPORT;
 184              		.loc 1 75 0
 185 0094 304B     		ldr	r3, .L24+24
 186 0096 0122     		mov	r2, #1
 187 0098 1A70     		strb	r2, [r3]
  76:hids.c        ****             break;
 188              		.loc 1 76 0
 189 009a 4EE0     		b	.L1
 190              	.L8:
  77:hids.c        ****         case CYBLE_EVT_HIDSS_SUSPEND:
  78:hids.c        ****             DBG_PRINTF("CYBLE_EVT_HIDSS_SUSPEND \r\n");
 191              		.loc 1 78 0
 192 009c 304B     		ldr	r3, .L24+32
 193 009e 181C     		mov	r0, r3
 194 00a0 FFF7FEFF 		bl	puts
  79:hids.c        ****             suspend = CYBLE_HIDS_CP_SUSPEND;
 195              		.loc 1 79 0
 196 00a4 2F4B     		ldr	r3, .L24+36
 197 00a6 0022     		mov	r2, #0
 198 00a8 1A70     		strb	r2, [r3]
  80:hids.c        ****         #if (DEBUG_UART_ENABLED == ENABLED)
  81:hids.c        ****             /* Reduce power consumption, power down logic that is not required to wake up the syste
  82:hids.c        ****             UART_DEB_Stop();
 199              		.loc 1 82 0
 200 00aa FFF7FEFF 		bl	UART_DEB_Stop
  83:hids.c        ****         #endif /* (DEBUG_UART_ENABLED == ENABLED) */
  84:hids.c        ****             break;
 201              		.loc 1 84 0
 202 00ae 44E0     		b	.L1
 203              	.L9:
  85:hids.c        ****         case CYBLE_EVT_HIDSS_EXIT_SUSPEND:
  86:hids.c        ****         #if (DEBUG_UART_ENABLED == ENABLED)    
  87:hids.c        ****             /* Power up all circuitry previously shut down */
  88:hids.c        ****             UART_DEB_Start();
 204              		.loc 1 88 0
 205 00b0 FFF7FEFF 		bl	UART_DEB_Start
  89:hids.c        ****         #endif /* (DEBUG_UART_ENABLED == ENABLED) */
  90:hids.c        ****             DBG_PRINTF("CYBLE_EVT_HIDSS_EXIT_SUSPEND \r\n");
 206              		.loc 1 90 0
 207 00b4 2C4B     		ldr	r3, .L24+40
 208 00b6 181C     		mov	r0, r3
 209 00b8 FFF7FEFF 		bl	puts
  91:hids.c        ****             suspend = CYBLE_HIDS_CP_EXIT_SUSPEND;
 210              		.loc 1 91 0
 211 00bc 294B     		ldr	r3, .L24+36
ARM GAS  C:\Users\akita\AppData\Local\Temp\ccacA6Jb.s 			page 7


 212 00be 0122     		mov	r2, #1
 213 00c0 1A70     		strb	r2, [r3]
  92:hids.c        ****             break;
 214              		.loc 1 92 0
 215 00c2 3AE0     		b	.L1
 216              	.L10:
  93:hids.c        ****         case CYBLE_EVT_HIDSS_REPORT_CHAR_WRITE:
  94:hids.c        ****             if(CYBLE_HUMAN_INTERFACE_DEVICE_SERVICE_INDEX == locEventParam->serviceIndex)
 217              		.loc 1 94 0
 218 00c4 FB68     		ldr	r3, [r7, #12]
 219 00c6 9B78     		ldrb	r3, [r3, #2]
 220 00c8 002B     		cmp	r3, #0
 221 00ca 1FD1     		bne	.L19
  95:hids.c        ****             {
  96:hids.c        ****                 /* Write request to Keyboard Output Report characteristic. 
  97:hids.c        ****                 *  Handle Boot and Report protocol. 
  98:hids.c        ****                 */
  99:hids.c        ****                 if( ((CYBLE_HIDS_PROTOCOL_MODE_REPORT == protocol) && 
 222              		.loc 1 99 0
 223 00cc 224B     		ldr	r3, .L24+24
 224 00ce 1B78     		ldrb	r3, [r3]
 225 00d0 012B     		cmp	r3, #1
 226 00d2 03D1     		bne	.L20
 100:hids.c        ****                      (CYBLE_HUMAN_INTERFACE_DEVICE_REPORT_OUT == locEventParam->charIndex)) ||
 227              		.loc 1 100 0 discriminator 1
 228 00d4 FB68     		ldr	r3, [r7, #12]
 229 00d6 DB78     		ldrb	r3, [r3, #3]
  99:hids.c        ****                      (CYBLE_HUMAN_INTERFACE_DEVICE_REPORT_OUT == locEventParam->charIndex)) ||
 230              		.loc 1 99 0 discriminator 1
 231 00d8 082B     		cmp	r3, #8
 232 00da 07D0     		beq	.L21
 233              	.L20:
 101:hids.c        ****                     ((CYBLE_HIDS_PROTOCOL_MODE_BOOT == protocol) && 
 234              		.loc 1 101 0
 235 00dc 1E4B     		ldr	r3, .L24+24
 236 00de 1B78     		ldrb	r3, [r3]
 100:hids.c        ****                      (CYBLE_HUMAN_INTERFACE_DEVICE_REPORT_OUT == locEventParam->charIndex)) ||
 237              		.loc 1 100 0
 238 00e0 002B     		cmp	r3, #0
 239 00e2 13D1     		bne	.L19
 102:hids.c        ****                      (CYBLE_HIDS_BOOT_KYBRD_OUT_REP == locEventParam->charIndex)) )
 240              		.loc 1 102 0
 241 00e4 FB68     		ldr	r3, [r7, #12]
 242 00e6 DB78     		ldrb	r3, [r3, #3]
 101:hids.c        ****                     ((CYBLE_HIDS_PROTOCOL_MODE_BOOT == protocol) && 
 243              		.loc 1 101 0
 244 00e8 052B     		cmp	r3, #5
 245 00ea 0FD1     		bne	.L19
 246              	.L21:
 103:hids.c        ****                 {
 104:hids.c        ****                     if( (CAPS_LOCK_LED & locEventParam->value->val[0u]) != 0u)
 247              		.loc 1 104 0
 248 00ec FB68     		ldr	r3, [r7, #12]
 249 00ee 5B68     		ldr	r3, [r3, #4]
 250 00f0 1B68     		ldr	r3, [r3]
 251 00f2 1B78     		ldrb	r3, [r3]
 252 00f4 0222     		mov	r2, #2
ARM GAS  C:\Users\akita\AppData\Local\Temp\ccacA6Jb.s 			page 8


 253 00f6 1340     		and	r3, r2
 254 00f8 DBB2     		uxtb	r3, r3
 255 00fa 002B     		cmp	r3, #0
 256 00fc 03D0     		beq	.L22
 105:hids.c        ****                     {
 106:hids.c        ****                         CapsLock_LED_Write(LED_ON);
 257              		.loc 1 106 0
 258 00fe 0020     		mov	r0, #0
 259 0100 FFF7FEFF 		bl	CapsLock_LED_Write
 260 0104 02E0     		b	.L19
 261              	.L22:
 107:hids.c        ****                     }
 108:hids.c        ****                     else
 109:hids.c        ****                     {
 110:hids.c        ****                         CapsLock_LED_Write(LED_OFF);
 262              		.loc 1 110 0
 263 0106 0120     		mov	r0, #1
 264 0108 FFF7FEFF 		bl	CapsLock_LED_Write
 265              	.L19:
 111:hids.c        ****                     }
 112:hids.c        ****                 }
 113:hids.c        ****             }
 114:hids.c        ****             DBG_PRINTF("CYBLE_EVT_HIDSS_REPORT_CHAR_WRITE: serv=%x, char=%x, value=", 
 266              		.loc 1 114 0
 267 010c FB68     		ldr	r3, [r7, #12]
 268 010e 9B78     		ldrb	r3, [r3, #2]
 269 0110 191C     		mov	r1, r3
 270 0112 FB68     		ldr	r3, [r7, #12]
 271 0114 DB78     		ldrb	r3, [r3, #3]
 272 0116 1A1C     		mov	r2, r3
 273 0118 144B     		ldr	r3, .L24+44
 274 011a 181C     		mov	r0, r3
 275 011c FFF7FEFF 		bl	printf
 115:hids.c        ****                 locEventParam->serviceIndex,
 116:hids.c        ****                 locEventParam->charIndex);
 117:hids.c        ****                 ShowValue(locEventParam->value);
 276              		.loc 1 117 0
 277 0120 FB68     		ldr	r3, [r7, #12]
 278 0122 5B68     		ldr	r3, [r3, #4]
 279 0124 181C     		mov	r0, r3
 280 0126 FFF7FEFF 		bl	ShowValue
 118:hids.c        ****             break;
 281              		.loc 1 118 0
 282 012a 06E0     		b	.L1
 283              	.L2:
 119:hids.c        ****         case CYBLE_EVT_HIDSC_NOTIFICATION:
 120:hids.c        ****             break;
 121:hids.c        ****         case CYBLE_EVT_HIDSC_READ_CHAR_RESPONSE:
 122:hids.c        ****             break;
 123:hids.c        ****         case CYBLE_EVT_HIDSC_WRITE_CHAR_RESPONSE:
 124:hids.c        ****             break;
 125:hids.c        ****         case CYBLE_EVT_HIDSC_READ_DESCR_RESPONSE:
 126:hids.c        ****             break;
 127:hids.c        ****         case CYBLE_EVT_HIDSC_WRITE_DESCR_RESPONSE:           
 128:hids.c        ****             break;
 129:hids.c        **** 		default:
 130:hids.c        ****             DBG_PRINTF("Not supported event\r\n");
ARM GAS  C:\Users\akita\AppData\Local\Temp\ccacA6Jb.s 			page 9


 284              		.loc 1 130 0
 285 012c 104B     		ldr	r3, .L24+48
 286 012e 181C     		mov	r0, r3
 287 0130 FFF7FEFF 		bl	puts
 131:hids.c        **** 			break;
 288              		.loc 1 131 0
 289 0134 C046     		mov	r8, r8
 290 0136 00E0     		b	.L1
 291              	.L23:
 128:hids.c        **** 		default:
 292              		.loc 1 128 0
 293 0138 C046     		mov	r8, r8
 294              	.L1:
 132:hids.c        ****     }
 133:hids.c        **** }
 295              		.loc 1 133 0
 296 013a BD46     		mov	sp, r7
 297 013c 04B0     		add	sp, sp, #16
 298              		@ sp needed
 299 013e 80BD     		pop	{r7, pc}
 300              	.L25:
 301              		.align	2
 302              	.L24:
 303 0140 00000000 		.word	.LC0
 304 0144 64010000 		.word	.L4
 305 0148 14000000 		.word	.LC3
 306 014c 00000000 		.word	keyboardSimulation
 307 0150 50000000 		.word	.LC6
 308 0154 8C000000 		.word	.LC8
 309 0158 00000000 		.word	protocol
 310 015c B0000000 		.word	.LC11
 311 0160 D4000000 		.word	.LC13
 312 0164 00000000 		.word	suspend
 313 0168 F0000000 		.word	.LC16
 314 016c 10010000 		.word	.LC18
 315 0170 4C010000 		.word	.LC20
 316              		.cfi_endproc
 317              	.LFE37:
 318              		.size	HidsCallBack, .-HidsCallBack
 319              		.section	.text.HidsInit,"ax",%progbits
 320              		.align	2
 321              		.global	HidsInit
 322              		.code	16
 323              		.thumb_func
 324              		.type	HidsInit, %function
 325              	HidsInit:
 326              	.LFB38:
 134:hids.c        **** 
 135:hids.c        **** 
 136:hids.c        **** /*******************************************************************************
 137:hids.c        **** * Function Name: HidsInit()
 138:hids.c        **** ********************************************************************************
 139:hids.c        **** *
 140:hids.c        **** * Summary:
 141:hids.c        **** *   Initializes the HID service.
 142:hids.c        **** *
 143:hids.c        **** *******************************************************************************/
ARM GAS  C:\Users\akita\AppData\Local\Temp\ccacA6Jb.s 			page 10


 144:hids.c        **** void HidsInit(void)
 145:hids.c        **** {
 327              		.loc 1 145 0
 328              		.cfi_startproc
 329 0000 90B5     		push	{r4, r7, lr}
 330              		.cfi_def_cfa_offset 12
 331              		.cfi_offset 4, -12
 332              		.cfi_offset 7, -8
 333              		.cfi_offset 14, -4
 334 0002 85B0     		sub	sp, sp, #20
 335              		.cfi_def_cfa_offset 32
 336 0004 02AF     		add	r7, sp, #8
 337              		.cfi_def_cfa 7, 24
 146:hids.c        ****     CYBLE_API_RESULT_T apiResult;
 147:hids.c        ****     uint16 cccdValue;
 148:hids.c        ****     
 149:hids.c        ****     /* Register service specific callback function */
 150:hids.c        ****     CyBle_HidsRegisterAttrCallback(HidsCallBack);
 338              		.loc 1 150 0
 339 0006 1F4B     		ldr	r3, .L29
 340 0008 181C     		mov	r0, r3
 341 000a FFF7FEFF 		bl	CyBle_HidsRegisterAttrCallback
 151:hids.c        ****     keyboardSimulation = DISABLED;
 342              		.loc 1 151 0
 343 000e 1E4B     		ldr	r3, .L29+4
 344 0010 0022     		mov	r2, #0
 345 0012 1A80     		strh	r2, [r3]
 152:hids.c        ****     /* Read CCCD configurations from flash */
 153:hids.c        ****     apiResult = CyBle_HidssGetCharacteristicDescriptor(CYBLE_HUMAN_INTERFACE_DEVICE_SERVICE_INDEX, 
 346              		.loc 1 153 0
 347 0014 BC1D     		add	r4, r7, #6
 348 0016 3B1D     		add	r3, r7, #4
 349 0018 0093     		str	r3, [sp]
 350 001a 0020     		mov	r0, #0
 351 001c 0721     		mov	r1, #7
 352 001e 0022     		mov	r2, #0
 353 0020 0223     		mov	r3, #2
 354 0022 FFF7FEFF 		bl	CyBle_HidssGetCharacteristicDescriptor
 355 0026 031C     		mov	r3, r0
 356 0028 2380     		strh	r3, [r4]
 154:hids.c        ****         CYBLE_HUMAN_INTERFACE_DEVICE_REPORT_IN, CYBLE_HIDS_REPORT_CCCD, CYBLE_CCCD_LEN, (uint8 *)&c
 155:hids.c        ****     if((apiResult == CYBLE_ERROR_OK) && (cccdValue != 0u))
 357              		.loc 1 155 0
 358 002a BB1D     		add	r3, r7, #6
 359 002c 1B88     		ldrh	r3, [r3]
 360 002e 002B     		cmp	r3, #0
 361 0030 0AD1     		bne	.L27
 362              		.loc 1 155 0 is_stmt 0 discriminator 1
 363 0032 3B1D     		add	r3, r7, #4
 364 0034 1B88     		ldrh	r3, [r3]
 365 0036 002B     		cmp	r3, #0
 366 0038 06D0     		beq	.L27
 156:hids.c        ****     {
 157:hids.c        ****         keyboardSimulation |= ENABLED;
 367              		.loc 1 157 0 is_stmt 1
 368 003a 134B     		ldr	r3, .L29+4
 369 003c 1B88     		ldrh	r3, [r3]
ARM GAS  C:\Users\akita\AppData\Local\Temp\ccacA6Jb.s 			page 11


 370 003e 0122     		mov	r2, #1
 371 0040 1343     		orr	r3, r2
 372 0042 9AB2     		uxth	r2, r3
 373 0044 104B     		ldr	r3, .L29+4
 374 0046 1A80     		strh	r2, [r3]
 375              	.L27:
 158:hids.c        ****     }
 159:hids.c        ****     apiResult = CyBle_HidssGetCharacteristicDescriptor(CYBLE_HUMAN_INTERFACE_DEVICE_SERVICE_INDEX, 
 376              		.loc 1 159 0
 377 0048 BC1D     		add	r4, r7, #6
 378 004a 3B1D     		add	r3, r7, #4
 379 004c 0093     		str	r3, [sp]
 380 004e 0020     		mov	r0, #0
 381 0050 0421     		mov	r1, #4
 382 0052 0022     		mov	r2, #0
 383 0054 0223     		mov	r3, #2
 384 0056 FFF7FEFF 		bl	CyBle_HidssGetCharacteristicDescriptor
 385 005a 031C     		mov	r3, r0
 386 005c 2380     		strh	r3, [r4]
 160:hids.c        ****         CYBLE_HIDS_BOOT_KYBRD_IN_REP, CYBLE_HIDS_REPORT_CCCD, CYBLE_CCCD_LEN, (uint8 *)&cccdValue);
 161:hids.c        ****     if((apiResult == CYBLE_ERROR_OK) && (cccdValue != 0u))
 387              		.loc 1 161 0
 388 005e BB1D     		add	r3, r7, #6
 389 0060 1B88     		ldrh	r3, [r3]
 390 0062 002B     		cmp	r3, #0
 391 0064 0AD1     		bne	.L26
 392              		.loc 1 161 0 is_stmt 0 discriminator 1
 393 0066 3B1D     		add	r3, r7, #4
 394 0068 1B88     		ldrh	r3, [r3]
 395 006a 002B     		cmp	r3, #0
 396 006c 06D0     		beq	.L26
 162:hids.c        ****     {
 163:hids.c        ****         keyboardSimulation |= ENABLED;
 397              		.loc 1 163 0 is_stmt 1
 398 006e 064B     		ldr	r3, .L29+4
 399 0070 1B88     		ldrh	r3, [r3]
 400 0072 0122     		mov	r2, #1
 401 0074 1343     		orr	r3, r2
 402 0076 9AB2     		uxth	r2, r3
 403 0078 034B     		ldr	r3, .L29+4
 404 007a 1A80     		strh	r2, [r3]
 405              	.L26:
 164:hids.c        ****     }
 165:hids.c        **** }
 406              		.loc 1 165 0
 407 007c BD46     		mov	sp, r7
 408 007e 03B0     		add	sp, sp, #12
 409              		@ sp needed
 410 0080 90BD     		pop	{r4, r7, pc}
 411              	.L30:
 412 0082 C046     		.align	2
 413              	.L29:
 414 0084 00000000 		.word	HidsCallBack
 415 0088 00000000 		.word	keyboardSimulation
 416              		.cfi_endproc
 417              	.LFE38:
 418              		.size	HidsInit, .-HidsInit
ARM GAS  C:\Users\akita\AppData\Local\Temp\ccacA6Jb.s 			page 12


 419              		.global	fPress
 420              		.bss
 421              		.type	fPress, %object
 422              		.size	fPress, 1
 423              	fPress:
 424 0000 00       		.space	1
 425              		.section	.rodata
 426              		.align	2
 427              	.LC32:
 428 0194 48494420 		.ascii	"HID notification: \000"
 428      6E6F7469 
 428      66696361 
 428      74696F6E 
 428      3A2000
 429 01a7 00       		.align	2
 430              	.LC34:
 431 01a8 25322E32 		.ascii	"%2.2x,\000"
 431      782C00
 432 01af 00       		.align	2
 433              	.LC36:
 434 01b0 0D00     		.ascii	"\015\000"
 435 01b2 0000     		.align	2
 436              	.LC39:
 437 01b4 48494420 		.ascii	"HID notification API Error: %x \015\012\000"
 437      6E6F7469 
 437      66696361 
 437      74696F6E 
 437      20415049 
 438 01d6 0000     		.section	.text.SimulateKeyboard,"ax",%progbits
 439              		.align	2
 440              		.global	SimulateKeyboard
 441              		.code	16
 442              		.thumb_func
 443              		.type	SimulateKeyboard, %function
 444              	SimulateKeyboard:
 445              	.LFB39:
 166:hids.c        **** 
 167:hids.c        ****     
 168:hids.c        **** /*******************************************************************************
 169:hids.c        **** * Function Name: SimulateKeyboard()
 170:hids.c        **** ********************************************************************************
 171:hids.c        **** *
 172:hids.c        **** * Summary:
 173:hids.c        **** *   The custom function to simulate CapsLock key pressing
 174:hids.c        **** *
 175:hids.c        **** *******************************************************************************/
 176:hids.c        **** uint8 fPress = 0;
 177:hids.c        **** void SimulateKeyboard(void)
 178:hids.c        **** {
 446              		.loc 1 178 0
 447              		.cfi_startproc
 448 0000 90B5     		push	{r4, r7, lr}
 449              		.cfi_def_cfa_offset 12
 450              		.cfi_offset 4, -12
 451              		.cfi_offset 7, -8
 452              		.cfi_offset 14, -4
 453 0002 85B0     		sub	sp, sp, #20
ARM GAS  C:\Users\akita\AppData\Local\Temp\ccacA6Jb.s 			page 13


 454              		.cfi_def_cfa_offset 32
 455 0004 02AF     		add	r7, sp, #8
 456              		.cfi_def_cfa 7, 24
 179:hids.c        ****     static uint8 keyboard_data[KEYBOARD_DATA_SIZE]={0,0,0,0,0,0,0,0};
 180:hids.c        ****     CYBLE_API_RESULT_T apiResult;
 181:hids.c        ****     static uint32 keyboardTimer = KEYBOARD_TIMEOUT;
 182:hids.c        ****     static uint8 simKey; 
 183:hids.c        ****     static uint8 capsLockPress = 0u;
 184:hids.c        ****     static uint8 mainPress = 0u;
 185:hids.c        ****     static uint8 backPress = 0u;
 186:hids.c        ****     static uint8 blackoutPress = 0u;
 187:hids.c        ****     uint8 i;
 188:hids.c        **** 
 189:hids.c        ****     if(0u == SWMAIN_Read())
 457              		.loc 1 189 0
 458 0006 FFF7FEFF 		bl	SWMAIN_Read
 459 000a 031E     		sub	r3, r0, #0
 460 000c 19D1     		bne	.L32
 190:hids.c        ****     {
 191:hids.c        **** //        if(mainPress < KEYBOARD_JITTER_SIZE) mainPress++;
 192:hids.c        **** //        else if(mainPress == KEYBOARD_JITTER_SIZE)
 193:hids.c        ****         Ton = 0; // reset sleep timer if SW pressed
 461              		.loc 1 193 0
 462 000e 904B     		ldr	r3, .L48
 463 0010 0022     		mov	r2, #0
 464 0012 1A60     		str	r2, [r3]
 194:hids.c        ****         mainPress++;
 465              		.loc 1 194 0
 466 0014 8F4B     		ldr	r3, .L48+4
 467 0016 1B78     		ldrb	r3, [r3]
 468 0018 0133     		add	r3, r3, #1
 469 001a DAB2     		uxtb	r2, r3
 470 001c 8D4B     		ldr	r3, .L48+4
 471 001e 1A70     		strb	r2, [r3]
 195:hids.c        ****         if(mainPress == 1)
 472              		.loc 1 195 0
 473 0020 8C4B     		ldr	r3, .L48+4
 474 0022 1B78     		ldrb	r3, [r3]
 475 0024 012B     		cmp	r3, #1
 476 0026 0FD1     		bne	.L34
 196:hids.c        ****         {
 197:hids.c        **** //            keyboard_data[3u] = 0x4f; // right arrow
 198:hids.c        ****             keyboard_data[3u] = 0x4e; // page down
 477              		.loc 1 198 0
 478 0028 8B4B     		ldr	r3, .L48+8
 479 002a 4E22     		mov	r2, #78
 480 002c DA70     		strb	r2, [r3, #3]
 199:hids.c        ****             fPress = 1;
 481              		.loc 1 199 0
 482 002e 8B4B     		ldr	r3, .L48+12
 483 0030 0122     		mov	r2, #1
 484 0032 1A70     		strb	r2, [r3]
 200:hids.c        ****             mainPress++;
 485              		.loc 1 200 0
 486 0034 874B     		ldr	r3, .L48+4
 487 0036 1B78     		ldrb	r3, [r3]
 488 0038 0133     		add	r3, r3, #1
ARM GAS  C:\Users\akita\AppData\Local\Temp\ccacA6Jb.s 			page 14


 489 003a DAB2     		uxtb	r2, r3
 490 003c 854B     		ldr	r3, .L48+4
 491 003e 1A70     		strb	r2, [r3]
 492 0040 02E0     		b	.L34
 493              	.L32:
 201:hids.c        ****         
 202:hids.c        ****         }
 203:hids.c        ****     }
 204:hids.c        ****     else mainPress = 0u;
 494              		.loc 1 204 0
 495 0042 844B     		ldr	r3, .L48+4
 496 0044 0022     		mov	r2, #0
 497 0046 1A70     		strb	r2, [r3]
 498              	.L34:
 205:hids.c        **** 
 206:hids.c        ****     if(0u == SWBACK_Read())
 499              		.loc 1 206 0
 500 0048 FFF7FEFF 		bl	SWBACK_Read
 501 004c 031E     		sub	r3, r0, #0
 502 004e 19D1     		bne	.L35
 207:hids.c        ****     {
 208:hids.c        **** //        if(backPress < KEYBOARD_JITTER_SIZE) backPress++;
 209:hids.c        **** //        else if(backPress == KEYBOARD_JITTER_SIZE)
 210:hids.c        ****         Ton = 0; // reset sleep timer if SW pressed
 503              		.loc 1 210 0
 504 0050 7F4B     		ldr	r3, .L48
 505 0052 0022     		mov	r2, #0
 506 0054 1A60     		str	r2, [r3]
 211:hids.c        ****         backPress++;
 507              		.loc 1 211 0
 508 0056 824B     		ldr	r3, .L48+16
 509 0058 1B78     		ldrb	r3, [r3]
 510 005a 0133     		add	r3, r3, #1
 511 005c DAB2     		uxtb	r2, r3
 512 005e 804B     		ldr	r3, .L48+16
 513 0060 1A70     		strb	r2, [r3]
 212:hids.c        ****         if (backPress == 1)
 514              		.loc 1 212 0
 515 0062 7F4B     		ldr	r3, .L48+16
 516 0064 1B78     		ldrb	r3, [r3]
 517 0066 012B     		cmp	r3, #1
 518 0068 0FD1     		bne	.L37
 213:hids.c        ****         {
 214:hids.c        **** //            keyboard_data[3u] = 0x50; // Left arrow
 215:hids.c        ****             keyboard_data[3u] = 0x4b; // page up
 519              		.loc 1 215 0
 520 006a 7B4B     		ldr	r3, .L48+8
 521 006c 4B22     		mov	r2, #75
 522 006e DA70     		strb	r2, [r3, #3]
 216:hids.c        ****             fPress = 1;
 523              		.loc 1 216 0
 524 0070 7A4B     		ldr	r3, .L48+12
 525 0072 0122     		mov	r2, #1
 526 0074 1A70     		strb	r2, [r3]
 217:hids.c        ****             backPress++;
 527              		.loc 1 217 0
 528 0076 7A4B     		ldr	r3, .L48+16
ARM GAS  C:\Users\akita\AppData\Local\Temp\ccacA6Jb.s 			page 15


 529 0078 1B78     		ldrb	r3, [r3]
 530 007a 0133     		add	r3, r3, #1
 531 007c DAB2     		uxtb	r2, r3
 532 007e 784B     		ldr	r3, .L48+16
 533 0080 1A70     		strb	r2, [r3]
 534 0082 02E0     		b	.L37
 535              	.L35:
 218:hids.c        ****         }
 219:hids.c        ****     }
 220:hids.c        ****     else backPress = 0u;
 536              		.loc 1 220 0
 537 0084 764B     		ldr	r3, .L48+16
 538 0086 0022     		mov	r2, #0
 539 0088 1A70     		strb	r2, [r3]
 540              	.L37:
 221:hids.c        **** 
 222:hids.c        ****     if(0u == SWBLACKOUT_Read())
 541              		.loc 1 222 0
 542 008a FFF7FEFF 		bl	SWBLACKOUT_Read
 543 008e 031E     		sub	r3, r0, #0
 544 0090 19D1     		bne	.L38
 223:hids.c        ****     {
 224:hids.c        **** //        if(blackoutPress < KEYBOARD_JITTER_SIZE) blackoutPress++;
 225:hids.c        **** //        else if(blackoutPress == KEYBOARD_JITTER_SIZE)
 226:hids.c        ****         Ton = 0; // reset sleep timer if SW pressed
 545              		.loc 1 226 0
 546 0092 6F4B     		ldr	r3, .L48
 547 0094 0022     		mov	r2, #0
 548 0096 1A60     		str	r2, [r3]
 227:hids.c        ****         blackoutPress++;
 549              		.loc 1 227 0
 550 0098 724B     		ldr	r3, .L48+20
 551 009a 1B78     		ldrb	r3, [r3]
 552 009c 0133     		add	r3, r3, #1
 553 009e DAB2     		uxtb	r2, r3
 554 00a0 704B     		ldr	r3, .L48+20
 555 00a2 1A70     		strb	r2, [r3]
 228:hids.c        ****         if (blackoutPress == 1)
 556              		.loc 1 228 0
 557 00a4 6F4B     		ldr	r3, .L48+20
 558 00a6 1B78     		ldrb	r3, [r3]
 559 00a8 012B     		cmp	r3, #1
 560 00aa 0FD1     		bne	.L40
 229:hids.c        ****         {
 230:hids.c        ****             keyboard_data[3u] = 0x05; // 'B'
 561              		.loc 1 230 0
 562 00ac 6A4B     		ldr	r3, .L48+8
 563 00ae 0522     		mov	r2, #5
 564 00b0 DA70     		strb	r2, [r3, #3]
 231:hids.c        ****             fPress = 1;
 565              		.loc 1 231 0
 566 00b2 6A4B     		ldr	r3, .L48+12
 567 00b4 0122     		mov	r2, #1
 568 00b6 1A70     		strb	r2, [r3]
 232:hids.c        ****             blackoutPress++;
 569              		.loc 1 232 0
 570 00b8 6A4B     		ldr	r3, .L48+20
ARM GAS  C:\Users\akita\AppData\Local\Temp\ccacA6Jb.s 			page 16


 571 00ba 1B78     		ldrb	r3, [r3]
 572 00bc 0133     		add	r3, r3, #1
 573 00be DAB2     		uxtb	r2, r3
 574 00c0 684B     		ldr	r3, .L48+20
 575 00c2 1A70     		strb	r2, [r3]
 576 00c4 02E0     		b	.L40
 577              	.L38:
 233:hids.c        ****         }
 234:hids.c        ****     }
 235:hids.c        ****     else blackoutPress = 0u;
 578              		.loc 1 235 0
 579 00c6 674B     		ldr	r3, .L48+20
 580 00c8 0022     		mov	r2, #0
 581 00ca 1A70     		strb	r2, [r3]
 582              	.L40:
 236:hids.c        **** 
 237:hids.c        ****     if((CyBle_GattGetBusyStatus() == CYBLE_STACK_STATE_FREE) && (fPress == 1))
 583              		.loc 1 237 0
 584 00cc 664B     		ldr	r3, .L48+24
 585 00ce 1B78     		ldrb	r3, [r3]
 586 00d0 DBB2     		uxtb	r3, r3
 587 00d2 002B     		cmp	r3, #0
 588 00d4 00D0     		beq	.LCB444
 589 00d6 B7E0     		b	.L31	@long jump
 590              	.LCB444:
 591              		.loc 1 237 0 is_stmt 0 discriminator 1
 592 00d8 604B     		ldr	r3, .L48+12
 593 00da 1B78     		ldrb	r3, [r3]
 594 00dc 012B     		cmp	r3, #1
 595 00de 00D0     		beq	.LCB448
 596 00e0 B2E0     		b	.L31	@long jump
 597              	.LCB448:
 238:hids.c        ****     {
 239:hids.c        ****         fPress = 0;
 598              		.loc 1 239 0 is_stmt 1
 599 00e2 5E4B     		ldr	r3, .L48+12
 600 00e4 0022     		mov	r2, #0
 601 00e6 1A70     		strb	r2, [r3]
 240:hids.c        **** 
 241:hids.c        ****         // flash LED when button pressed
 242:hids.c        ****         Advertising_LED_Write(0);
 602              		.loc 1 242 0
 603 00e8 0020     		mov	r0, #0
 604 00ea FFF7FEFF 		bl	Advertising_LED_Write
 243:hids.c        ****         CyDelay(1);
 605              		.loc 1 243 0
 606 00ee 0120     		mov	r0, #1
 607 00f0 FFF7FEFF 		bl	CyDelay
 244:hids.c        ****         Advertising_LED_Write(1);
 608              		.loc 1 244 0
 609 00f4 0120     		mov	r0, #1
 610 00f6 FFF7FEFF 		bl	Advertising_LED_Write
 245:hids.c        **** 
 246:hids.c        ****         apiResult = CyBle_HidssGetCharacteristicValue(CYBLE_HUMAN_INTERFACE_DEVICE_SERVICE_INDEX, 
 611              		.loc 1 246 0
 612 00fa BC1D     		add	r4, r7, #6
 613 00fc 5B4B     		ldr	r3, .L48+28
ARM GAS  C:\Users\akita\AppData\Local\Temp\ccacA6Jb.s 			page 17


 614 00fe 0020     		mov	r0, #0
 615 0100 0021     		mov	r1, #0
 616 0102 0122     		mov	r2, #1
 617 0104 FFF7FEFF 		bl	CyBle_HidssGetCharacteristicValue
 618 0108 031C     		mov	r3, r0
 619 010a 2380     		strh	r3, [r4]
 247:hids.c        ****             CYBLE_HIDS_PROTOCOL_MODE, sizeof(protocol), &protocol);
 248:hids.c        ****         if(apiResult == CYBLE_ERROR_OK)
 620              		.loc 1 248 0
 621 010c BB1D     		add	r3, r7, #6
 622 010e 1B88     		ldrh	r3, [r3]
 623 0110 002B     		cmp	r3, #0
 624 0112 00D0     		beq	.LCB469
 625 0114 98E0     		b	.L31	@long jump
 626              	.LCB469:
 249:hids.c        ****         {
 250:hids.c        ****             DBG_PRINTF("HID notification: ");
 627              		.loc 1 250 0
 628 0116 564B     		ldr	r3, .L48+32
 629 0118 181C     		mov	r0, r3
 630 011a FFF7FEFF 		bl	printf
 251:hids.c        ****             for(i = 0; i < KEYBOARD_DATA_SIZE; i++)
 631              		.loc 1 251 0
 632 011e 7B1D     		add	r3, r7, #5
 633 0120 0022     		mov	r2, #0
 634 0122 1A70     		strb	r2, [r3]
 635 0124 0EE0     		b	.L42
 636              	.L43:
 252:hids.c        ****             {
 253:hids.c        ****                 DBG_PRINTF("%2.2x,", keyboard_data[i]);
 637              		.loc 1 253 0 discriminator 3
 638 0126 7B1D     		add	r3, r7, #5
 639 0128 1B78     		ldrb	r3, [r3]
 640 012a 4B4A     		ldr	r2, .L48+8
 641 012c D35C     		ldrb	r3, [r2, r3]
 642 012e 1A1C     		mov	r2, r3
 643 0130 504B     		ldr	r3, .L48+36
 644 0132 181C     		mov	r0, r3
 645 0134 111C     		mov	r1, r2
 646 0136 FFF7FEFF 		bl	printf
 251:hids.c        ****             for(i = 0; i < KEYBOARD_DATA_SIZE; i++)
 647              		.loc 1 251 0 discriminator 3
 648 013a 7B1D     		add	r3, r7, #5
 649 013c 1A78     		ldrb	r2, [r3]
 650 013e 7B1D     		add	r3, r7, #5
 651 0140 0132     		add	r2, r2, #1
 652 0142 1A70     		strb	r2, [r3]
 653              	.L42:
 251:hids.c        ****             for(i = 0; i < KEYBOARD_DATA_SIZE; i++)
 654              		.loc 1 251 0 is_stmt 0 discriminator 1
 655 0144 7B1D     		add	r3, r7, #5
 656 0146 1B78     		ldrb	r3, [r3]
 657 0148 072B     		cmp	r3, #7
 658 014a ECD9     		bls	.L43
 254:hids.c        ****             }
 255:hids.c        ****             DBG_PRINTF("\r\n");
 659              		.loc 1 255 0 is_stmt 1
ARM GAS  C:\Users\akita\AppData\Local\Temp\ccacA6Jb.s 			page 18


 660 014c 4A4B     		ldr	r3, .L48+40
 661 014e 181C     		mov	r0, r3
 662 0150 FFF7FEFF 		bl	puts
 256:hids.c        ****             
 257:hids.c        ****             if(protocol == CYBLE_HIDS_PROTOCOL_MODE_BOOT)
 663              		.loc 1 257 0
 664 0154 454B     		ldr	r3, .L48+28
 665 0156 1B78     		ldrb	r3, [r3]
 666 0158 002B     		cmp	r3, #0
 667 015a 16D1     		bne	.L44
 258:hids.c        ****             {
 259:hids.c        ****                 apiResult = CyBle_HidssSendNotification(cyBle_connHandle, CYBLE_HUMAN_INTERFACE_DEV
 668              		.loc 1 259 0
 669 015c BC1D     		add	r4, r7, #6
 670 015e 474B     		ldr	r3, .L48+44
 671 0160 3D4A     		ldr	r2, .L48+8
 672 0162 0092     		str	r2, [sp]
 673 0164 1A78     		ldrb	r2, [r3]
 674 0166 5B78     		ldrb	r3, [r3, #1]
 675 0168 1B02     		lsl	r3, r3, #8
 676 016a 1A43     		orr	r2, r3
 677 016c 0023     		mov	r3, #0
 678 016e 1204     		lsl	r2, r2, #16
 679 0170 120C     		lsr	r2, r2, #16
 680 0172 1B0C     		lsr	r3, r3, #16
 681 0174 1B04     		lsl	r3, r3, #16
 682 0176 1343     		orr	r3, r2
 683 0178 181C     		mov	r0, r3
 684 017a 0021     		mov	r1, #0
 685 017c 0422     		mov	r2, #4
 686 017e 0823     		mov	r3, #8
 687 0180 FFF7FEFF 		bl	CyBle_HidssSendNotification
 688 0184 031C     		mov	r3, r0
 689 0186 2380     		strh	r3, [r4]
 690 0188 15E0     		b	.L45
 691              	.L44:
 260:hids.c        ****                     CYBLE_HIDS_BOOT_KYBRD_IN_REP, KEYBOARD_DATA_SIZE, keyboard_data);
 261:hids.c        ****             }
 262:hids.c        ****             else
 263:hids.c        ****             {
 264:hids.c        ****                 apiResult = CyBle_HidssSendNotification(cyBle_connHandle, CYBLE_HUMAN_INTERFACE_DEV
 692              		.loc 1 264 0
 693 018a BC1D     		add	r4, r7, #6
 694 018c 3B4B     		ldr	r3, .L48+44
 695 018e 324A     		ldr	r2, .L48+8
 696 0190 0092     		str	r2, [sp]
 697 0192 1A78     		ldrb	r2, [r3]
 698 0194 5B78     		ldrb	r3, [r3, #1]
 699 0196 1B02     		lsl	r3, r3, #8
 700 0198 1A43     		orr	r2, r3
 701 019a 0023     		mov	r3, #0
 702 019c 1204     		lsl	r2, r2, #16
 703 019e 120C     		lsr	r2, r2, #16
 704 01a0 1B0C     		lsr	r3, r3, #16
 705 01a2 1B04     		lsl	r3, r3, #16
 706 01a4 1343     		orr	r3, r2
 707 01a6 181C     		mov	r0, r3
ARM GAS  C:\Users\akita\AppData\Local\Temp\ccacA6Jb.s 			page 19


 708 01a8 0021     		mov	r1, #0
 709 01aa 0722     		mov	r2, #7
 710 01ac 0823     		mov	r3, #8
 711 01ae FFF7FEFF 		bl	CyBle_HidssSendNotification
 712 01b2 031C     		mov	r3, r0
 713 01b4 2380     		strh	r3, [r4]
 714              	.L45:
 265:hids.c        ****                     CYBLE_HUMAN_INTERFACE_DEVICE_REPORT_IN, KEYBOARD_DATA_SIZE, keyboard_data);
 266:hids.c        ****             }
 267:hids.c        ****             
 268:hids.c        ****             if(apiResult == CYBLE_ERROR_OK)
 715              		.loc 1 268 0
 716 01b6 BB1D     		add	r3, r7, #6
 717 01b8 1B88     		ldrh	r3, [r3]
 718 01ba 002B     		cmp	r3, #0
 719 01bc 36D1     		bne	.L46
 269:hids.c        ****             {
 270:hids.c        ****                 keyboard_data[2u] = 0u;
 720              		.loc 1 270 0
 721 01be 264B     		ldr	r3, .L48+8
 722 01c0 0022     		mov	r2, #0
 723 01c2 9A70     		strb	r2, [r3, #2]
 271:hids.c        ****                 keyboard_data[3u] = 0u;
 724              		.loc 1 271 0
 725 01c4 244B     		ldr	r3, .L48+8
 726 01c6 0022     		mov	r2, #0
 727 01c8 DA70     		strb	r2, [r3, #3]
 272:hids.c        ****                 if(protocol == CYBLE_HIDS_PROTOCOL_MODE_BOOT)
 728              		.loc 1 272 0
 729 01ca 284B     		ldr	r3, .L48+28
 730 01cc 1B78     		ldrb	r3, [r3]
 731 01ce 002B     		cmp	r3, #0
 732 01d0 16D1     		bne	.L47
 273:hids.c        ****                 {
 274:hids.c        ****                     apiResult = CyBle_HidssSendNotification(cyBle_connHandle, CYBLE_HUMAN_INTERFACE
 733              		.loc 1 274 0
 734 01d2 BC1D     		add	r4, r7, #6
 735 01d4 294B     		ldr	r3, .L48+44
 736 01d6 204A     		ldr	r2, .L48+8
 737 01d8 0092     		str	r2, [sp]
 738 01da 1A78     		ldrb	r2, [r3]
 739 01dc 5B78     		ldrb	r3, [r3, #1]
 740 01de 1B02     		lsl	r3, r3, #8
 741 01e0 1A43     		orr	r2, r3
 742 01e2 0023     		mov	r3, #0
 743 01e4 1204     		lsl	r2, r2, #16
 744 01e6 120C     		lsr	r2, r2, #16
 745 01e8 1B0C     		lsr	r3, r3, #16
 746 01ea 1B04     		lsl	r3, r3, #16
 747 01ec 1343     		orr	r3, r2
 748 01ee 181C     		mov	r0, r3
 749 01f0 0021     		mov	r1, #0
 750 01f2 0422     		mov	r2, #4
 751 01f4 0823     		mov	r3, #8
 752 01f6 FFF7FEFF 		bl	CyBle_HidssSendNotification
 753 01fa 031C     		mov	r3, r0
 754 01fc 2380     		strh	r3, [r4]
ARM GAS  C:\Users\akita\AppData\Local\Temp\ccacA6Jb.s 			page 20


 755 01fe 15E0     		b	.L46
 756              	.L47:
 275:hids.c        ****                         CYBLE_HIDS_BOOT_KYBRD_IN_REP, KEYBOARD_DATA_SIZE, keyboard_data);
 276:hids.c        ****                 }
 277:hids.c        ****                 else
 278:hids.c        ****                 {
 279:hids.c        ****                     apiResult = CyBle_HidssSendNotification(cyBle_connHandle, CYBLE_HUMAN_INTERFACE
 757              		.loc 1 279 0
 758 0200 BC1D     		add	r4, r7, #6
 759 0202 1E4B     		ldr	r3, .L48+44
 760 0204 144A     		ldr	r2, .L48+8
 761 0206 0092     		str	r2, [sp]
 762 0208 1A78     		ldrb	r2, [r3]
 763 020a 5B78     		ldrb	r3, [r3, #1]
 764 020c 1B02     		lsl	r3, r3, #8
 765 020e 1A43     		orr	r2, r3
 766 0210 0023     		mov	r3, #0
 767 0212 1204     		lsl	r2, r2, #16
 768 0214 120C     		lsr	r2, r2, #16
 769 0216 1B0C     		lsr	r3, r3, #16
 770 0218 1B04     		lsl	r3, r3, #16
 771 021a 1343     		orr	r3, r2
 772 021c 181C     		mov	r0, r3
 773 021e 0021     		mov	r1, #0
 774 0220 0722     		mov	r2, #7
 775 0222 0823     		mov	r3, #8
 776 0224 FFF7FEFF 		bl	CyBle_HidssSendNotification
 777 0228 031C     		mov	r3, r0
 778 022a 2380     		strh	r3, [r4]
 779              	.L46:
 280:hids.c        ****                         CYBLE_HUMAN_INTERFACE_DEVICE_REPORT_IN, KEYBOARD_DATA_SIZE, keyboard_data);
 281:hids.c        ****                 }
 282:hids.c        ****             }
 283:hids.c        ****             if(apiResult != CYBLE_ERROR_OK)
 780              		.loc 1 283 0
 781 022c BB1D     		add	r3, r7, #6
 782 022e 1B88     		ldrh	r3, [r3]
 783 0230 002B     		cmp	r3, #0
 784 0232 09D0     		beq	.L31
 284:hids.c        ****             {
 285:hids.c        ****                 DBG_PRINTF("HID notification API Error: %x \r\n", apiResult);
 785              		.loc 1 285 0
 786 0234 BB1D     		add	r3, r7, #6
 787 0236 1B88     		ldrh	r3, [r3]
 788 0238 114A     		ldr	r2, .L48+48
 789 023a 101C     		mov	r0, r2
 790 023c 191C     		mov	r1, r3
 791 023e FFF7FEFF 		bl	printf
 286:hids.c        ****                 keyboardSimulation = DISABLED;
 792              		.loc 1 286 0
 793 0242 104B     		ldr	r3, .L48+52
 794 0244 0022     		mov	r2, #0
 795 0246 1A80     		strh	r2, [r3]
 796              	.L31:
 287:hids.c        ****             }
 288:hids.c        ****         }
 289:hids.c        ****     }
ARM GAS  C:\Users\akita\AppData\Local\Temp\ccacA6Jb.s 			page 21


 290:hids.c        **** 
 291:hids.c        ****     /*
 292:hids.c        ****     if(0u == SW2_Read())
 293:hids.c        ****     {
 294:hids.c        ****         if(capsLockPress < KEYBOARD_JITTER_SIZE)
 295:hids.c        ****         {
 296:hids.c        ****             capsLockPress++;
 297:hids.c        ****         } 
 298:hids.c        ****         else if(capsLockPress == KEYBOARD_JITTER_SIZE)
 299:hids.c        ****         {
 300:hids.c        ****             keyboard_data[2u] = CAPS_LOCK;
 301:hids.c        ****             keyboardTimer = 1u;
 302:hids.c        ****             capsLockPress++;
 303:hids.c        ****         }
 304:hids.c        ****         else
 305:hids.c        ****         {
 306:hids.c        ****         }
 307:hids.c        ****     }
 308:hids.c        ****     else
 309:hids.c        ****     {
 310:hids.c        ****         capsLockPress = 0u;
 311:hids.c        ****     }
 312:hids.c        ****     if((CyBle_GattGetBusyStatus() == CYBLE_STACK_STATE_FREE) && (--keyboardTimer == 0u))
 313:hids.c        ****     {
 314:hids.c        ****         keyboardTimer = KEYBOARD_TIMEOUT;
 315:hids.c        ****     
 316:hids.c        ****         simKey++;
 317:hids.c        ****         if(simKey > SIM_KEY_MAX)
 318:hids.c        ****         {
 319:hids.c        ****             simKey = SIM_KEY_MIN; 
 320:hids.c        ****         }
 321:hids.c        ****         keyboard_data[3u] = simKey;              
 322:hids.c        ****         
 323:hids.c        ****         apiResult = CyBle_HidssGetCharacteristicValue(CYBLE_HUMAN_INTERFACE_DEVICE_SERVICE_INDEX, 
 324:hids.c        ****             CYBLE_HIDS_PROTOCOL_MODE, sizeof(protocol), &protocol);
 325:hids.c        ****         if(apiResult == CYBLE_ERROR_OK)
 326:hids.c        ****         {
 327:hids.c        ****             DBG_PRINTF("HID notification: ");
 328:hids.c        ****             for(i = 0; i < KEYBOARD_DATA_SIZE; i++)
 329:hids.c        ****             {
 330:hids.c        ****                 DBG_PRINTF("%2.2x,", keyboard_data[i]);
 331:hids.c        ****             }
 332:hids.c        ****             DBG_PRINTF("\r\n");
 333:hids.c        ****             
 334:hids.c        ****             if(protocol == CYBLE_HIDS_PROTOCOL_MODE_BOOT)
 335:hids.c        ****             {
 336:hids.c        ****                 apiResult = CyBle_HidssSendNotification(cyBle_connHandle, CYBLE_HUMAN_INTERFACE_DEV
 337:hids.c        ****                     CYBLE_HIDS_BOOT_KYBRD_IN_REP, KEYBOARD_DATA_SIZE, keyboard_data);
 338:hids.c        ****             }
 339:hids.c        ****             else
 340:hids.c        ****             {
 341:hids.c        ****                 apiResult = CyBle_HidssSendNotification(cyBle_connHandle, CYBLE_HUMAN_INTERFACE_DEV
 342:hids.c        ****                     CYBLE_HUMAN_INTERFACE_DEVICE_REPORT_IN, KEYBOARD_DATA_SIZE, keyboard_data);
 343:hids.c        ****             }
 344:hids.c        ****             
 345:hids.c        ****             if(apiResult == CYBLE_ERROR_OK)
 346:hids.c        ****             {
ARM GAS  C:\Users\akita\AppData\Local\Temp\ccacA6Jb.s 			page 22


 347:hids.c        ****                 keyboard_data[2u] = 0u;
 348:hids.c        ****                 keyboard_data[3u] = 0u;
 349:hids.c        ****                 if(protocol == CYBLE_HIDS_PROTOCOL_MODE_BOOT)
 350:hids.c        ****                 {
 351:hids.c        ****                     apiResult = CyBle_HidssSendNotification(cyBle_connHandle, CYBLE_HUMAN_INTERFACE
 352:hids.c        ****                         CYBLE_HIDS_BOOT_KYBRD_IN_REP, KEYBOARD_DATA_SIZE, keyboard_data);
 353:hids.c        ****                 }
 354:hids.c        ****                 else
 355:hids.c        ****                 {
 356:hids.c        ****                     apiResult = CyBle_HidssSendNotification(cyBle_connHandle, CYBLE_HUMAN_INTERFACE
 357:hids.c        ****                         CYBLE_HUMAN_INTERFACE_DEVICE_REPORT_IN, KEYBOARD_DATA_SIZE, keyboard_data);
 358:hids.c        ****                 }
 359:hids.c        ****             }
 360:hids.c        ****             if(apiResult != CYBLE_ERROR_OK)
 361:hids.c        ****             {
 362:hids.c        ****                 DBG_PRINTF("HID notification API Error: %x \r\n", apiResult);
 363:hids.c        ****                 keyboardSimulation = DISABLED;
 364:hids.c        ****             }
 365:hids.c        ****         }
 366:hids.c        ****     }
 367:hids.c        **** */    
 368:hids.c        **** }
 797              		.loc 1 368 0
 798 0248 BD46     		mov	sp, r7
 799 024a 03B0     		add	sp, sp, #12
 800              		@ sp needed
 801 024c 90BD     		pop	{r4, r7, pc}
 802              	.L49:
 803 024e C046     		.align	2
 804              	.L48:
 805 0250 00000000 		.word	Ton
 806 0254 01000000 		.word	mainPress.8323
 807 0258 04000000 		.word	keyboard_data.8318
 808 025c 00000000 		.word	fPress
 809 0260 0C000000 		.word	backPress.8324
 810 0264 0D000000 		.word	blackoutPress.8325
 811 0268 00000000 		.word	cyBle_busyStatus
 812 026c 00000000 		.word	protocol
 813 0270 94010000 		.word	.LC32
 814 0274 A8010000 		.word	.LC34
 815 0278 B0010000 		.word	.LC36
 816 027c 00000000 		.word	cyBle_connHandle
 817 0280 B4010000 		.word	.LC39
 818 0284 00000000 		.word	keyboardSimulation
 819              		.cfi_endproc
 820              	.LFE39:
 821              		.size	SimulateKeyboard, .-SimulateKeyboard
 822              		.bss
 823              	mainPress.8323:
 824 0001 00       		.space	1
 825 0002 0000     		.align	2
 826              	keyboard_data.8318:
 827 0004 00000000 		.space	8
 827      00000000 
 828              	backPress.8324:
 829 000c 00       		.space	1
 830              	blackoutPress.8325:
ARM GAS  C:\Users\akita\AppData\Local\Temp\ccacA6Jb.s 			page 23


 831 000d 00       		.space	1
 832              	capsLockPress.8322:
 833 000e 00       		.space	1
 834              	simKey.8321:
 835 000f 00       		.space	1
 836              		.data
 837 0002 0000     		.align	2
 838              		.type	keyboardTimer.8320, %object
 839              		.size	keyboardTimer.8320, 4
 840              	keyboardTimer.8320:
 841 0004 0A000000 		.word	10
 842              		.text
 843              	.Letext0:
 844              		.file 2 "Generated_Source\\PSoC4/cytypes.h"
 845              		.file 3 "Generated_Source\\PSoC4/BLE_Stack.h"
 846              		.file 4 "Generated_Source\\PSoC4/BLE_StackGatt.h"
 847              		.file 5 "Generated_Source\\PSoC4/BLE_hids.h"
 848              		.file 6 "Generated_Source\\PSoC4/BLE_dis.h"
 849              		.file 7 "Generated_Source\\PSoC4/BLE_eventHandler.h"
 850              		.file 8 "common.h"