ARM GAS  C:\Users\akita\AppData\Local\Temp\ccBSrbkH.s 			page 1


   1              		.cpu cortex-m0
   2              		.fpu softvfp
   3              		.eabi_attribute 20, 1
   4              		.eabi_attribute 21, 1
   5              		.eabi_attribute 23, 3
   6              		.eabi_attribute 24, 1
   7              		.eabi_attribute 25, 1
   8              		.eabi_attribute 26, 1
   9              		.eabi_attribute 30, 6
  10              		.eabi_attribute 34, 0
  11              		.eabi_attribute 18, 4
  12              		.code	16
  13              		.file	"main.c"
  14              		.text
  15              	.Ltext0:
  16              		.cfi_sections	.debug_frame
  17              		.global	Ton
  18              		.bss
  19              		.align	2
  20              		.type	Ton, %object
  21              		.size	Ton, 4
  22              	Ton:
  23 0000 00000000 		.space	4
  24              		.global	mainTimer
  25              		.align	2
  26              		.type	mainTimer, %object
  27              		.size	mainTimer, 4
  28              	mainTimer:
  29 0004 00000000 		.space	4
  30              		.global	Tconnect
  31              		.align	2
  32              		.type	Tconnect, %object
  33              		.size	Tconnect, 4
  34              	Tconnect:
  35 0008 00000000 		.space	4
  36              		.global	fUpdate
  37              		.type	fUpdate, %object
  38              		.size	fUpdate, 1
  39              	fUpdate:
  40 000c 00       		.space	1
  41 000d 000000   		.section	.rodata
  42              		.align	2
  43              	.LC0:
  44 0000 53746172 		.ascii	"StartAdvertisement API Error: %d \015\012\000"
  44      74416476 
  44      65727469 
  44      73656D65 
  44      6E742041 
  45              		.align	2
  46              	.LC2:
  47 0024 426C7565 		.ascii	"Bluetooth On, StartAdvertisement with addr: \000"
  47      746F6F74 
  47      68204F6E 
  47      2C205374 
  47      61727441 
  48 0051 000000   		.align	2
  49              	.LC4:
ARM GAS  C:\Users\akita\AppData\Local\Temp\ccBSrbkH.s 			page 2


  50 0054 25322E32 		.ascii	"%2.2x\000"
  50      7800
  51 005a 0000     		.align	2
  52              	.LC6:
  53 005c 0D00     		.ascii	"\015\000"
  54 005e 0000     		.align	2
  55              	.LC8:
  56 0060 4359424C 		.ascii	"CYBLE_EVT_HARDWARE_ERROR \015\000"
  56      455F4556 
  56      545F4841 
  56      52445741 
  56      52455F45 
  57 007b 00       		.align	2
  58              	.LC10:
  59 007c 4359424C 		.ascii	"CYBLE_EVT_STACK_BUSY_STATUS: %x\015\012\000"
  59      455F4556 
  59      545F5354 
  59      41434B5F 
  59      42555359 
  60 009e 0000     		.align	2
  61              	.LC12:
  62 00a0 4359424C 		.ascii	"CYBLE_EVT_HCI_STATUS: %x \015\012\000"
  62      455F4556 
  62      545F4843 
  62      495F5354 
  62      41545553 
  63              		.align	2
  64              	.LC14:
  65 00bc 4359424C 		.ascii	"CYBLE_EVT_AUTH_REQ: security=%x, bonding=%x, ekeySi"
  65      455F4556 
  65      545F4155 
  65      54485F52 
  65      45513A20 
  66 00ef 7A653D25 		.ascii	"ze=%x, err=%x \015\012\000"
  66      782C2065 
  66      72723D25 
  66      78200D0A 
  66      00
  67              		.align	2
  68              	.LC16:
  69 0100 4359424C 		.ascii	"CYBLE_EVT_PASSKEY_ENTRY_REQUEST press 'p' to enter "
  69      455F4556 
  69      545F5041 
  69      53534B45 
  69      595F454E 
  70 0133 70617373 		.ascii	"passkey \015\000"
  70      6B657920 
  70      0D00
  71 013d 000000   		.align	2
  72              	.LC18:
  73 0140 4359424C 		.ascii	"CYBLE_EVT_PASSKEY_DISPLAY_REQUEST %6.6ld \015\012\000"
  73      455F4556 
  73      545F5041 
  73      53534B45 
  73      595F4449 
  74              		.align	2
  75              	.LC20:
ARM GAS  C:\Users\akita\AppData\Local\Temp\ccBSrbkH.s 			page 3


  76 016c 4359424C 		.ascii	"CYBLE_EVT_GAP_KEYINFO_EXCHNGE_CMPLT \015\000"
  76      455F4556 
  76      545F4741 
  76      505F4B45 
  76      59494E46 
  77 0192 0000     		.align	2
  78              	.LC22:
  79 0194 41555448 		.ascii	"AUTH_COMPLETE: security:%x, bonding:%x, ekeySize:%x"
  79      5F434F4D 
  79      504C4554 
  79      453A2073 
  79      65637572 
  80 01c7 2C206175 		.ascii	", authErr %x \015\012\000"
  80      74684572 
  80      72202578 
  80      200D0A00 
  81 01d7 00       		.align	2
  82              	.LC24:
  83 01d8 4359424C 		.ascii	"CYBLE_EVT_AUTH_FAILED: %x \015\012\000"
  83      455F4556 
  83      545F4155 
  83      54485F46 
  83      41494C45 
  84 01f5 000000   		.align	2
  85              	.LC27:
  86 01f8 4359424C 		.ascii	"CYBLE_EVT_ADVERTISING, state: %x \015\012\000"
  86      455F4556 
  86      545F4144 
  86      56455254 
  86      4953494E 
  87              		.align	2
  88              	.LC29:
  89 021c 48696265 		.ascii	"Hibernate \015\000"
  89      726E6174 
  89      65200D00 
  90              		.align	2
  91              	.LC31:
  92 0228 4359424C 		.ascii	"CYBLE_EVT_GAP_DEVICE_CONNECTED \015\000"
  92      455F4556 
  92      545F4741 
  92      505F4445 
  92      56494345 
  93 0249 000000   		.align	2
  94              	.LC33:
  95 024c 4359424C 		.ascii	"CYBLE_EVT_GAP_DEVICE_DISCONNECTED\015\000"
  95      455F4556 
  95      545F4741 
  95      505F4445 
  95      56494345 
  96 026f 00       		.align	2
  97              	.LC35:
  98 0270 4359424C 		.ascii	"CYBLE_EVT_GATTS_XCNHG_MTU_REQ, final mtu= %d \015\012"
  98      455F4556 
  98      545F4741 
  98      5454535F 
  98      58434E48 
  99 029f 00       		.ascii	"\000"
ARM GAS  C:\Users\akita\AppData\Local\Temp\ccBSrbkH.s 			page 4


 100              		.align	2
 101              	.LC37:
 102 02a0 4359424C 		.ascii	"CYBLE_EVT_GATT_WRITE_REQ: %x = \000"
 102      455F4556 
 102      545F4741 
 102      54545F57 
 102      52495445 
 103              		.align	2
 104              	.LC39:
 105 02c0 4359424C 		.ascii	"CYBLE_EVT_GAP_ENCRYPT_CHANGE: %x \015\012\000"
 105      455F4556 
 105      545F4741 
 105      505F454E 
 105      43525950 
 106              		.align	2
 107              	.LC41:
 108 02e4 4359424C 		.ascii	"CYBLE_EVT_CONNECTION_UPDATE_COMPLETE: %x \015\012\000"
 108      455F4556 
 108      545F434F 
 108      4E4E4543 
 108      54494F4E 
 109              		.align	2
 110              	.LC44:
 111 0310 4359424C 		.ascii	"CYBLE_EVT_GATT_CONNECT_IND: %x, %x \015\012\000"
 111      455F4556 
 111      545F4741 
 111      54545F43 
 111      4F4E4E45 
 112 0336 0000     		.align	2
 113              	.LC46:
 114 0338 4359424C 		.ascii	"CYBLE_EVT_GATT_DISCONNECT_IND \015\000"
 114      455F4556 
 114      545F4741 
 114      54545F44 
 114      4953434F 
 115              		.align	2
 116              	.LC50:
 117 0358 4359424C 		.ascii	"CYBLE_EVT_GATTS_READ_CHAR_VAL_ACCESS_REQ: handle: %"
 117      455F4556 
 117      545F4741 
 117      5454535F 
 117      52454144 
 118 038b 78200D0A 		.ascii	"x \015\012\000"
 118      00
 119              		.align	2
 120              	.LC52:
 121 0390 4359424C 		.ascii	"CYBLE_EVT_PENDING_FLASH_WRITE\015\000"
 121      455F4556 
 121      545F5045 
 121      4E44494E 
 121      475F464C 
 122 03af 00       		.align	2
 123              	.LC54:
 124 03b0 4F544845 		.ascii	"OTHER event: %lx \015\012\000"
 124      52206576 
 124      656E743A 
 124      20256C78 
ARM GAS  C:\Users\akita\AppData\Local\Temp\ccBSrbkH.s 			page 5


 124      200D0A00 
 125              		.section	.text.AppCallBack,"ax",%progbits
 126              		.align	2
 127              		.global	AppCallBack
 128              		.code	16
 129              		.thumb_func
 130              		.type	AppCallBack, %function
 131              	AppCallBack:
 132              	.LFB37:
 133              		.file 1 "main.c"
   1:main.c        **** /*******************************************************************************
   2:main.c        **** * File Name: main.c
   3:main.c        **** *
   4:main.c        **** * Version: 1.0
   5:main.c        **** *
   6:main.c        **** * Description:
   7:main.c        **** *  BLE HID keyboard example project that supports both input and output reports
   8:main.c        **** *  in boot and protocol mode. The example also demonstrates handling suspend 
   9:main.c        **** *  event from the central device and enters low power mode when suspended.
  10:main.c        **** *
  11:main.c        **** * References:
  12:main.c        **** *  BLUETOOTH SPECIFICATION Version 4.1
  13:main.c        **** *  HID Usage Tables spec ver 1.12
  14:main.c        **** *
  15:main.c        **** * Hardware Dependency:
  16:main.c        **** *  CY8CKIT-042 BLE
  17:main.c        **** *
  18:main.c        **** ********************************************************************************
  19:main.c        **** * Copyright 2015, Cypress Semiconductor Corporation.  All rights reserved.
  20:main.c        **** * You may use this file only in accordance with the license, terms, conditions,
  21:main.c        **** * disclaimers, and limitations in the end user license agreement accompanying
  22:main.c        **** * the software package with which this file was provided.
  23:main.c        **** *******************************************************************************/
  24:main.c        **** 
  25:main.c        **** #include "common.h"
  26:main.c        **** #include "hids.h"
  27:main.c        **** #include "bas.h"
  28:main.c        **** #include "scps.h"
  29:main.c        **** 
  30:main.c        **** volatile uint32 mainTimer = 0;
  31:main.c        **** 
  32:main.c        **** int Ton = 0;
  33:main.c        **** int Tconnect = 0;
  34:main.c        **** uint8_t fUpdate = 0;
  35:main.c        **** 
  36:main.c        **** /*******************************************************************************
  37:main.c        **** * Function Name: AppCallBack()
  38:main.c        **** ********************************************************************************
  39:main.c        **** *
  40:main.c        **** * Summary:
  41:main.c        **** *   This is an event callback function to receive events from the BLE Component.
  42:main.c        **** *
  43:main.c        **** *******************************************************************************/
  44:main.c        **** void AppCallBack(uint32 event, void* eventParam)
  45:main.c        **** {
 134              		.loc 1 45 0
 135              		.cfi_startproc
ARM GAS  C:\Users\akita\AppData\Local\Temp\ccBSrbkH.s 			page 6


 136 0000 B0B5     		push	{r4, r5, r7, lr}
 137              		.cfi_def_cfa_offset 16
 138              		.cfi_offset 4, -16
 139              		.cfi_offset 5, -12
 140              		.cfi_offset 7, -8
 141              		.cfi_offset 14, -4
 142 0002 8CB0     		sub	sp, sp, #48
 143              		.cfi_def_cfa_offset 64
 144 0004 02AF     		add	r7, sp, #8
 145              		.cfi_def_cfa 7, 56
 146 0006 7860     		str	r0, [r7, #4]
 147 0008 3960     		str	r1, [r7]
  46:main.c        ****     CYBLE_API_RESULT_T apiResult;
  47:main.c        ****     CYBLE_GAP_BD_ADDR_T localAddr;
  48:main.c        ****     CYBLE_GAP_AUTH_INFO_T *authInfo;
  49:main.c        ****     uint8 i;
  50:main.c        ****     
  51:main.c        ****     switch (event)
 148              		.loc 1 51 0
 149 000a 7B68     		ldr	r3, [r7, #4]
 150 000c 262B     		cmp	r3, #38
 151 000e 00D1     		bne	.LCB18
 152 0010 ECE0     		b	.L3	@long jump
 153              	.LCB18:
 154 0012 23D8     		bhi	.L4
 155 0014 052B     		cmp	r3, #5
 156 0016 00D1     		bne	.LCB22
 157 0018 91E0     		b	.L5	@long jump
 158              	.LCB22:
 159 001a 0DD8     		bhi	.L6
 160 001c 022B     		cmp	r3, #2
 161 001e 00D1     		bne	.LCB26
 162 0020 AEE1     		b	.L43	@long jump
 163              	.LCB26:
 164 0022 02D8     		bhi	.L8
 165 0024 012B     		cmp	r3, #1
 166 0026 41D0     		beq	.L9
 167 0028 A2E1     		b	.L2
 168              	.L8:
 169 002a 032B     		cmp	r3, #3
 170 002c 00D1     		bne	.LCB36
 171 002e 81E0     		b	.L10	@long jump
 172              	.LCB36:
 173 0030 042B     		cmp	r3, #4
 174 0032 00D1     		bne	.LCB38
 175 0034 8CE0     		b	.L11	@long jump
 176              	.LCB38:
 177 0036 9BE1     		b	.L2
 178              	.L6:
 179 0038 232B     		cmp	r3, #35
 180 003a 00D1     		bne	.LCB44
 181 003c AAE0     		b	.L12	@long jump
 182              	.LCB44:
 183 003e 06D8     		bhi	.L13
 184 0040 212B     		cmp	r3, #33
 185 0042 00D1     		bne	.LCB48
 186 0044 8DE0     		b	.L14	@long jump
ARM GAS  C:\Users\akita\AppData\Local\Temp\ccBSrbkH.s 			page 7


 187              	.LCB48:
 188 0046 222B     		cmp	r3, #34
 189 0048 00D1     		bne	.LCB50
 190 004a 9EE0     		b	.L15	@long jump
 191              	.LCB50:
 192 004c 90E1     		b	.L2
 193              	.L13:
 194 004e 242B     		cmp	r3, #36
 195 0050 00D1     		bne	.LCB56
 196 0052 ACE0     		b	.L16	@long jump
 197              	.LCB56:
 198 0054 252B     		cmp	r3, #37
 199 0056 00D1     		bne	.LCB58
 200 0058 BFE0     		b	.L17	@long jump
 201              	.LCB58:
 202 005a 89E1     		b	.L2
 203              	.L4:
 204 005c 412B     		cmp	r3, #65
 205 005e 00D1     		bne	.LCB64
 206 0060 5CE1     		b	.L18	@long jump
 207              	.LCB64:
 208 0062 11D8     		bhi	.L19
 209 0064 292B     		cmp	r3, #41
 210 0066 00D1     		bne	.LCB68
 211 0068 46E1     		b	.L20	@long jump
 212              	.LCB68:
 213 006a 06D8     		bhi	.L21
 214 006c 272B     		cmp	r3, #39
 215 006e 00D1     		bne	.LCB72
 216 0070 EAE0     		b	.L22	@long jump
 217              	.LCB72:
 218 0072 282B     		cmp	r3, #40
 219 0074 00D1     		bne	.LCB74
 220 0076 04E1     		b	.L23	@long jump
 221              	.LCB74:
 222 0078 7AE1     		b	.L2
 223              	.L21:
 224 007a 2A2B     		cmp	r3, #42
 225 007c 00D1     		bne	.LCB80
 226 007e 44E1     		b	.L24	@long jump
 227              	.LCB80:
 228 0080 2C2B     		cmp	r3, #44
 229 0082 00D1     		bne	.LCB82
 230 0084 8EE0     		b	.L25	@long jump
 231              	.LCB82:
 232 0086 73E1     		b	.L2
 233              	.L19:
 234 0088 4C2B     		cmp	r3, #76
 235 008a 00D1     		bne	.LCB88
 236 008c 22E1     		b	.L26	@long jump
 237              	.LCB88:
 238 008e 06D8     		bhi	.L27
 239 0090 422B     		cmp	r3, #66
 240 0092 00D1     		bne	.LCB92
 241 0094 53E1     		b	.L28	@long jump
 242              	.LCB92:
 243 0096 432B     		cmp	r3, #67
ARM GAS  C:\Users\akita\AppData\Local\Temp\ccBSrbkH.s 			page 8


 244 0098 00D1     		bne	.LCB94
 245 009a 0CE1     		b	.L29	@long jump
 246              	.LCB94:
 247 009c 68E1     		b	.L2
 248              	.L27:
 249 009e 572B     		cmp	r3, #87
 250 00a0 00D1     		bne	.LCB100
 251 00a2 57E1     		b	.L30	@long jump
 252              	.LCB100:
 253 00a4 FA2B     		cmp	r3, #250
 254 00a6 00D1     		bne	.LCB102
 255 00a8 5DE1     		b	.L31	@long jump
 256              	.LCB102:
 257 00aa 61E1     		b	.L2
 258              	.L9:
 259              	.LBB2:
  52:main.c        **** 	{
  53:main.c        ****         /**********************************************************
  54:main.c        ****         *                       General Events
  55:main.c        ****         ***********************************************************/
  56:main.c        **** 		case CYBLE_EVT_STACK_ON: /* This event is received when the component is Started */
  57:main.c        ****             /* Enter into discoverable mode so that remote can search it. */
  58:main.c        ****             apiResult = CyBle_GappStartAdvertisement(CYBLE_ADVERTISING_FAST);
 260              		.loc 1 58 0
 261 00ac 1E23     		mov	r3, #30
 262 00ae FC18     		add	r4, r7, r3
 263 00b0 0020     		mov	r0, #0
 264 00b2 FFF7FEFF 		bl	CyBle_GappStartAdvertisement
 265 00b6 031C     		mov	r3, r0
 266 00b8 2380     		strh	r3, [r4]
  59:main.c        ****             if(apiResult != CYBLE_ERROR_OK)
 267              		.loc 1 59 0
 268 00ba 1E23     		mov	r3, #30
 269 00bc FB18     		add	r3, r7, r3
 270 00be 1B88     		ldrh	r3, [r3]
 271 00c0 002B     		cmp	r3, #0
 272 00c2 07D0     		beq	.L32
  60:main.c        ****             {
  61:main.c        ****                 DBG_PRINTF("StartAdvertisement API Error: %d \r\n", apiResult);
 273              		.loc 1 61 0
 274 00c4 1E23     		mov	r3, #30
 275 00c6 FB18     		add	r3, r7, r3
 276 00c8 1B88     		ldrh	r3, [r3]
 277 00ca AF4A     		ldr	r2, .L44
 278 00cc 101C     		mov	r0, r2
 279 00ce 191C     		mov	r1, r3
 280 00d0 FFF7FEFF 		bl	printf
 281              	.L32:
  62:main.c        ****             }
  63:main.c        ****             DBG_PRINTF("Bluetooth On, StartAdvertisement with addr: ");
 282              		.loc 1 63 0
 283 00d4 AD4B     		ldr	r3, .L44+4
 284 00d6 181C     		mov	r0, r3
 285 00d8 FFF7FEFF 		bl	printf
  64:main.c        ****             localAddr.type = 0u;
 286              		.loc 1 64 0
 287 00dc 1023     		mov	r3, #16
ARM GAS  C:\Users\akita\AppData\Local\Temp\ccBSrbkH.s 			page 9


 288 00de FB18     		add	r3, r7, r3
 289 00e0 0022     		mov	r2, #0
 290 00e2 9A71     		strb	r2, [r3, #6]
  65:main.c        ****             CyBle_GetDeviceAddress(&localAddr);
 291              		.loc 1 65 0
 292 00e4 1023     		mov	r3, #16
 293 00e6 FB18     		add	r3, r7, r3
 294 00e8 181C     		mov	r0, r3
 295 00ea FFF7FEFF 		bl	CyBle_GetDeviceAddress
  66:main.c        ****             for(i = CYBLE_GAP_BD_ADDR_SIZE; i > 0u; i--)
 296              		.loc 1 66 0
 297 00ee 2723     		mov	r3, #39
 298 00f0 FB18     		add	r3, r7, r3
 299 00f2 0622     		mov	r2, #6
 300 00f4 1A70     		strb	r2, [r3]
 301 00f6 13E0     		b	.L33
 302              	.L34:
  67:main.c        ****             {
  68:main.c        ****                 DBG_PRINTF("%2.2x", localAddr.bdAddr[i-1]);
 303              		.loc 1 68 0 discriminator 3
 304 00f8 2723     		mov	r3, #39
 305 00fa FB18     		add	r3, r7, r3
 306 00fc 1B78     		ldrb	r3, [r3]
 307 00fe 013B     		sub	r3, r3, #1
 308 0100 1022     		mov	r2, #16
 309 0102 BA18     		add	r2, r7, r2
 310 0104 D35C     		ldrb	r3, [r2, r3]
 311 0106 1A1C     		mov	r2, r3
 312 0108 A14B     		ldr	r3, .L44+8
 313 010a 181C     		mov	r0, r3
 314 010c 111C     		mov	r1, r2
 315 010e FFF7FEFF 		bl	printf
  66:main.c        ****             for(i = CYBLE_GAP_BD_ADDR_SIZE; i > 0u; i--)
 316              		.loc 1 66 0 discriminator 3
 317 0112 2723     		mov	r3, #39
 318 0114 FB18     		add	r3, r7, r3
 319 0116 1A78     		ldrb	r2, [r3]
 320 0118 2723     		mov	r3, #39
 321 011a FB18     		add	r3, r7, r3
 322 011c 013A     		sub	r2, r2, #1
 323 011e 1A70     		strb	r2, [r3]
 324              	.L33:
  66:main.c        ****             for(i = CYBLE_GAP_BD_ADDR_SIZE; i > 0u; i--)
 325              		.loc 1 66 0 is_stmt 0 discriminator 1
 326 0120 2723     		mov	r3, #39
 327 0122 FB18     		add	r3, r7, r3
 328 0124 1B78     		ldrb	r3, [r3]
 329 0126 002B     		cmp	r3, #0
 330 0128 E6D1     		bne	.L34
  69:main.c        ****             }
  70:main.c        ****             DBG_PRINTF("\r\n");
 331              		.loc 1 70 0 is_stmt 1
 332 012a 9A4B     		ldr	r3, .L44+12
 333 012c 181C     		mov	r0, r3
 334 012e FFF7FEFF 		bl	puts
  71:main.c        ****             break;
 335              		.loc 1 71 0
ARM GAS  C:\Users\akita\AppData\Local\Temp\ccBSrbkH.s 			page 10


 336 0132 26E1     		b	.L1
 337              	.L10:
  72:main.c        **** 		case CYBLE_EVT_TIMEOUT: 
  73:main.c        ****             break;
  74:main.c        **** 		case CYBLE_EVT_HARDWARE_ERROR:    /* This event indicates that some internal HW error has occurre
  75:main.c        ****             DBG_PRINTF("CYBLE_EVT_HARDWARE_ERROR \r\n");
 338              		.loc 1 75 0
 339 0134 984B     		ldr	r3, .L44+16
 340 0136 181C     		mov	r0, r3
 341 0138 FFF7FEFF 		bl	puts
  76:main.c        **** 			break;
 342              		.loc 1 76 0
 343 013c 21E1     		b	.L1
 344              	.L5:
  77:main.c        ****             
  78:main.c        ****     	/* This event will be triggered by host stack if BLE stack is busy or not busy.
  79:main.c        ****     	 *  Parameter corresponding to this event will be the state of BLE stack.
  80:main.c        ****     	 *  BLE stack busy = CYBLE_STACK_STATE_BUSY,
  81:main.c        ****     	 *  BLE stack not busy = CYBLE_STACK_STATE_FREE 
  82:main.c        ****          */
  83:main.c        ****     	case CYBLE_EVT_STACK_BUSY_STATUS:
  84:main.c        ****             DBG_PRINTF("CYBLE_EVT_STACK_BUSY_STATUS: %x\r\n", *(uint8 *)eventParam);
 345              		.loc 1 84 0
 346 013e 3B68     		ldr	r3, [r7]
 347 0140 1B78     		ldrb	r3, [r3]
 348 0142 1A1C     		mov	r2, r3
 349 0144 954B     		ldr	r3, .L44+20
 350 0146 181C     		mov	r0, r3
 351 0148 111C     		mov	r1, r2
 352 014a FFF7FEFF 		bl	printf
  85:main.c        ****             break;
 353              		.loc 1 85 0
 354 014e 18E1     		b	.L1
 355              	.L11:
  86:main.c        ****         case CYBLE_EVT_HCI_STATUS:
  87:main.c        ****             DBG_PRINTF("CYBLE_EVT_HCI_STATUS: %x \r\n", *(uint8 *)eventParam);
 356              		.loc 1 87 0
 357 0150 3B68     		ldr	r3, [r7]
 358 0152 1B78     		ldrb	r3, [r3]
 359 0154 1A1C     		mov	r2, r3
 360 0156 924B     		ldr	r3, .L44+24
 361 0158 181C     		mov	r0, r3
 362 015a 111C     		mov	r1, r2
 363 015c FFF7FEFF 		bl	printf
  88:main.c        **** 			break;
 364              		.loc 1 88 0
 365 0160 0FE1     		b	.L1
 366              	.L14:
  89:main.c        ****             
  90:main.c        ****         /**********************************************************
  91:main.c        ****         *                       GAP Events
  92:main.c        ****         ***********************************************************/
  93:main.c        ****         case CYBLE_EVT_GAP_AUTH_REQ:
  94:main.c        ****             DBG_PRINTF("CYBLE_EVT_AUTH_REQ: security=%x, bonding=%x, ekeySize=%x, err=%x \r\n", 
 367              		.loc 1 94 0
 368 0162 3B68     		ldr	r3, [r7]
 369 0164 1B78     		ldrb	r3, [r3]
ARM GAS  C:\Users\akita\AppData\Local\Temp\ccBSrbkH.s 			page 11


 370 0166 191C     		mov	r1, r3
 371 0168 3B68     		ldr	r3, [r7]
 372 016a 5B78     		ldrb	r3, [r3, #1]
 373 016c 1D1C     		mov	r5, r3
 374 016e 3B68     		ldr	r3, [r7]
 375 0170 9B78     		ldrb	r3, [r3, #2]
 376 0172 1C1C     		mov	r4, r3
 377 0174 3B68     		ldr	r3, [r7]
 378 0176 DB78     		ldrb	r3, [r3, #3]
 379 0178 1A1C     		mov	r2, r3
 380 017a 8A4B     		ldr	r3, .L44+28
 381 017c 0092     		str	r2, [sp]
 382 017e 181C     		mov	r0, r3
 383 0180 2A1C     		mov	r2, r5
 384 0182 231C     		mov	r3, r4
 385 0184 FFF7FEFF 		bl	printf
  95:main.c        ****                 (*(CYBLE_GAP_AUTH_INFO_T *)eventParam).security, 
  96:main.c        ****                 (*(CYBLE_GAP_AUTH_INFO_T *)eventParam).bonding, 
  97:main.c        ****                 (*(CYBLE_GAP_AUTH_INFO_T *)eventParam).ekeySize, 
  98:main.c        ****                 (*(CYBLE_GAP_AUTH_INFO_T *)eventParam).authErr);
  99:main.c        ****             break;
 386              		.loc 1 99 0
 387 0188 FBE0     		b	.L1
 388              	.L15:
 100:main.c        ****         case CYBLE_EVT_GAP_PASSKEY_ENTRY_REQUEST:
 101:main.c        ****             DBG_PRINTF("CYBLE_EVT_PASSKEY_ENTRY_REQUEST press 'p' to enter passkey \r\n");
 389              		.loc 1 101 0
 390 018a 874B     		ldr	r3, .L44+32
 391 018c 181C     		mov	r0, r3
 392 018e FFF7FEFF 		bl	puts
 102:main.c        ****             break;
 393              		.loc 1 102 0
 394 0192 F6E0     		b	.L1
 395              	.L12:
 103:main.c        ****         case CYBLE_EVT_GAP_PASSKEY_DISPLAY_REQUEST:
 104:main.c        ****             DBG_PRINTF("CYBLE_EVT_PASSKEY_DISPLAY_REQUEST %6.6ld \r\n", *(uint32 *)eventParam);
 396              		.loc 1 104 0
 397 0194 3B68     		ldr	r3, [r7]
 398 0196 1B68     		ldr	r3, [r3]
 399 0198 844A     		ldr	r2, .L44+36
 400 019a 101C     		mov	r0, r2
 401 019c 191C     		mov	r1, r3
 402 019e FFF7FEFF 		bl	printf
 105:main.c        ****             break;
 403              		.loc 1 105 0
 404 01a2 EEE0     		b	.L1
 405              	.L25:
 106:main.c        ****         case CYBLE_EVT_GAP_KEYINFO_EXCHNGE_CMPLT:
 107:main.c        ****             DBG_PRINTF("CYBLE_EVT_GAP_KEYINFO_EXCHNGE_CMPLT \r\n");
 406              		.loc 1 107 0
 407 01a4 824B     		ldr	r3, .L44+40
 408 01a6 181C     		mov	r0, r3
 409 01a8 FFF7FEFF 		bl	puts
 108:main.c        ****             break;
 410              		.loc 1 108 0
 411 01ac E9E0     		b	.L1
 412              	.L16:
ARM GAS  C:\Users\akita\AppData\Local\Temp\ccBSrbkH.s 			page 12


 109:main.c        ****         case CYBLE_EVT_GAP_AUTH_COMPLETE:
 110:main.c        ****             authInfo = (CYBLE_GAP_AUTH_INFO_T *)eventParam;
 413              		.loc 1 110 0
 414 01ae 3B68     		ldr	r3, [r7]
 415 01b0 BB61     		str	r3, [r7, #24]
 111:main.c        ****             (void)authInfo;
 112:main.c        ****             DBG_PRINTF("AUTH_COMPLETE: security:%x, bonding:%x, ekeySize:%x, authErr %x \r\n", 
 416              		.loc 1 112 0
 417 01b2 BB69     		ldr	r3, [r7, #24]
 418 01b4 1B78     		ldrb	r3, [r3]
 419 01b6 191C     		mov	r1, r3
 420 01b8 BB69     		ldr	r3, [r7, #24]
 421 01ba 5B78     		ldrb	r3, [r3, #1]
 422 01bc 1D1C     		mov	r5, r3
 423 01be BB69     		ldr	r3, [r7, #24]
 424 01c0 9B78     		ldrb	r3, [r3, #2]
 425 01c2 1C1C     		mov	r4, r3
 426 01c4 BB69     		ldr	r3, [r7, #24]
 427 01c6 DB78     		ldrb	r3, [r3, #3]
 428 01c8 1A1C     		mov	r2, r3
 429 01ca 7A4B     		ldr	r3, .L44+44
 430 01cc 0092     		str	r2, [sp]
 431 01ce 181C     		mov	r0, r3
 432 01d0 2A1C     		mov	r2, r5
 433 01d2 231C     		mov	r3, r4
 434 01d4 FFF7FEFF 		bl	printf
 113:main.c        ****                                     authInfo->security, authInfo->bonding, authInfo->ekeySize, auth
 114:main.c        ****             break;
 435              		.loc 1 114 0
 436 01d8 D3E0     		b	.L1
 437              	.L17:
 115:main.c        ****         case CYBLE_EVT_GAP_AUTH_FAILED:
 116:main.c        ****             DBG_PRINTF("CYBLE_EVT_AUTH_FAILED: %x \r\n", *(uint8 *)eventParam);
 438              		.loc 1 116 0
 439 01da 3B68     		ldr	r3, [r7]
 440 01dc 1B78     		ldrb	r3, [r3]
 441 01de 1A1C     		mov	r2, r3
 442 01e0 754B     		ldr	r3, .L44+48
 443 01e2 181C     		mov	r0, r3
 444 01e4 111C     		mov	r1, r2
 445 01e6 FFF7FEFF 		bl	printf
 117:main.c        ****             break;
 446              		.loc 1 117 0
 447 01ea CAE0     		b	.L1
 448              	.L3:
 118:main.c        ****         case CYBLE_EVT_GAPP_ADVERTISEMENT_START_STOP:
 119:main.c        ****             DBG_PRINTF("CYBLE_EVT_ADVERTISING, state: %x \r\n", CyBle_GetState());
 449              		.loc 1 119 0
 450 01ec 734B     		ldr	r3, .L44+52
 451 01ee 1B78     		ldrb	r3, [r3]
 452 01f0 1A1C     		mov	r2, r3
 453 01f2 734B     		ldr	r3, .L44+56
 454 01f4 181C     		mov	r0, r3
 455 01f6 111C     		mov	r1, r2
 456 01f8 FFF7FEFF 		bl	printf
 120:main.c        ****             if(CYBLE_STATE_DISCONNECTED == CyBle_GetState())
 457              		.loc 1 120 0
ARM GAS  C:\Users\akita\AppData\Local\Temp\ccBSrbkH.s 			page 13


 458 01fc 6F4B     		ldr	r3, .L44+52
 459 01fe 1B78     		ldrb	r3, [r3]
 460 0200 042B     		cmp	r3, #4
 461 0202 20D1     		bne	.L36
 121:main.c        ****             {   
 122:main.c        ****                 /* Fast and slow advertising period complete, go to low power  
 123:main.c        ****                  * mode (Hibernate mode) and wait for an external
 124:main.c        ****                  * user event to wake up the device again */
 125:main.c        ****                 DBG_PRINTF("Hibernate \r\n");
 462              		.loc 1 125 0
 463 0204 6F4B     		ldr	r3, .L44+60
 464 0206 181C     		mov	r0, r3
 465 0208 FFF7FEFF 		bl	puts
 126:main.c        ****                 Advertising_LED_Write(LED_OFF);
 466              		.loc 1 126 0
 467 020c 0120     		mov	r0, #1
 468 020e FFF7FEFF 		bl	Advertising_LED_Write
 127:main.c        **** //                Disconnect_LED_Write(LED_ON);
 128:main.c        ****                 CapsLock_LED_Write(LED_OFF);
 469              		.loc 1 128 0
 470 0212 0120     		mov	r0, #1
 471 0214 FFF7FEFF 		bl	CapsLock_LED_Write
 129:main.c        **** //                SW2_ClearInterrupt();
 130:main.c        ****                 Wakeup_Interrupt_ClearPending();
 472              		.loc 1 130 0
 473 0218 FFF7FEFF 		bl	Wakeup_Interrupt_ClearPending
 131:main.c        ****                 Wakeup_Interrupt_Start();
 474              		.loc 1 131 0
 475 021c FFF7FEFF 		bl	Wakeup_Interrupt_Start
 132:main.c        ****             #if (DEBUG_UART_ENABLED == ENABLED)
 133:main.c        ****                 /* Wait until debug info is sent */
 134:main.c        ****                 while((UART_DEB_SpiUartGetTxBufferSize() + UART_DEB_GET_TX_FIFO_SR_VALID) != 0);
 476              		.loc 1 134 0
 477 0220 C046     		mov	r8, r8
 478              	.L39:
 479              		.loc 1 134 0 is_stmt 0 discriminator 5
 480 0222 FFF7FEFF 		bl	UART_DEB_SpiUartGetTxBufferSize
 481 0226 011C     		mov	r1, r0
 482 0228 674B     		ldr	r3, .L44+64
 483 022a 1A68     		ldr	r2, [r3]
 484 022c 8023     		mov	r3, #128
 485 022e 1B02     		lsl	r3, r3, #8
 486 0230 1340     		and	r3, r2
 487 0232 01D0     		beq	.L37
 488              		.loc 1 134 0 discriminator 1
 489 0234 0123     		mov	r3, #1
 490 0236 00E0     		b	.L38
 491              	.L37:
 492              		.loc 1 134 0 discriminator 2
 493 0238 0023     		mov	r3, #0
 494              	.L38:
 495              		.loc 1 134 0 discriminator 4
 496 023a CB18     		add	r3, r1, r3
 497 023c 002B     		cmp	r3, #0
 498 023e F0D1     		bne	.L39
 135:main.c        ****             #endif /* (DEBUG_UART_ENABLED == ENABLED) */
 136:main.c        ****                 CySysPmHibernate();
ARM GAS  C:\Users\akita\AppData\Local\Temp\ccBSrbkH.s 			page 14


 499              		.loc 1 136 0 is_stmt 1
 500 0240 FFF7FEFF 		bl	CySysPmHibernate
 137:main.c        ****             }
 138:main.c        ****             break;
 501              		.loc 1 138 0
 502 0244 9DE0     		b	.L1
 503              	.L36:
 504              		.loc 1 138 0 is_stmt 0 discriminator 2
 505 0246 9CE0     		b	.L1
 506              	.L22:
 139:main.c        ****         case CYBLE_EVT_GAP_DEVICE_CONNECTED:
 140:main.c        ****             DBG_PRINTF("CYBLE_EVT_GAP_DEVICE_CONNECTED \r\n");
 507              		.loc 1 140 0 is_stmt 1
 508 0248 604B     		ldr	r3, .L44+68
 509 024a 181C     		mov	r0, r3
 510 024c FFF7FEFF 		bl	puts
 141:main.c        ****             int i;
 142:main.c        ****             for (i = 0; i < 5; i++){
 511              		.loc 1 142 0
 512 0250 0023     		mov	r3, #0
 513 0252 3B62     		str	r3, [r7, #32]
 514 0254 0EE0     		b	.L40
 515              	.L41:
 143:main.c        ****                 Advertising_LED_Write(LED_ON);
 516              		.loc 1 143 0 discriminator 3
 517 0256 0020     		mov	r0, #0
 518 0258 FFF7FEFF 		bl	Advertising_LED_Write
 144:main.c        ****                 CyDelay(100);
 519              		.loc 1 144 0 discriminator 3
 520 025c 6420     		mov	r0, #100
 521 025e FFF7FEFF 		bl	CyDelay
 145:main.c        ****                 Advertising_LED_Write(LED_OFF);
 522              		.loc 1 145 0 discriminator 3
 523 0262 0120     		mov	r0, #1
 524 0264 FFF7FEFF 		bl	Advertising_LED_Write
 146:main.c        ****                 CyDelay(100);
 525              		.loc 1 146 0 discriminator 3
 526 0268 6420     		mov	r0, #100
 527 026a FFF7FEFF 		bl	CyDelay
 142:main.c        ****                 Advertising_LED_Write(LED_ON);
 528              		.loc 1 142 0 discriminator 3
 529 026e 3B6A     		ldr	r3, [r7, #32]
 530 0270 0133     		add	r3, r3, #1
 531 0272 3B62     		str	r3, [r7, #32]
 532              	.L40:
 142:main.c        ****                 Advertising_LED_Write(LED_ON);
 533              		.loc 1 142 0 is_stmt 0 discriminator 1
 534 0274 3B6A     		ldr	r3, [r7, #32]
 535 0276 042B     		cmp	r3, #4
 536 0278 EDDD     		ble	.L41
 147:main.c        ****             }
 148:main.c        ****             Advertising_LED_Write(LED_OFF);
 537              		.loc 1 148 0 is_stmt 1
 538 027a 0120     		mov	r0, #1
 539 027c FFF7FEFF 		bl	Advertising_LED_Write
 149:main.c        ****             break;
 540              		.loc 1 149 0
ARM GAS  C:\Users\akita\AppData\Local\Temp\ccBSrbkH.s 			page 15


 541 0280 7FE0     		b	.L1
 542              	.L23:
 150:main.c        ****         case CYBLE_EVT_GAP_DEVICE_DISCONNECTED:
 151:main.c        ****             DBG_PRINTF("CYBLE_EVT_GAP_DEVICE_DISCONNECTED\r\n");
 543              		.loc 1 151 0
 544 0282 534B     		ldr	r3, .L44+72
 545 0284 181C     		mov	r0, r3
 546 0286 FFF7FEFF 		bl	puts
 152:main.c        ****             apiResult = CyBle_GappStartAdvertisement(CYBLE_ADVERTISING_FAST);
 547              		.loc 1 152 0
 548 028a 1E23     		mov	r3, #30
 549 028c FC18     		add	r4, r7, r3
 550 028e 0020     		mov	r0, #0
 551 0290 FFF7FEFF 		bl	CyBle_GappStartAdvertisement
 552 0294 031C     		mov	r3, r0
 553 0296 2380     		strh	r3, [r4]
 153:main.c        ****             if(apiResult != CYBLE_ERROR_OK)
 554              		.loc 1 153 0
 555 0298 1E23     		mov	r3, #30
 556 029a FB18     		add	r3, r7, r3
 557 029c 1B88     		ldrh	r3, [r3]
 558 029e 002B     		cmp	r3, #0
 559 02a0 08D0     		beq	.L42
 154:main.c        ****             {
 155:main.c        ****                 DBG_PRINTF("StartAdvertisement API Error: %d \r\n", apiResult);
 560              		.loc 1 155 0
 561 02a2 1E23     		mov	r3, #30
 562 02a4 FB18     		add	r3, r7, r3
 563 02a6 1B88     		ldrh	r3, [r3]
 564 02a8 374A     		ldr	r2, .L44
 565 02aa 101C     		mov	r0, r2
 566 02ac 191C     		mov	r1, r3
 567 02ae FFF7FEFF 		bl	printf
 156:main.c        ****             }
 157:main.c        ****             break;
 568              		.loc 1 157 0
 569 02b2 66E0     		b	.L1
 570              	.L42:
 571              		.loc 1 157 0 is_stmt 0 discriminator 3
 572 02b4 65E0     		b	.L1
 573              	.L29:
 574              	.LBB3:
 158:main.c        ****         case CYBLE_EVT_GATTS_XCNHG_MTU_REQ:
 159:main.c        ****             { 
 160:main.c        ****                 uint16 mtu;
 161:main.c        ****                 CyBle_GattGetMtuSize(&mtu);
 575              		.loc 1 161 0 is_stmt 1 discriminator 4
 576 02b6 0E23     		mov	r3, #14
 577 02b8 FB18     		add	r3, r7, r3
 578 02ba 181C     		mov	r0, r3
 579 02bc FFF7FEFF 		bl	CyBle_GattGetMtuSize
 162:main.c        ****                 DBG_PRINTF("CYBLE_EVT_GATTS_XCNHG_MTU_REQ, final mtu= %d \r\n", mtu);
 580              		.loc 1 162 0 discriminator 4
 581 02c0 0E23     		mov	r3, #14
 582 02c2 FB18     		add	r3, r7, r3
 583 02c4 1B88     		ldrh	r3, [r3]
 584 02c6 1A1C     		mov	r2, r3
ARM GAS  C:\Users\akita\AppData\Local\Temp\ccBSrbkH.s 			page 16


 585 02c8 424B     		ldr	r3, .L44+76
 586 02ca 181C     		mov	r0, r3
 587 02cc 111C     		mov	r1, r2
 588 02ce FFF7FEFF 		bl	printf
 589              	.LBE3:
 163:main.c        ****             }
 164:main.c        ****             break;
 590              		.loc 1 164 0 discriminator 4
 591 02d2 56E0     		b	.L1
 592              	.L26:
 165:main.c        ****         case CYBLE_EVT_GATTS_WRITE_REQ:
 166:main.c        ****             DBG_PRINTF("CYBLE_EVT_GATT_WRITE_REQ: %x = ",((CYBLE_GATTS_WRITE_REQ_PARAM_T *)eventPar
 593              		.loc 1 166 0
 594 02d4 3B68     		ldr	r3, [r7]
 595 02d6 9B89     		ldrh	r3, [r3, #12]
 596 02d8 1A1C     		mov	r2, r3
 597 02da 3F4B     		ldr	r3, .L44+80
 598 02dc 181C     		mov	r0, r3
 599 02de 111C     		mov	r1, r2
 600 02e0 FFF7FEFF 		bl	printf
 167:main.c        ****             ShowValue(&((CYBLE_GATTS_WRITE_REQ_PARAM_T *)eventParam)->handleValPair.value);
 601              		.loc 1 167 0
 602 02e4 3B68     		ldr	r3, [r7]
 603 02e6 0433     		add	r3, r3, #4
 604 02e8 181C     		mov	r0, r3
 605 02ea FFF7FEFF 		bl	ShowValue
 168:main.c        ****             (void)CyBle_GattsWriteRsp(((CYBLE_GATTS_WRITE_REQ_PARAM_T *)eventParam)->connHandle);
 606              		.loc 1 168 0
 607 02ee 3B68     		ldr	r3, [r7]
 608 02f0 1868     		ldr	r0, [r3]
 609 02f2 FFF7FEFF 		bl	CyBle_GattsWriteRsp
 169:main.c        ****             break;
 610              		.loc 1 169 0
 611 02f6 44E0     		b	.L1
 612              	.L20:
 170:main.c        ****         case CYBLE_EVT_GAP_ENCRYPT_CHANGE:
 171:main.c        ****             DBG_PRINTF("CYBLE_EVT_GAP_ENCRYPT_CHANGE: %x \r\n", *(uint8 *)eventParam);
 613              		.loc 1 171 0
 614 02f8 3B68     		ldr	r3, [r7]
 615 02fa 1B78     		ldrb	r3, [r3]
 616 02fc 1A1C     		mov	r2, r3
 617 02fe 374B     		ldr	r3, .L44+84
 618 0300 181C     		mov	r0, r3
 619 0302 111C     		mov	r1, r2
 620 0304 FFF7FEFF 		bl	printf
 172:main.c        ****             break;
 621              		.loc 1 172 0
 622 0308 3BE0     		b	.L1
 623              	.L24:
 173:main.c        ****         case CYBLE_EVT_GAPC_CONNECTION_UPDATE_COMPLETE:
 174:main.c        ****             DBG_PRINTF("CYBLE_EVT_CONNECTION_UPDATE_COMPLETE: %x \r\n", *(uint8 *)eventParam);
 624              		.loc 1 174 0
 625 030a 3B68     		ldr	r3, [r7]
 626 030c 1B78     		ldrb	r3, [r3]
 627 030e 1A1C     		mov	r2, r3
 628 0310 334B     		ldr	r3, .L44+88
 629 0312 181C     		mov	r0, r3
ARM GAS  C:\Users\akita\AppData\Local\Temp\ccBSrbkH.s 			page 17


 630 0314 111C     		mov	r1, r2
 631 0316 FFF7FEFF 		bl	printf
 175:main.c        ****             break;
 632              		.loc 1 175 0
 633 031a 32E0     		b	.L1
 634              	.L18:
 176:main.c        ****             
 177:main.c        ****         /**********************************************************
 178:main.c        ****         *                       GATT Events
 179:main.c        ****         ***********************************************************/
 180:main.c        ****         case CYBLE_EVT_GATT_CONNECT_IND:
 181:main.c        ****             DBG_PRINTF("CYBLE_EVT_GATT_CONNECT_IND: %x, %x \r\n", cyBle_connHandle.attId, cyBle_con
 635              		.loc 1 181 0
 636 031c 314B     		ldr	r3, .L44+92
 637 031e 5B78     		ldrb	r3, [r3, #1]
 638 0320 191C     		mov	r1, r3
 639 0322 304B     		ldr	r3, .L44+92
 640 0324 1B78     		ldrb	r3, [r3]
 641 0326 1A1C     		mov	r2, r3
 642 0328 2F4B     		ldr	r3, .L44+96
 643 032a 181C     		mov	r0, r3
 644 032c FFF7FEFF 		bl	printf
 182:main.c        ****             /* Register service specific callback functions */
 183:main.c        ****             HidsInit();
 645              		.loc 1 183 0
 646 0330 FFF7FEFF 		bl	HidsInit
 184:main.c        ****             BasInit();
 647              		.loc 1 184 0
 648 0334 FFF7FEFF 		bl	BasInit
 185:main.c        ****             ScpsInit();
 649              		.loc 1 185 0
 650 0338 FFF7FEFF 		bl	ScpsInit
 186:main.c        ****             break;
 651              		.loc 1 186 0
 652 033c 21E0     		b	.L1
 653              	.L28:
 187:main.c        ****         case CYBLE_EVT_GATT_DISCONNECT_IND:
 188:main.c        ****             DBG_PRINTF("CYBLE_EVT_GATT_DISCONNECT_IND \r\n");
 654              		.loc 1 188 0
 655 033e 2B4B     		ldr	r3, .L44+100
 656 0340 181C     		mov	r0, r3
 657 0342 FFF7FEFF 		bl	puts
 189:main.c        ****             fUpdate = 0;
 658              		.loc 1 189 0
 659 0346 2A4B     		ldr	r3, .L44+104
 660 0348 0022     		mov	r2, #0
 661 034a 1A70     		strb	r2, [r3]
 190:main.c        ****             Tconnect = 0;
 662              		.loc 1 190 0
 663 034c 294B     		ldr	r3, .L44+108
 664 034e 0022     		mov	r2, #0
 665 0350 1A60     		str	r2, [r3]
 191:main.c        ****             break;
 666              		.loc 1 191 0
 667 0352 16E0     		b	.L1
 668              	.L30:
 192:main.c        ****         case CYBLE_EVT_GATTS_READ_CHAR_VAL_ACCESS_REQ:
ARM GAS  C:\Users\akita\AppData\Local\Temp\ccBSrbkH.s 			page 18


 193:main.c        ****             /* Triggered on server side when client sends read request and when
 194:main.c        ****             * characteristic has CYBLE_GATT_DB_ATTR_CHAR_VAL_RD_EVENT property set.
 195:main.c        ****             * This event could be ignored by application unless it need to response
 196:main.c        ****             * by error response which needs to be set in gattErrorCode field of
 197:main.c        ****             * event parameter. */
 198:main.c        ****             DBG_PRINTF("CYBLE_EVT_GATTS_READ_CHAR_VAL_ACCESS_REQ: handle: %x \r\n", 
 669              		.loc 1 198 0
 670 0354 3B68     		ldr	r3, [r7]
 671 0356 5B88     		ldrh	r3, [r3, #2]
 672 0358 1A1C     		mov	r2, r3
 673 035a 274B     		ldr	r3, .L44+112
 674 035c 181C     		mov	r0, r3
 675 035e 111C     		mov	r1, r2
 676 0360 FFF7FEFF 		bl	printf
 199:main.c        ****                 ((CYBLE_GATTS_CHAR_VAL_READ_REQ_T *)eventParam)->attrHandle);
 200:main.c        ****             break;
 677              		.loc 1 200 0
 678 0364 0DE0     		b	.L1
 679              	.L31:
 201:main.c        ****             
 202:main.c        ****         /**********************************************************
 203:main.c        ****         *                       Other Events
 204:main.c        ****         ***********************************************************/
 205:main.c        **** 		case CYBLE_EVT_PENDING_FLASH_WRITE:
 206:main.c        ****             /* Inform application that flash write is pending. Stack internal data 
 207:main.c        ****             * structures are modified and require to be stored in Flash using 
 208:main.c        ****             * CyBle_StoreBondingData() */
 209:main.c        ****             DBG_PRINTF("CYBLE_EVT_PENDING_FLASH_WRITE\r\n");
 680              		.loc 1 209 0
 681 0366 254B     		ldr	r3, .L44+116
 682 0368 181C     		mov	r0, r3
 683 036a FFF7FEFF 		bl	puts
 210:main.c        ****             break;
 684              		.loc 1 210 0
 685 036e 08E0     		b	.L1
 686              	.L2:
 211:main.c        **** 
 212:main.c        ****         default:
 213:main.c        ****             DBG_PRINTF("OTHER event: %lx \r\n", event);
 687              		.loc 1 213 0
 688 0370 234A     		ldr	r2, .L44+120
 689 0372 7B68     		ldr	r3, [r7, #4]
 690 0374 101C     		mov	r0, r2
 691 0376 191C     		mov	r1, r3
 692 0378 FFF7FEFF 		bl	printf
 214:main.c        **** 			break;
 693              		.loc 1 214 0
 694 037c C046     		mov	r8, r8
 695 037e 00E0     		b	.L1
 696              	.L43:
  73:main.c        **** 		case CYBLE_EVT_HARDWARE_ERROR:    /* This event indicates that some internal HW error has occurre
 697              		.loc 1 73 0
 698 0380 C046     		mov	r8, r8
 699              	.L1:
 700              	.LBE2:
 215:main.c        **** 	}
 216:main.c        **** 
ARM GAS  C:\Users\akita\AppData\Local\Temp\ccBSrbkH.s 			page 19


 217:main.c        **** }
 701              		.loc 1 217 0
 702 0382 BD46     		mov	sp, r7
 703 0384 0AB0     		add	sp, sp, #40
 704              		@ sp needed
 705 0386 B0BD     		pop	{r4, r5, r7, pc}
 706              	.L45:
 707              		.align	2
 708              	.L44:
 709 0388 00000000 		.word	.LC0
 710 038c 24000000 		.word	.LC2
 711 0390 54000000 		.word	.LC4
 712 0394 5C000000 		.word	.LC6
 713 0398 60000000 		.word	.LC8
 714 039c 7C000000 		.word	.LC10
 715 03a0 A0000000 		.word	.LC12
 716 03a4 BC000000 		.word	.LC14
 717 03a8 00010000 		.word	.LC16
 718 03ac 40010000 		.word	.LC18
 719 03b0 6C010000 		.word	.LC20
 720 03b4 94010000 		.word	.LC22
 721 03b8 D8010000 		.word	.LC24
 722 03bc 00000000 		.word	cyBle_state
 723 03c0 F8010000 		.word	.LC27
 724 03c4 1C020000 		.word	.LC29
 725 03c8 08022440 		.word	1076101640
 726 03cc 28020000 		.word	.LC31
 727 03d0 4C020000 		.word	.LC33
 728 03d4 70020000 		.word	.LC35
 729 03d8 A0020000 		.word	.LC37
 730 03dc C0020000 		.word	.LC39
 731 03e0 E4020000 		.word	.LC41
 732 03e4 00000000 		.word	cyBle_connHandle
 733 03e8 10030000 		.word	.LC44
 734 03ec 38030000 		.word	.LC46
 735 03f0 00000000 		.word	fUpdate
 736 03f4 00000000 		.word	Tconnect
 737 03f8 58030000 		.word	.LC50
 738 03fc 90030000 		.word	.LC52
 739 0400 B0030000 		.word	.LC54
 740              		.cfi_endproc
 741              	.LFE37:
 742              		.size	AppCallBack, .-AppCallBack
 743              		.global	__aeabi_idivmod
 744              		.section	.rodata
 745              		.align	2
 746              	.LC63:
 747 03c4 546F6E3D 		.ascii	"Ton=%d Tconnect=%d\015\012\000"
 747      25642054 
 747      636F6E6E 
 747      6563743D 
 747      25640D0A 
 748              		.section	.text.Timer_Interrupt,"ax",%progbits
 749              		.align	2
 750              		.global	Timer_Interrupt
 751              		.code	16
 752              		.thumb_func
ARM GAS  C:\Users\akita\AppData\Local\Temp\ccBSrbkH.s 			page 20


 753              		.type	Timer_Interrupt, %function
 754              	Timer_Interrupt:
 755              	.LFB38:
 218:main.c        **** 
 219:main.c        **** /*******************************************************************************
 220:main.c        **** * Function Name: Timer_Interrupt
 221:main.c        **** ********************************************************************************
 222:main.c        **** *
 223:main.c        **** * Summary:
 224:main.c        **** *  Handles the Interrupt Service Routine for the WDT timer.
 225:main.c        **** *
 226:main.c        **** *******************************************************************************/
 227:main.c        **** CY_ISR(Timer_Interrupt)
 228:main.c        **** {
 756              		.loc 1 228 0
 757              		.cfi_startproc
 758 0000 80B5     		push	{r7, lr}
 759              		.cfi_def_cfa_offset 8
 760              		.cfi_offset 7, -8
 761              		.cfi_offset 14, -4
 762 0002 00AF     		add	r7, sp, #0
 763              		.cfi_def_cfa_register 7
 229:main.c        ****     if(CySysWdtGetInterruptSource() & WDT_INTERRUPT_SOURCE)
 764              		.loc 1 229 0
 765 0004 FFF7FEFF 		bl	CySysWdtGetInterruptSource
 766 0008 021C     		mov	r2, r0
 767 000a 8023     		mov	r3, #128
 768 000c DB00     		lsl	r3, r3, #3
 769 000e 1340     		and	r3, r2
 770 0010 25D0     		beq	.L47
 771              	.LBB4:
 230:main.c        ****     {
 231:main.c        ****         static uint8 led = LED_OFF;
 232:main.c        ****         static uint32 ledTimer = LED_TIMEOUT;
 233:main.c        ****     
 234:main.c        ****         /* Blink green LED to indicate that device advertises */
 235:main.c        ****         if(CyBle_GetState() == CYBLE_STATE_ADVERTISING)
 772              		.loc 1 235 0
 773 0012 264B     		ldr	r3, .L51
 774 0014 1B78     		ldrb	r3, [r3]
 775 0016 032B     		cmp	r3, #3
 776 0018 17D1     		bne	.L48
 236:main.c        ****         {
 237:main.c        ****             if(--ledTimer == 0u) 
 777              		.loc 1 237 0
 778 001a 254B     		ldr	r3, .L51+4
 779 001c 1B68     		ldr	r3, [r3]
 780 001e 5A1E     		sub	r2, r3, #1
 781 0020 234B     		ldr	r3, .L51+4
 782 0022 1A60     		str	r2, [r3]
 783 0024 224B     		ldr	r3, .L51+4
 784 0026 1B68     		ldr	r3, [r3]
 785 0028 002B     		cmp	r3, #0
 786 002a 0ED1     		bne	.L48
 238:main.c        ****             {
 239:main.c        ****                 ledTimer = LED_TIMEOUT;
 787              		.loc 1 239 0
ARM GAS  C:\Users\akita\AppData\Local\Temp\ccBSrbkH.s 			page 21


 788 002c 204B     		ldr	r3, .L51+4
 789 002e 0A22     		mov	r2, #10
 790 0030 1A60     		str	r2, [r3]
 240:main.c        ****                 led ^= LED_OFF;
 791              		.loc 1 240 0
 792 0032 204B     		ldr	r3, .L51+8
 793 0034 1B78     		ldrb	r3, [r3]
 794 0036 0122     		mov	r2, #1
 795 0038 5340     		eor	r3, r2
 796 003a DAB2     		uxtb	r2, r3
 797 003c 1D4B     		ldr	r3, .L51+8
 798 003e 1A70     		strb	r2, [r3]
 241:main.c        ****                 Advertising_LED_Write(led);
 799              		.loc 1 241 0
 800 0040 1C4B     		ldr	r3, .L51+8
 801 0042 1B78     		ldrb	r3, [r3]
 802 0044 181C     		mov	r0, r3
 803 0046 FFF7FEFF 		bl	Advertising_LED_Write
 804              	.L48:
 242:main.c        ****             }
 243:main.c        ****         }
 244:main.c        ****         
 245:main.c        ****         /* Indicate that timer is raised to the main loop */
 246:main.c        ****         mainTimer++;
 805              		.loc 1 246 0
 806 004a 1B4B     		ldr	r3, .L51+12
 807 004c 1B68     		ldr	r3, [r3]
 808 004e 5A1C     		add	r2, r3, #1
 809 0050 194B     		ldr	r3, .L51+12
 810 0052 1A60     		str	r2, [r3]
 247:main.c        ****         
 248:main.c        ****         /* Clears interrupt request  */
 249:main.c        ****         CySysWdtClearInterrupt(WDT_INTERRUPT_SOURCE);
 811              		.loc 1 249 0
 812 0054 8023     		mov	r3, #128
 813 0056 DB00     		lsl	r3, r3, #3
 814 0058 181C     		mov	r0, r3
 815 005a FFF7FEFF 		bl	CySysWdtClearInterrupt
 816              	.L47:
 817              	.LBE4:
 250:main.c        ****     }
 251:main.c        ****     Ton++;
 818              		.loc 1 251 0
 819 005e 174B     		ldr	r3, .L51+16
 820 0060 1B68     		ldr	r3, [r3]
 821 0062 5A1C     		add	r2, r3, #1
 822 0064 154B     		ldr	r3, .L51+16
 823 0066 1A60     		str	r2, [r3]
 252:main.c        ****     if ((CyBle_GetState() == CYBLE_STATE_CONNECTED) && fUpdate == 0)
 824              		.loc 1 252 0
 825 0068 104B     		ldr	r3, .L51
 826 006a 1B78     		ldrb	r3, [r3]
 827 006c 022B     		cmp	r3, #2
 828 006e 08D1     		bne	.L49
 829              		.loc 1 252 0 is_stmt 0 discriminator 1
 830 0070 134B     		ldr	r3, .L51+20
 831 0072 1B78     		ldrb	r3, [r3]
ARM GAS  C:\Users\akita\AppData\Local\Temp\ccBSrbkH.s 			page 22


 832 0074 002B     		cmp	r3, #0
 833 0076 04D1     		bne	.L49
 253:main.c        ****     {
 254:main.c        ****         Tconnect++;
 834              		.loc 1 254 0 is_stmt 1
 835 0078 124B     		ldr	r3, .L51+24
 836 007a 1B68     		ldr	r3, [r3]
 837 007c 5A1C     		add	r2, r3, #1
 838 007e 114B     		ldr	r3, .L51+24
 839 0080 1A60     		str	r2, [r3]
 840              	.L49:
 255:main.c        ****     }
 256:main.c        ****     if ((Ton % 10) == 0) DBG_PRINTF("Ton=%d Tconnect=%d\r\n", Ton, Tconnect);
 841              		.loc 1 256 0
 842 0082 0E4B     		ldr	r3, .L51+16
 843 0084 1B68     		ldr	r3, [r3]
 844 0086 181C     		mov	r0, r3
 845 0088 0A21     		mov	r1, #10
 846 008a FFF7FEFF 		bl	__aeabi_idivmod
 847 008e 0B1E     		sub	r3, r1, #0
 848 0090 09D1     		bne	.L46
 849              		.loc 1 256 0 is_stmt 0 discriminator 1
 850 0092 0A4B     		ldr	r3, .L51+16
 851 0094 1A68     		ldr	r2, [r3]
 852 0096 0B4B     		ldr	r3, .L51+24
 853 0098 1B68     		ldr	r3, [r3]
 854 009a 0B49     		ldr	r1, .L51+28
 855 009c 081C     		mov	r0, r1
 856 009e 111C     		mov	r1, r2
 857 00a0 1A1C     		mov	r2, r3
 858 00a2 FFF7FEFF 		bl	printf
 859              	.L46:
 257:main.c        **** }
 860              		.loc 1 257 0 is_stmt 1
 861 00a6 BD46     		mov	sp, r7
 862              		@ sp needed
 863 00a8 80BD     		pop	{r7, pc}
 864              	.L52:
 865 00aa C046     		.align	2
 866              	.L51:
 867 00ac 00000000 		.word	cyBle_state
 868 00b0 00000000 		.word	ledTimer.8353
 869 00b4 04000000 		.word	led.8352
 870 00b8 00000000 		.word	mainTimer
 871 00bc 00000000 		.word	Ton
 872 00c0 00000000 		.word	fUpdate
 873 00c4 00000000 		.word	Tconnect
 874 00c8 C4030000 		.word	.LC63
 875              		.cfi_endproc
 876              	.LFE38:
 877              		.size	Timer_Interrupt, .-Timer_Interrupt
 878              		.section	.text.WDT_Start,"ax",%progbits
 879              		.align	2
 880              		.global	WDT_Start
 881              		.code	16
 882              		.thumb_func
 883              		.type	WDT_Start, %function
ARM GAS  C:\Users\akita\AppData\Local\Temp\ccBSrbkH.s 			page 23


 884              	WDT_Start:
 885              	.LFB39:
 258:main.c        **** 
 259:main.c        **** /*******************************************************************************
 260:main.c        **** * Function Name: WDT_Start
 261:main.c        **** ********************************************************************************
 262:main.c        **** *
 263:main.c        **** * Summary:
 264:main.c        **** *  Configures WDT to trigger an interrupt.
 265:main.c        **** *
 266:main.c        **** *******************************************************************************/
 267:main.c        **** 
 268:main.c        **** void WDT_Start(void)
 269:main.c        **** {
 886              		.loc 1 269 0
 887              		.cfi_startproc
 888 0000 80B5     		push	{r7, lr}
 889              		.cfi_def_cfa_offset 8
 890              		.cfi_offset 7, -8
 891              		.cfi_offset 14, -4
 892 0002 00AF     		add	r7, sp, #0
 893              		.cfi_def_cfa_register 7
 270:main.c        ****     /* Unlock the WDT registers for modification */
 271:main.c        ****     CySysWdtUnlock(); 
 894              		.loc 1 271 0
 895 0004 FFF7FEFF 		bl	CySysWdtUnlock
 272:main.c        ****     /* Setup ISR */
 273:main.c        ****     WDT_Interrupt_StartEx(&Timer_Interrupt);
 896              		.loc 1 273 0
 897 0008 0E4B     		ldr	r3, .L54
 898 000a 181C     		mov	r0, r3
 899 000c FFF7FEFF 		bl	WDT_Interrupt_StartEx
 274:main.c        ****     /* Write the mode to generate interrupt on match */
 275:main.c        ****     CySysWdtWriteMode(WDT_COUNTER, CY_SYS_WDT_MODE_INT);
 900              		.loc 1 275 0
 901 0010 0120     		mov	r0, #1
 902 0012 0121     		mov	r1, #1
 903 0014 FFF7FEFF 		bl	CySysWdtSetMode
 276:main.c        ****     /* Configure the WDT counter clear on a match setting */
 277:main.c        ****     CySysWdtWriteClearOnMatch(WDT_COUNTER, WDT_COUNTER_ENABLE);
 904              		.loc 1 277 0
 905 0018 0120     		mov	r0, #1
 906 001a 0121     		mov	r1, #1
 907 001c FFF7FEFF 		bl	CySysWdtSetClearOnMatch
 278:main.c        ****     /* Configure the WDT counter match comparison value */
 279:main.c        ****     CySysWdtWriteMatch(WDT_COUNTER, WDT_TIMEOUT);
 908              		.loc 1 279 0
 909 0020 094B     		ldr	r3, .L54+4
 910 0022 0120     		mov	r0, #1
 911 0024 191C     		mov	r1, r3
 912 0026 FFF7FEFF 		bl	CySysWdtSetMatch
 280:main.c        ****     /* Reset WDT counter */
 281:main.c        ****     CySysWdtResetCounters(WDT_COUNTER);
 913              		.loc 1 281 0
 914 002a 0120     		mov	r0, #1
 915 002c FFF7FEFF 		bl	CySysWdtResetCounters
 282:main.c        ****     /* Enable the specified WDT counter */
ARM GAS  C:\Users\akita\AppData\Local\Temp\ccBSrbkH.s 			page 24


 283:main.c        ****     CySysWdtEnable(WDT_COUNTER_MASK);
 916              		.loc 1 283 0
 917 0030 8023     		mov	r3, #128
 918 0032 5B00     		lsl	r3, r3, #1
 919 0034 181C     		mov	r0, r3
 920 0036 FFF7FEFF 		bl	CySysWdtEnable
 284:main.c        ****     /* Lock out configuration changes to the Watchdog timer registers */
 285:main.c        ****     CySysWdtLock();    
 921              		.loc 1 285 0
 922 003a FFF7FEFF 		bl	CySysWdtLock
 286:main.c        **** }
 923              		.loc 1 286 0
 924 003e BD46     		mov	sp, r7
 925              		@ sp needed
 926 0040 80BD     		pop	{r7, pc}
 927              	.L55:
 928 0042 C046     		.align	2
 929              	.L54:
 930 0044 00000000 		.word	Timer_Interrupt
 931 0048 CC0C0000 		.word	3276
 932              		.cfi_endproc
 933              	.LFE39:
 934              		.size	WDT_Start, .-WDT_Start
 935              		.section	.text.WDT_Stop,"ax",%progbits
 936              		.align	2
 937              		.global	WDT_Stop
 938              		.code	16
 939              		.thumb_func
 940              		.type	WDT_Stop, %function
 941              	WDT_Stop:
 942              	.LFB40:
 287:main.c        **** 
 288:main.c        **** 
 289:main.c        **** /*******************************************************************************
 290:main.c        **** * Function Name: WDT_Stop
 291:main.c        **** ********************************************************************************
 292:main.c        **** *
 293:main.c        **** * Summary:
 294:main.c        **** *  This API stops the WDT timer.
 295:main.c        **** *
 296:main.c        **** *******************************************************************************/
 297:main.c        **** void WDT_Stop(void)
 298:main.c        **** {
 943              		.loc 1 298 0
 944              		.cfi_startproc
 945 0000 80B5     		push	{r7, lr}
 946              		.cfi_def_cfa_offset 8
 947              		.cfi_offset 7, -8
 948              		.cfi_offset 14, -4
 949 0002 00AF     		add	r7, sp, #0
 950              		.cfi_def_cfa_register 7
 299:main.c        ****     /* Unlock the WDT registers for modification */
 300:main.c        ****     CySysWdtUnlock(); 
 951              		.loc 1 300 0
 952 0004 FFF7FEFF 		bl	CySysWdtUnlock
 301:main.c        ****     /* Disable the specified WDT counter */
 302:main.c        ****     CySysWdtDisable(WDT_COUNTER_MASK);
ARM GAS  C:\Users\akita\AppData\Local\Temp\ccBSrbkH.s 			page 25


 953              		.loc 1 302 0
 954 0008 8023     		mov	r3, #128
 955 000a 5B00     		lsl	r3, r3, #1
 956 000c 181C     		mov	r0, r3
 957 000e FFF7FEFF 		bl	CySysWdtDisable
 303:main.c        ****     /* Locks out configuration changes to the Watchdog timer registers */
 304:main.c        ****     CySysWdtLock();    
 958              		.loc 1 304 0
 959 0012 FFF7FEFF 		bl	CySysWdtLock
 305:main.c        **** }
 960              		.loc 1 305 0
 961 0016 BD46     		mov	sp, r7
 962              		@ sp needed
 963 0018 80BD     		pop	{r7, pc}
 964              		.cfi_endproc
 965              	.LFE40:
 966              		.size	WDT_Stop, .-WDT_Stop
 967 001a C046     		.section	.text.LowPowerImplementation,"ax",%progbits
 968              		.align	2
 969              		.code	16
 970              		.thumb_func
 971              		.type	LowPowerImplementation, %function
 972              	LowPowerImplementation:
 973              	.LFB41:
 306:main.c        **** 
 307:main.c        **** /*******************************************************************************
 308:main.c        **** * Function Name: LowPowerImplementation()
 309:main.c        **** ********************************************************************************
 310:main.c        **** * Summary:
 311:main.c        **** * Implements low power in the project.
 312:main.c        **** *
 313:main.c        **** * Parameters:
 314:main.c        **** * None
 315:main.c        **** *
 316:main.c        **** * Return:
 317:main.c        **** * None
 318:main.c        **** *
 319:main.c        **** * Theory:
 320:main.c        **** * The function tries to enter deep sleep as much as possible - whenever the 
 321:main.c        **** * BLE is idle and the UART transmission/reception is not happening. At all other
 322:main.c        **** * times, the function tries to enter CPU sleep.
 323:main.c        **** *
 324:main.c        **** *******************************************************************************/
 325:main.c        **** static void LowPowerImplementation(void)
 326:main.c        **** {
 974              		.loc 1 326 0
 975              		.cfi_startproc
 976 0000 90B5     		push	{r4, r7, lr}
 977              		.cfi_def_cfa_offset 12
 978              		.cfi_offset 4, -12
 979              		.cfi_offset 7, -8
 980              		.cfi_offset 14, -4
 981 0002 83B0     		sub	sp, sp, #12
 982              		.cfi_def_cfa_offset 24
 983 0004 00AF     		add	r7, sp, #0
 984              		.cfi_def_cfa_register 7
 327:main.c        ****     CYBLE_LP_MODE_T bleMode;
ARM GAS  C:\Users\akita\AppData\Local\Temp\ccBSrbkH.s 			page 26


 328:main.c        ****     uint8 interruptStatus;
 329:main.c        ****     
 330:main.c        ****     /* For advertising and connected states, implement deep sleep 
 331:main.c        ****      * functionality to achieve low power in the system. For more details
 332:main.c        ****      * on the low power implementation, refer to the Low Power Application 
 333:main.c        ****      * Note.
 334:main.c        ****      */
 335:main.c        ****     if((CyBle_GetState() == CYBLE_STATE_ADVERTISING) || 
 985              		.loc 1 335 0
 986 0006 224B     		ldr	r3, .L67
 987 0008 1B78     		ldrb	r3, [r3]
 988 000a 032B     		cmp	r3, #3
 989 000c 03D0     		beq	.L58
 336:main.c        ****        (CyBle_GetState() == CYBLE_STATE_CONNECTED))
 990              		.loc 1 336 0 discriminator 1
 991 000e 204B     		ldr	r3, .L67
 992 0010 1B78     		ldrb	r3, [r3]
 335:main.c        ****        (CyBle_GetState() == CYBLE_STATE_CONNECTED))
 993              		.loc 1 335 0 discriminator 1
 994 0012 022B     		cmp	r3, #2
 995 0014 39D1     		bne	.L57
 996              	.L58:
 337:main.c        ****     {
 338:main.c        ****         /* Request BLE subsystem to enter into Deep-Sleep mode between connection and advertising i
 339:main.c        ****         bleMode = CyBle_EnterLPM(CYBLE_BLESS_DEEPSLEEP);
 997              		.loc 1 339 0
 998 0016 FC1D     		add	r4, r7, #7
 999 0018 0320     		mov	r0, #3
 1000 001a FFF7FEFF 		bl	CyBle_EnterLPM
 1001 001e 031C     		mov	r3, r0
 1002 0020 2370     		strb	r3, [r4]
 340:main.c        ****         /* Disable global interrupts */
 341:main.c        ****         interruptStatus = CyEnterCriticalSection();
 1003              		.loc 1 341 0
 1004 0022 BC1D     		add	r4, r7, #6
 1005 0024 FFF7FEFF 		bl	CyEnterCriticalSection
 1006 0028 031C     		mov	r3, r0
 1007 002a 2370     		strb	r3, [r4]
 342:main.c        ****         /* When BLE subsystem has been put into Deep-Sleep mode */
 343:main.c        ****         if(bleMode == CYBLE_BLESS_DEEPSLEEP)
 1008              		.loc 1 343 0
 1009 002c FB1D     		add	r3, r7, #7
 1010 002e 1B78     		ldrb	r3, [r3]
 1011 0030 032B     		cmp	r3, #3
 1012 0032 1ED1     		bne	.L60
 344:main.c        ****         {
 345:main.c        ****             /* And it is still there or ECO is on */
 346:main.c        ****             if((CyBle_GetBleSsState() == CYBLE_BLESS_STATE_ECO_ON) || 
 1013              		.loc 1 346 0
 1014 0034 FFF7FEFF 		bl	CyBle_GetBleSsState
 1015 0038 031E     		sub	r3, r0, #0
 1016 003a 042B     		cmp	r3, #4
 1017 003c 04D0     		beq	.L61
 347:main.c        ****                (CyBle_GetBleSsState() == CYBLE_BLESS_STATE_DEEPSLEEP))
 1018              		.loc 1 347 0 discriminator 1
 1019 003e FFF7FEFF 		bl	CyBle_GetBleSsState
 1020 0042 031E     		sub	r3, r0, #0
ARM GAS  C:\Users\akita\AppData\Local\Temp\ccBSrbkH.s 			page 27


 346:main.c        ****                (CyBle_GetBleSsState() == CYBLE_BLESS_STATE_DEEPSLEEP))
 1021              		.loc 1 346 0 discriminator 1
 1022 0044 062B     		cmp	r3, #6
 1023 0046 1BD1     		bne	.L66
 1024              	.L61:
 348:main.c        ****             {
 349:main.c        ****             #if (DEBUG_UART_ENABLED == ENABLED)
 350:main.c        ****                 /* Put the CPU into the Deep-Sleep mode when all debug information has been sent */
 351:main.c        ****                 if((UART_DEB_SpiUartGetTxBufferSize() + UART_DEB_GET_TX_FIFO_SR_VALID) == 0u)
 1025              		.loc 1 351 0
 1026 0048 FFF7FEFF 		bl	UART_DEB_SpiUartGetTxBufferSize
 1027 004c 011C     		mov	r1, r0
 1028 004e 114B     		ldr	r3, .L67+4
 1029 0050 1A68     		ldr	r2, [r3]
 1030 0052 8023     		mov	r3, #128
 1031 0054 1B02     		lsl	r3, r3, #8
 1032 0056 1340     		and	r3, r2
 1033 0058 01D0     		beq	.L63
 1034              		.loc 1 351 0 is_stmt 0 discriminator 1
 1035 005a 0123     		mov	r3, #1
 1036 005c 00E0     		b	.L64
 1037              	.L63:
 1038              		.loc 1 351 0 discriminator 2
 1039 005e 0023     		mov	r3, #0
 1040              	.L64:
 1041              		.loc 1 351 0 discriminator 4
 1042 0060 CB18     		add	r3, r1, r3
 1043 0062 002B     		cmp	r3, #0
 1044 0064 02D1     		bne	.L65
 352:main.c        ****                 {
 353:main.c        ****                     CySysPmDeepSleep();
 1045              		.loc 1 353 0 is_stmt 1
 1046 0066 FFF7FEFF 		bl	CySysPmDeepSleep
 1047 006a 09E0     		b	.L66
 1048              	.L65:
 354:main.c        ****                 }
 355:main.c        ****                 else /* Put the CPU into Sleep mode and let SCB to continue sending debug data */
 356:main.c        ****                 {
 357:main.c        ****                     CySysPmSleep();
 1049              		.loc 1 357 0
 1050 006c FFF7FEFF 		bl	CySysPmSleep
 1051 0070 06E0     		b	.L66
 1052              	.L60:
 358:main.c        ****                 }
 359:main.c        ****             #else
 360:main.c        ****                 CySysPmDeepSleep();
 361:main.c        ****             #endif /* (DEBUG_UART_ENABLED == ENABLED) */
 362:main.c        ****             }
 363:main.c        ****         }
 364:main.c        ****         else /* When BLE subsystem has been put into Sleep mode or is active */
 365:main.c        ****         {
 366:main.c        ****             /* And hardware doesn't finish Tx/Rx opeation - put the CPU into Sleep mode */
 367:main.c        ****             if(CyBle_GetBleSsState() != CYBLE_BLESS_STATE_EVENT_CLOSE)
 1053              		.loc 1 367 0
 1054 0072 FFF7FEFF 		bl	CyBle_GetBleSsState
 1055 0076 031E     		sub	r3, r0, #0
 1056 0078 022B     		cmp	r3, #2
ARM GAS  C:\Users\akita\AppData\Local\Temp\ccBSrbkH.s 			page 28


 1057 007a 01D0     		beq	.L66
 368:main.c        ****             {
 369:main.c        ****                 CySysPmSleep();
 1058              		.loc 1 369 0
 1059 007c FFF7FEFF 		bl	CySysPmSleep
 1060              	.L66:
 370:main.c        ****             }
 371:main.c        ****         }
 372:main.c        ****         /* Enable global interrupt */
 373:main.c        ****         CyExitCriticalSection(interruptStatus);
 1061              		.loc 1 373 0
 1062 0080 BB1D     		add	r3, r7, #6
 1063 0082 1B78     		ldrb	r3, [r3]
 1064 0084 181C     		mov	r0, r3
 1065 0086 FFF7FEFF 		bl	CyExitCriticalSection
 1066              	.L57:
 374:main.c        ****     }
 375:main.c        **** }
 1067              		.loc 1 375 0
 1068 008a BD46     		mov	sp, r7
 1069 008c 03B0     		add	sp, sp, #12
 1070              		@ sp needed
 1071 008e 90BD     		pop	{r4, r7, pc}
 1072              	.L68:
 1073              		.align	2
 1074              	.L67:
 1075 0090 00000000 		.word	cyBle_state
 1076 0094 08022440 		.word	1076101640
 1077              		.cfi_endproc
 1078              	.LFE41:
 1079              		.size	LowPowerImplementation, .-LowPowerImplementation
 1080              		.section	.rodata
 1081 03d9 000000   		.align	2
 1082              	.LC67:
 1083 03dc 424C4520 		.ascii	"BLE Presenter v1.6E\015\000"
 1083      50726573 
 1083      656E7465 
 1083      72207631 
 1083      2E36450D 
 1084 03f1 000000   		.align	2
 1085              	.LC71:
 1086 03f4 676F696E 		.ascii	"going to shutdown\000"
 1086      6720746F 
 1086      20736875 
 1086      74646F77 
 1086      6E00
 1087 0406 0000     		.align	2
 1088              	.LC73:
 1089 0408 646F6E65 		.ascii	"done\000"
 1089      00
 1090 040d 000000   		.align	2
 1091              	.LC77:
 1092 0410 73656E64 		.ascii	"sending L2CAP connectup update request...\015\000"
 1092      696E6720 
 1092      4C324341 
 1092      5020636F 
 1092      6E6E6563 
ARM GAS  C:\Users\akita\AppData\Local\Temp\ccBSrbkH.s 			page 29


 1093 043b 00       		.align	2
 1094              	.LC80:
 1095 043c 4379426C 		.ascii	"CyBle_L2capLeConnectionParamUpdateRequest OK\015\000"
 1095      655F4C32 
 1095      6361704C 
 1095      65436F6E 
 1095      6E656374 
 1096 046a 0000     		.align	2
 1097              	.LC82:
 1098 046c 4379426C 		.ascii	"CyBle_L2capLeConnectionParamUpdateRequest API Error"
 1098      655F4C32 
 1098      6361704C 
 1098      65436F6E 
 1098      6E656374 
 1099 049f 3A202578 		.ascii	": %x \015\012\000"
 1099      200D0A00 
 1100 04a7 00       		.align	2
 1101              	.LC89:
 1102 04a8 53746F72 		.ascii	"Store bonding data, status: %x \015\012\000"
 1102      6520626F 
 1102      6E64696E 
 1102      67206461 
 1102      74612C20 
 1103 04ca 0000     		.section	.text.main,"ax",%progbits
 1104              		.align	2
 1105              		.global	main
 1106              		.code	16
 1107              		.thumb_func
 1108              		.type	main, %function
 1109              	main:
 1110              	.LFB42:
 376:main.c        **** 
 377:main.c        **** 
 378:main.c        **** /*******************************************************************************
 379:main.c        **** * Function Name: main()
 380:main.c        **** ********************************************************************************
 381:main.c        **** * Summary:
 382:main.c        **** *  Main function for the project.
 383:main.c        **** *
 384:main.c        **** * Parameters:
 385:main.c        **** *  None
 386:main.c        **** *
 387:main.c        **** * Return:
 388:main.c        **** *  None
 389:main.c        **** *
 390:main.c        **** * Theory:
 391:main.c        **** *  The function starts BLE and UART components.
 392:main.c        **** *  This function process all BLE events and also implements the low power 
 393:main.c        **** *  functionality.
 394:main.c        **** *
 395:main.c        **** *******************************************************************************/
 396:main.c        **** int main()
 397:main.c        **** {
 1111              		.loc 1 397 0
 1112              		.cfi_startproc
 1113 0000 90B5     		push	{r4, r7, lr}
 1114              		.cfi_def_cfa_offset 12
ARM GAS  C:\Users\akita\AppData\Local\Temp\ccBSrbkH.s 			page 30


 1115              		.cfi_offset 4, -12
 1116              		.cfi_offset 7, -8
 1117              		.cfi_offset 14, -4
 1118 0002 85B0     		sub	sp, sp, #20
 1119              		.cfi_def_cfa_offset 32
 1120 0004 00AF     		add	r7, sp, #0
 1121              		.cfi_def_cfa_register 7
 398:main.c        ****     CyGlobalIntEnable;  
 1122              		.loc 1 398 0
 1123              	@ 398 "main.c" 1
 1124 0006 62B6     		CPSIE   i
 1125              	@ 0 "" 2
 399:main.c        **** 
 400:main.c        **** #if (DEBUG_UART_ENABLED == ENABLED)
 401:main.c        ****     UART_DEB_Start();
 1126              		.loc 1 401 0
 1127              		.code	16
 1128 0008 FFF7FEFF 		bl	UART_DEB_Start
 402:main.c        **** #endif /* (DEBUG_UART_ENABLED == ENABLED) */
 403:main.c        ****     DBG_PRINTF("BLE Presenter v1.6E\r\n");
 1129              		.loc 1 403 0
 1130 000c 554B     		ldr	r3, .L81
 1131 000e 181C     		mov	r0, r3
 1132 0010 FFF7FEFF 		bl	puts
 404:main.c        **** 
 405:main.c        ****     Disconnect_LED_Write(LED_OFF);
 1133              		.loc 1 405 0
 1134 0014 0120     		mov	r0, #1
 1135 0016 FFF7FEFF 		bl	Disconnect_LED_Write
 406:main.c        ****     Advertising_LED_Write(LED_OFF);
 1136              		.loc 1 406 0
 1137 001a 0120     		mov	r0, #1
 1138 001c FFF7FEFF 		bl	Advertising_LED_Write
 407:main.c        ****     CapsLock_LED_Write(LED_OFF);
 1139              		.loc 1 407 0
 1140 0020 0120     		mov	r0, #1
 1141 0022 FFF7FEFF 		bl	CapsLock_LED_Write
 408:main.c        **** 
 409:main.c        ****     /* Start CYBLE component and register generic event handler */
 410:main.c        ****     CyBle_Start(AppCallBack);
 1142              		.loc 1 410 0
 1143 0026 504B     		ldr	r3, .L81+4
 1144 0028 181C     		mov	r0, r3
 1145 002a FFF7FEFF 		bl	CyBle_Start
 411:main.c        ****         WDT_Start();
 1146              		.loc 1 411 0
 1147 002e FFF7FEFF 		bl	WDT_Start
 1148              	.L80:
 412:main.c        **** 
 413:main.c        **** #if (BAS_MEASURE_ENABLE != 0)
 414:main.c        ****     ADC_Start();
 415:main.c        **** #endif /* BAS_MEASURE_ENABLE != 0 */
 416:main.c        **** 
 417:main.c        ****     while(1) 
 418:main.c        ****     {           
 419:main.c        **** /*        
 420:main.c        ****         if(0u == SWMAIN_Read()){
ARM GAS  C:\Users\akita\AppData\Local\Temp\ccBSrbkH.s 			page 31


 421:main.c        ****             DBG_PRINTF("going to shut down");
 422:main.c        **** //            CySysPmStop();
 423:main.c        ****             CySysPmHibernate();
 424:main.c        ****             DBG_PRINTF("done");
 425:main.c        ****         }
 426:main.c        **** */
 427:main.c        **** 
 428:main.c        ****         if (Ton == 10 * 60 * 30){ // 30 min
 1149              		.loc 1 428 0
 1150 0032 4E4B     		ldr	r3, .L81+8
 1151 0034 1B68     		ldr	r3, [r3]
 1152 0036 4E4A     		ldr	r2, .L81+12
 1153 0038 9342     		cmp	r3, r2
 1154 003a 1ED1     		bne	.L70
 1155              	.LBB5:
 429:main.c        **** //        if (Ton == 10 * 60 * 10){ // 10 min
 430:main.c        **** //        if (Ton == 30 * 10){ // 30 sec
 431:main.c        ****             DBG_PRINTF("going to shutdown");
 1156              		.loc 1 431 0
 1157 003c 4D4B     		ldr	r3, .L81+16
 1158 003e 181C     		mov	r0, r3
 1159 0040 FFF7FEFF 		bl	printf
 432:main.c        ****             int i;
 433:main.c        ****             for (i = 0; i < 10; i++){
 1160              		.loc 1 433 0
 1161 0044 0023     		mov	r3, #0
 1162 0046 FB60     		str	r3, [r7, #12]
 1163 0048 0EE0     		b	.L71
 1164              	.L72:
 434:main.c        ****                 Advertising_LED_Write(0);
 1165              		.loc 1 434 0 discriminator 3
 1166 004a 0020     		mov	r0, #0
 1167 004c FFF7FEFF 		bl	Advertising_LED_Write
 435:main.c        ****                 CyDelay(10);
 1168              		.loc 1 435 0 discriminator 3
 1169 0050 0A20     		mov	r0, #10
 1170 0052 FFF7FEFF 		bl	CyDelay
 436:main.c        ****                 Advertising_LED_Write(1);
 1171              		.loc 1 436 0 discriminator 3
 1172 0056 0120     		mov	r0, #1
 1173 0058 FFF7FEFF 		bl	Advertising_LED_Write
 437:main.c        ****                 CyDelay(10);
 1174              		.loc 1 437 0 discriminator 3
 1175 005c 0A20     		mov	r0, #10
 1176 005e FFF7FEFF 		bl	CyDelay
 433:main.c        ****                 Advertising_LED_Write(0);
 1177              		.loc 1 433 0 discriminator 3
 1178 0062 FB68     		ldr	r3, [r7, #12]
 1179 0064 0133     		add	r3, r3, #1
 1180 0066 FB60     		str	r3, [r7, #12]
 1181              	.L71:
 433:main.c        ****                 Advertising_LED_Write(0);
 1182              		.loc 1 433 0 is_stmt 0 discriminator 1
 1183 0068 FB68     		ldr	r3, [r7, #12]
 1184 006a 092B     		cmp	r3, #9
 1185 006c EDDD     		ble	.L72
 438:main.c        ****             }
ARM GAS  C:\Users\akita\AppData\Local\Temp\ccBSrbkH.s 			page 32


 439:main.c        ****             CySysPmHibernate();
 1186              		.loc 1 439 0 is_stmt 1
 1187 006e FFF7FEFF 		bl	CySysPmHibernate
 440:main.c        ****             DBG_PRINTF("done");
 1188              		.loc 1 440 0
 1189 0072 414B     		ldr	r3, .L81+20
 1190 0074 181C     		mov	r0, r3
 1191 0076 FFF7FEFF 		bl	printf
 1192              	.L70:
 1193              	.LBE5:
 441:main.c        ****         }
 442:main.c        ****         
 443:main.c        ****         if (Tconnect > 10 * 10 && fUpdate == 0){
 1194              		.loc 1 443 0
 1195 007a 404B     		ldr	r3, .L81+24
 1196 007c 1B68     		ldr	r3, [r3]
 1197 007e 642B     		cmp	r3, #100
 1198 0080 34DD     		ble	.L73
 1199              		.loc 1 443 0 is_stmt 0 discriminator 1
 1200 0082 3F4B     		ldr	r3, .L81+28
 1201 0084 1B78     		ldrb	r3, [r3]
 1202 0086 002B     		cmp	r3, #0
 1203 0088 30D1     		bne	.L73
 1204              	.LBB6:
 444:main.c        ****             // 10sec after connection
 445:main.c        ****             DBG_PRINTF("sending L2CAP connectup update request...\r\n");
 1205              		.loc 1 445 0 is_stmt 1
 1206 008a 3E4B     		ldr	r3, .L81+32
 1207 008c 181C     		mov	r0, r3
 1208 008e FFF7FEFF 		bl	puts
 446:main.c        ****             CYBLE_GAP_CONN_UPDATE_PARAM_T connUpdateParam;
 447:main.c        ****             /* Send Connection Parameter Update Request to Client */
 448:main.c        ****             connUpdateParam.connIntvMin = CYBLE_GAPP_CONNECTION_INTERVAL_MIN;
 1209              		.loc 1 448 0
 1210 0092 3B1C     		mov	r3, r7
 1211 0094 1822     		mov	r2, #24
 1212 0096 1A80     		strh	r2, [r3]
 449:main.c        ****             connUpdateParam.connIntvMax = CYBLE_GAPP_CONNECTION_INTERVAL_MAX;
 1213              		.loc 1 449 0
 1214 0098 3B1C     		mov	r3, r7
 1215 009a 2822     		mov	r2, #40
 1216 009c 5A80     		strh	r2, [r3, #2]
 450:main.c        ****             connUpdateParam.connLatency = CYBLE_GAPP_CONNECTION_SLAVE_LATENCY;
 1217              		.loc 1 450 0
 1218 009e 3B1C     		mov	r3, r7
 1219 00a0 1922     		mov	r2, #25
 1220 00a2 9A80     		strh	r2, [r3, #4]
 451:main.c        ****             connUpdateParam.supervisionTO = CYBLE_GAPP_CONNECTION_TIME_OUT;
 1221              		.loc 1 451 0
 1222 00a4 3B1C     		mov	r3, r7
 1223 00a6 0622     		mov	r2, #6
 1224 00a8 FF32     		add	r2, r2, #255
 1225 00aa DA80     		strh	r2, [r3, #6]
 452:main.c        ****             CYBLE_API_RESULT_T apiResult;
 453:main.c        ****             apiResult = CyBle_L2capLeConnectionParamUpdateRequest(cyBle_connHandle.bdHandle, &connU
 1226              		.loc 1 453 0
 1227 00ac 364B     		ldr	r3, .L81+36
ARM GAS  C:\Users\akita\AppData\Local\Temp\ccBSrbkH.s 			page 33


 1228 00ae 1A78     		ldrb	r2, [r3]
 1229 00b0 0A23     		mov	r3, #10
 1230 00b2 FC18     		add	r4, r7, r3
 1231 00b4 3B1C     		mov	r3, r7
 1232 00b6 101C     		mov	r0, r2
 1233 00b8 191C     		mov	r1, r3
 1234 00ba FFF7FEFF 		bl	CyBle_L2capLeConnectionParamUpdateRequest
 1235 00be 031C     		mov	r3, r0
 1236 00c0 2380     		strh	r3, [r4]
 454:main.c        ****             if(apiResult == CYBLE_ERROR_OK)
 1237              		.loc 1 454 0
 1238 00c2 0A23     		mov	r3, #10
 1239 00c4 FB18     		add	r3, r7, r3
 1240 00c6 1B88     		ldrh	r3, [r3]
 1241 00c8 002B     		cmp	r3, #0
 1242 00ca 04D1     		bne	.L74
 455:main.c        ****             {
 456:main.c        ****                 DBG_PRINTF("CyBle_L2capLeConnectionParamUpdateRequest OK\r\n");
 1243              		.loc 1 456 0
 1244 00cc 2F4B     		ldr	r3, .L81+40
 1245 00ce 181C     		mov	r0, r3
 1246 00d0 FFF7FEFF 		bl	puts
 1247 00d4 07E0     		b	.L75
 1248              	.L74:
 457:main.c        ****             }
 458:main.c        ****             else
 459:main.c        ****             {
 460:main.c        ****                 DBG_PRINTF("CyBle_L2capLeConnectionParamUpdateRequest API Error: %x \r\n", apiResul
 1249              		.loc 1 460 0
 1250 00d6 0A23     		mov	r3, #10
 1251 00d8 FB18     		add	r3, r7, r3
 1252 00da 1B88     		ldrh	r3, [r3]
 1253 00dc 2C4A     		ldr	r2, .L81+44
 1254 00de 101C     		mov	r0, r2
 1255 00e0 191C     		mov	r1, r3
 1256 00e2 FFF7FEFF 		bl	printf
 1257              	.L75:
 461:main.c        ****             }
 462:main.c        ****             fUpdate = 1;
 1258              		.loc 1 462 0
 1259 00e6 264B     		ldr	r3, .L81+28
 1260 00e8 0122     		mov	r2, #1
 1261 00ea 1A70     		strb	r2, [r3]
 1262              	.L73:
 1263              	.LBE6:
 463:main.c        ****         }
 464:main.c        ****         /* CyBle_ProcessEvents() allows BLE stack to process pending events */
 465:main.c        ****         CyBle_ProcessEvents();
 1264              		.loc 1 465 0
 1265 00ec FFF7FEFF 		bl	CyBle_ProcessEvents
 466:main.c        **** 
 467:main.c        ****         /* To achieve low power in the device */
 468:main.c        ****         LowPowerImplementation();
 1266              		.loc 1 468 0
 1267 00f0 FFF7FEFF 		bl	LowPowerImplementation
 469:main.c        **** 
 470:main.c        ****         if((CyBle_GetState() == CYBLE_STATE_CONNECTED) && (suspend != CYBLE_HIDS_CP_SUSPEND))
ARM GAS  C:\Users\akita\AppData\Local\Temp\ccBSrbkH.s 			page 34


 1268              		.loc 1 470 0
 1269 00f4 274B     		ldr	r3, .L81+48
 1270 00f6 1B78     		ldrb	r3, [r3]
 1271 00f8 022B     		cmp	r3, #2
 1272 00fa 32D1     		bne	.L76
 1273              		.loc 1 470 0 is_stmt 0 discriminator 1
 1274 00fc 264B     		ldr	r3, .L81+52
 1275 00fe 1B78     		ldrb	r3, [r3]
 1276 0100 002B     		cmp	r3, #0
 1277 0102 2ED0     		beq	.L76
 471:main.c        ****         {            
 472:main.c        ****             
 473:main.c        ****             if(mainTimer != 0u)
 1278              		.loc 1 473 0 is_stmt 1
 1279 0104 254B     		ldr	r3, .L81+56
 1280 0106 1B68     		ldr	r3, [r3]
 1281 0108 002B     		cmp	r3, #0
 1282 010a 08D0     		beq	.L77
 474:main.c        ****             {
 475:main.c        ****                 mainTimer = 0u;                
 1283              		.loc 1 475 0
 1284 010c 234B     		ldr	r3, .L81+56
 1285 010e 0022     		mov	r2, #0
 1286 0110 1A60     		str	r2, [r3]
 476:main.c        ****             #if (BAS_SIMULATE_ENABLE != 0)
 477:main.c        ****                 SimulateBattery();
 478:main.c        ****                 CyBle_ProcessEvents();
 479:main.c        ****             #endif /* BAS_SIMULATE_ENABLE != 0 */    
 480:main.c        ****             #if (BAS_MEASURE_ENABLE != 0)
 481:main.c        ****                 MeasureBattery();
 482:main.c        ****                 CyBle_ProcessEvents();
 483:main.c        ****             #endif /* BAS_MEASURE_ENABLE != 0 */
 484:main.c        ****                 if(keyboardSimulation == ENABLED)
 1287              		.loc 1 484 0
 1288 0112 234B     		ldr	r3, .L81+60
 1289 0114 1B88     		ldrh	r3, [r3]
 1290 0116 012B     		cmp	r3, #1
 1291 0118 01D1     		bne	.L77
 485:main.c        ****                 {
 486:main.c        ****                     SimulateKeyboard();
 1292              		.loc 1 486 0
 1293 011a FFF7FEFF 		bl	SimulateKeyboard
 1294              	.L77:
 487:main.c        ****                 }
 488:main.c        ****             }
 489:main.c        ****             /* Store bonding data to flash only when all debug information has been sent */
 490:main.c        ****         #if(CYBLE_BONDING_REQUIREMENT == CYBLE_BONDING_YES)
 491:main.c        ****         #if (DEBUG_UART_ENABLED == ENABLED)
 492:main.c        ****             if((cyBle_pendingFlashWrite != 0u) &&
 1295              		.loc 1 492 0
 1296 011e 214B     		ldr	r3, .L81+64
 1297 0120 1B78     		ldrb	r3, [r3]
 1298 0122 002B     		cmp	r3, #0
 1299 0124 1DD0     		beq	.L76
 493:main.c        ****                ((UART_DEB_SpiUartGetTxBufferSize() + UART_DEB_GET_TX_FIFO_SR_VALID) == 0u))
 1300              		.loc 1 493 0
 1301 0126 FFF7FEFF 		bl	UART_DEB_SpiUartGetTxBufferSize
ARM GAS  C:\Users\akita\AppData\Local\Temp\ccBSrbkH.s 			page 35


 1302 012a 011C     		mov	r1, r0
 1303 012c 1E4B     		ldr	r3, .L81+68
 1304 012e 1A68     		ldr	r2, [r3]
 1305 0130 8023     		mov	r3, #128
 1306 0132 1B02     		lsl	r3, r3, #8
 1307 0134 1340     		and	r3, r2
 1308 0136 01D0     		beq	.L78
 1309              		.loc 1 493 0 is_stmt 0 discriminator 1
 1310 0138 0123     		mov	r3, #1
 1311 013a 00E0     		b	.L79
 1312              	.L78:
 1313              		.loc 1 493 0 discriminator 2
 1314 013c 0023     		mov	r3, #0
 1315              	.L79:
 1316              		.loc 1 493 0 discriminator 4
 1317 013e CB18     		add	r3, r1, r3
 492:main.c        ****                ((UART_DEB_SpiUartGetTxBufferSize() + UART_DEB_GET_TX_FIFO_SR_VALID) == 0u))
 1318              		.loc 1 492 0 is_stmt 1 discriminator 4
 1319 0140 002B     		cmp	r3, #0
 1320 0142 0ED1     		bne	.L76
 1321              	.LBB7:
 494:main.c        ****             
 495:main.c        ****         #else
 496:main.c        ****             if(cyBle_pendingFlashWrite != 0u)
 497:main.c        ****         #endif /* (DEBUG_UART_ENABLED == ENABLED) */
 498:main.c        ****             {
 499:main.c        ****                 CYBLE_API_RESULT_T apiResult;
 500:main.c        ****                 
 501:main.c        ****                 apiResult = CyBle_StoreBondingData(0u);
 1322              		.loc 1 501 0
 1323 0144 0823     		mov	r3, #8
 1324 0146 FC18     		add	r4, r7, r3
 1325 0148 0020     		mov	r0, #0
 1326 014a FFF7FEFF 		bl	CyBle_StoreBondingData
 1327 014e 031C     		mov	r3, r0
 1328 0150 2380     		strh	r3, [r4]
 502:main.c        ****                 (void)apiResult;
 503:main.c        ****                 DBG_PRINTF("Store bonding data, status: %x \r\n", apiResult);
 1329              		.loc 1 503 0
 1330 0152 0823     		mov	r3, #8
 1331 0154 FB18     		add	r3, r7, r3
 1332 0156 1B88     		ldrh	r3, [r3]
 1333 0158 144A     		ldr	r2, .L81+72
 1334 015a 101C     		mov	r0, r2
 1335 015c 191C     		mov	r1, r3
 1336 015e FFF7FEFF 		bl	printf
 1337              	.L76:
 1338              	.LBE7:
 504:main.c        ****             }
 505:main.c        ****         #endif /* CYBLE_BONDING_REQUIREMENT == CYBLE_BONDING_YES */    
 506:main.c        ****         }
 507:main.c        **** 	}   
 1339              		.loc 1 507 0
 1340 0162 66E7     		b	.L80
 1341              	.L82:
 1342              		.align	2
 1343              	.L81:
ARM GAS  C:\Users\akita\AppData\Local\Temp\ccBSrbkH.s 			page 36


 1344 0164 DC030000 		.word	.LC67
 1345 0168 00000000 		.word	AppCallBack
 1346 016c 00000000 		.word	Ton
 1347 0170 50460000 		.word	18000
 1348 0174 F4030000 		.word	.LC71
 1349 0178 08040000 		.word	.LC73
 1350 017c 00000000 		.word	Tconnect
 1351 0180 00000000 		.word	fUpdate
 1352 0184 10040000 		.word	.LC77
 1353 0188 00000000 		.word	cyBle_connHandle
 1354 018c 3C040000 		.word	.LC80
 1355 0190 6C040000 		.word	.LC82
 1356 0194 00000000 		.word	cyBle_state
 1357 0198 00000000 		.word	suspend
 1358 019c 00000000 		.word	mainTimer
 1359 01a0 00000000 		.word	keyboardSimulation
 1360 01a4 00000000 		.word	cyBle_pendingFlashWrite
 1361 01a8 08022440 		.word	1076101640
 1362 01ac A8040000 		.word	.LC89
 1363              		.cfi_endproc
 1364              	.LFE42:
 1365              		.size	main, .-main
 1366              		.data
 1367              		.align	2
 1368              		.type	ledTimer.8353, %object
 1369              		.size	ledTimer.8353, 4
 1370              	ledTimer.8353:
 1371 0000 0A000000 		.word	10
 1372              		.type	led.8352, %object
 1373              		.size	led.8352, 1
 1374              	led.8352:
 1375 0004 01       		.byte	1
 1376 0005 000000   		.text
 1377              	.Letext0:
 1378              		.file 2 "c:\\program files (x86)\\cypress\\psoc creator\\4.0\\psoc creator\\import\\gnu\\arm\\4.9.
 1379              		.file 3 "c:\\program files (x86)\\cypress\\psoc creator\\4.0\\psoc creator\\import\\gnu\\arm\\4.9.
 1380              		.file 4 "Generated_Source\\PSoC4/cytypes.h"
 1381              		.file 5 "Generated_Source\\PSoC4/BLE_Stack.h"
 1382              		.file 6 "Generated_Source\\PSoC4/BLE_StackGap.h"
 1383              		.file 7 "Generated_Source\\PSoC4/BLE_StackGatt.h"
 1384              		.file 8 "Generated_Source\\PSoC4/BLE_StackGattServer.h"
 1385              		.file 9 "Generated_Source\\PSoC4/BLE_dis.h"
 1386              		.file 10 "Generated_Source\\PSoC4/BLE_eventHandler.h"
 1387              		.file 11 "Generated_Source\\PSoC4/BLE.h"
 1388              		.file 12 "hids.h"