ARM GAS  C:\Users\akita\AppData\Local\Temp\ccQIfpWh.s 			page 1


   1              		.cpu cortex-m0
   2              		.fpu softvfp
   3              		.eabi_attribute 20, 1
   4              		.eabi_attribute 21, 1
   5              		.eabi_attribute 23, 3
   6              		.eabi_attribute 24, 1
   7              		.eabi_attribute 25, 1
   8              		.eabi_attribute 26, 1
   9              		.eabi_attribute 30, 6
  10              		.eabi_attribute 34, 0
  11              		.eabi_attribute 18, 4
  12              		.code	16
  13              		.file	"scps.c"
  14              		.text
  15              	.Ltext0:
  16              		.cfi_sections	.debug_frame
  17              		.global	requestScanRefresh
  18              		.bss
  19              		.align	1
  20              		.type	requestScanRefresh, %object
  21              		.size	requestScanRefresh, 2
  22              	requestScanRefresh:
  23 0000 0000     		.space	2
  24              		.global	scanInterval
  25              		.align	1
  26              		.type	scanInterval, %object
  27              		.size	scanInterval, 2
  28              	scanInterval:
  29 0002 0000     		.space	2
  30              		.global	scanWindow
  31              		.align	1
  32              		.type	scanWindow, %object
  33              		.size	scanWindow, 2
  34              	scanWindow:
  35 0004 0000     		.space	2
  36              		.section	.text.ScpsCallBack,"ax",%progbits
  37              		.align	2
  38              		.global	ScpsCallBack
  39              		.code	16
  40              		.thumb_func
  41              		.type	ScpsCallBack, %function
  42              	ScpsCallBack:
  43              	.LFB37:
  44              		.file 1 "scps.c"
   1:scps.c        **** /*******************************************************************************
   2:scps.c        **** * File Name: scps.c
   3:scps.c        **** *
   4:scps.c        **** * Version: 1.0
   5:scps.c        **** *
   6:scps.c        **** * Description:
   7:scps.c        **** *  This file contains SCPS callback handler function.
   8:scps.c        **** *
   9:scps.c        **** * Hardware Dependency:
  10:scps.c        **** *  CY8CKIT-042 BLE
  11:scps.c        **** * 
  12:scps.c        **** ********************************************************************************
  13:scps.c        **** * Copyright 2015, Cypress Semiconductor Corporation.  All rights reserved.
ARM GAS  C:\Users\akita\AppData\Local\Temp\ccQIfpWh.s 			page 2


  14:scps.c        **** * You may use this file only in accordance with the license, terms, conditions,
  15:scps.c        **** * disclaimers, and limitations in the end user license agreement accompanying
  16:scps.c        **** * the software package with which this file was provided.
  17:scps.c        **** *******************************************************************************/
  18:scps.c        **** 
  19:scps.c        **** #include "common.h"
  20:scps.c        **** #include "scps.h"
  21:scps.c        **** 
  22:scps.c        **** uint16 requestScanRefresh = 0u;
  23:scps.c        **** uint16 scanInterval = 0u;
  24:scps.c        **** uint16 scanWindow = 0u;
  25:scps.c        **** 
  26:scps.c        **** 
  27:scps.c        **** /*******************************************************************************
  28:scps.c        **** * Function Name: ScpsCallBack()
  29:scps.c        **** ********************************************************************************
  30:scps.c        **** *
  31:scps.c        **** * Summary:
  32:scps.c        **** *   This is an event callback function to receive service specific events from 
  33:scps.c        **** *   SCPS Service.
  34:scps.c        **** *
  35:scps.c        **** * Parameters:
  36:scps.c        **** *  event - the event code
  37:scps.c        **** *  *eventParam - the event parameters
  38:scps.c        **** *
  39:scps.c        **** * Return:
  40:scps.c        **** *  None.
  41:scps.c        **** *
  42:scps.c        **** ********************************************************************************/
  43:scps.c        **** void ScpsCallBack (uint32 event, void *eventParam)
  44:scps.c        **** {
  45              		.loc 1 44 0
  46              		.cfi_startproc
  47 0000 80B5     		push	{r7, lr}
  48              		.cfi_def_cfa_offset 8
  49              		.cfi_offset 7, -8
  50              		.cfi_offset 14, -4
  51 0002 82B0     		sub	sp, sp, #8
  52              		.cfi_def_cfa_offset 16
  53 0004 00AF     		add	r7, sp, #0
  54              		.cfi_def_cfa_register 7
  55 0006 7860     		str	r0, [r7, #4]
  56 0008 3960     		str	r1, [r7]
  45:scps.c        ****     DBG_PRINTF("SCPS event: %lx, ", event);
  46:scps.c        ****     switch(event)
  57              		.loc 1 46 0
  58 000a 7B68     		ldr	r3, [r7, #4]
  59 000c E93B     		sub	r3, r3, #233
  60 000e FF3B     		sub	r3, r3, #255
  61 0010 052B     		cmp	r3, #5
  62 0012 22D8     		bhi	.L11
  63 0014 9A00     		lsl	r2, r3, #2
  64 0016 144B     		ldr	r3, .L13
  65 0018 D318     		add	r3, r2, r3
  66 001a 1B68     		ldr	r3, [r3]
  67 001c 9F46     		mov	pc, r3
  68              		.section	.rodata
ARM GAS  C:\Users\akita\AppData\Local\Temp\ccQIfpWh.s 			page 3


  69              		.align	2
  70              	.L4:
  71 0000 1E000000 		.word	.L3
  72 0004 26000000 		.word	.L5
  73 0008 2E000000 		.word	.L6
  74 000c 5E000000 		.word	.L12
  75 0010 5E000000 		.word	.L12
  76 0014 5E000000 		.word	.L12
  77              		.section	.text.ScpsCallBack
  78              	.L3:
  47:scps.c        ****     {
  48:scps.c        ****         case CYBLE_EVT_SCPSS_NOTIFICATION_ENABLED:
  49:scps.c        ****             DBG_PRINTF("CYBLE_EVT_SCPSS_NOTIFICATION_ENABLED \r\n");
  50:scps.c        ****             requestScanRefresh = ENABLED;
  79              		.loc 1 50 0
  80 001e 134B     		ldr	r3, .L13+4
  81 0020 0122     		mov	r2, #1
  82 0022 1A80     		strh	r2, [r3]
  51:scps.c        ****             break;
  83              		.loc 1 51 0
  84 0024 1CE0     		b	.L1
  85              	.L5:
  52:scps.c        ****         case CYBLE_EVT_SCPSS_NOTIFICATION_DISABLED:
  53:scps.c        ****             DBG_PRINTF("CYBLE_EVT_SCPSS_NOTIFICATION_DISABLED \r\n");
  54:scps.c        ****             requestScanRefresh = DISABLED;
  86              		.loc 1 54 0
  87 0026 114B     		ldr	r3, .L13+4
  88 0028 0022     		mov	r2, #0
  89 002a 1A80     		strh	r2, [r3]
  55:scps.c        ****             break;
  90              		.loc 1 55 0
  91 002c 18E0     		b	.L1
  92              	.L6:
  56:scps.c        ****         case CYBLE_EVT_SCPSS_SCAN_INT_WIN_CHAR_WRITE:
  57:scps.c        ****             scanInterval = CyBle_Get16ByPtr(((CYBLE_SCPS_CHAR_VALUE_T *)eventParam)->value->val);
  93              		.loc 1 57 0
  94 002e 3B68     		ldr	r3, [r7]
  95 0030 5B68     		ldr	r3, [r3, #4]
  96 0032 1B68     		ldr	r3, [r3]
  97 0034 181C     		mov	r0, r3
  98 0036 FFF7FEFF 		bl	CyBle_Get16ByPtr
  99 003a 031C     		mov	r3, r0
 100 003c 1A1C     		mov	r2, r3
 101 003e 0C4B     		ldr	r3, .L13+8
 102 0040 1A80     		strh	r2, [r3]
  58:scps.c        ****             scanWindow = CyBle_Get16ByPtr(((CYBLE_SCPS_CHAR_VALUE_T *)eventParam)->value->val + siz
 103              		.loc 1 58 0
 104 0042 3B68     		ldr	r3, [r7]
 105 0044 5B68     		ldr	r3, [r3, #4]
 106 0046 1B68     		ldr	r3, [r3]
 107 0048 0233     		add	r3, r3, #2
 108 004a 181C     		mov	r0, r3
 109 004c FFF7FEFF 		bl	CyBle_Get16ByPtr
 110 0050 031C     		mov	r3, r0
 111 0052 1A1C     		mov	r2, r3
 112 0054 074B     		ldr	r3, .L13+12
 113 0056 1A80     		strh	r2, [r3]
ARM GAS  C:\Users\akita\AppData\Local\Temp\ccQIfpWh.s 			page 4


  59:scps.c        ****             DBG_PRINTF("CYBLE_EVT_SCPSS_SCAN_INT_WIN_CHAR_WRITE scanInterval: %x, scanWindow: %x \r
  60:scps.c        ****             break;
 114              		.loc 1 60 0
 115 0058 02E0     		b	.L1
 116              	.L11:
  61:scps.c        ****         case CYBLE_EVT_SCPSC_NOTIFICATION:
  62:scps.c        ****             break;
  63:scps.c        ****         case CYBLE_EVT_SCPSC_READ_DESCR_RESPONSE:
  64:scps.c        ****             break;
  65:scps.c        ****         case CYBLE_EVT_SCPSC_WRITE_DESCR_RESPONSE:
  66:scps.c        ****             break;
  67:scps.c        ****         default:
  68:scps.c        ****             DBG_PRINTF("Not supported event\r\n");
  69:scps.c        **** 			break;
 117              		.loc 1 69 0
 118 005a C046     		mov	r8, r8
 119 005c 00E0     		b	.L1
 120              	.L12:
  66:scps.c        ****         default:
 121              		.loc 1 66 0
 122 005e C046     		mov	r8, r8
 123              	.L1:
  70:scps.c        ****     }
  71:scps.c        **** }
 124              		.loc 1 71 0
 125 0060 BD46     		mov	sp, r7
 126 0062 02B0     		add	sp, sp, #8
 127              		@ sp needed
 128 0064 80BD     		pop	{r7, pc}
 129              	.L14:
 130 0066 C046     		.align	2
 131              	.L13:
 132 0068 00000000 		.word	.L4
 133 006c 00000000 		.word	requestScanRefresh
 134 0070 00000000 		.word	scanInterval
 135 0074 00000000 		.word	scanWindow
 136              		.cfi_endproc
 137              	.LFE37:
 138              		.size	ScpsCallBack, .-ScpsCallBack
 139              		.section	.text.ScpsInit,"ax",%progbits
 140              		.align	2
 141              		.global	ScpsInit
 142              		.code	16
 143              		.thumb_func
 144              		.type	ScpsInit, %function
 145              	ScpsInit:
 146              	.LFB38:
  72:scps.c        **** 
  73:scps.c        **** 
  74:scps.c        **** /*******************************************************************************
  75:scps.c        **** * Function Name: ScpsInit()
  76:scps.c        **** ********************************************************************************
  77:scps.c        **** *
  78:scps.c        **** * Summary:
  79:scps.c        **** *   Initializes the SCPS Service.
  80:scps.c        **** *
  81:scps.c        **** *******************************************************************************/
ARM GAS  C:\Users\akita\AppData\Local\Temp\ccQIfpWh.s 			page 5


  82:scps.c        **** void ScpsInit(void)
  83:scps.c        **** {
 147              		.loc 1 83 0
 148              		.cfi_startproc
 149 0000 90B5     		push	{r4, r7, lr}
 150              		.cfi_def_cfa_offset 12
 151              		.cfi_offset 4, -12
 152              		.cfi_offset 7, -8
 153              		.cfi_offset 14, -4
 154 0002 83B0     		sub	sp, sp, #12
 155              		.cfi_def_cfa_offset 24
 156 0004 00AF     		add	r7, sp, #0
 157              		.cfi_def_cfa_register 7
  84:scps.c        ****     CYBLE_API_RESULT_T apiResult;
  85:scps.c        ****     uint16 cccdValue;
  86:scps.c        ****     
  87:scps.c        ****     /* Register service specific callback function */
  88:scps.c        ****     CyBle_ScpsRegisterAttrCallback(ScpsCallBack);
 158              		.loc 1 88 0
 159 0006 0F4B     		ldr	r3, .L17
 160 0008 181C     		mov	r0, r3
 161 000a FFF7FEFF 		bl	CyBle_ScpsRegisterAttrCallback
  89:scps.c        **** 
  90:scps.c        ****     /* Read CCCD configurations from flash */
  91:scps.c        ****     apiResult = CyBle_ScpssGetCharacteristicDescriptor(CYBLE_SCPS_SCAN_REFRESH,
 162              		.loc 1 91 0
 163 000e BC1D     		add	r4, r7, #6
 164 0010 3B1D     		add	r3, r7, #4
 165 0012 0120     		mov	r0, #1
 166 0014 0021     		mov	r1, #0
 167 0016 0222     		mov	r2, #2
 168 0018 FFF7FEFF 		bl	CyBle_ScpssGetCharacteristicDescriptor
 169 001c 031C     		mov	r3, r0
 170 001e 2380     		strh	r3, [r4]
  92:scps.c        ****         CYBLE_SCPS_SCAN_REFRESH_CCCD, CYBLE_CCCD_LEN, (uint8 *)&cccdValue);
  93:scps.c        ****     if((apiResult == CYBLE_ERROR_OK) && (cccdValue != 0u))
 171              		.loc 1 93 0
 172 0020 BB1D     		add	r3, r7, #6
 173 0022 1B88     		ldrh	r3, [r3]
 174 0024 002B     		cmp	r3, #0
 175 0026 0AD1     		bne	.L15
 176              		.loc 1 93 0 is_stmt 0 discriminator 1
 177 0028 3B1D     		add	r3, r7, #4
 178 002a 1B88     		ldrh	r3, [r3]
 179 002c 002B     		cmp	r3, #0
 180 002e 06D0     		beq	.L15
  94:scps.c        ****     {
  95:scps.c        ****         requestScanRefresh |= ENABLED;
 181              		.loc 1 95 0 is_stmt 1
 182 0030 054B     		ldr	r3, .L17+4
 183 0032 1B88     		ldrh	r3, [r3]
 184 0034 0122     		mov	r2, #1
 185 0036 1343     		orr	r3, r2
 186 0038 9AB2     		uxth	r2, r3
 187 003a 034B     		ldr	r3, .L17+4
 188 003c 1A80     		strh	r2, [r3]
 189              	.L15:
ARM GAS  C:\Users\akita\AppData\Local\Temp\ccQIfpWh.s 			page 6


  96:scps.c        ****     }
  97:scps.c        **** }
 190              		.loc 1 97 0
 191 003e BD46     		mov	sp, r7
 192 0040 03B0     		add	sp, sp, #12
 193              		@ sp needed
 194 0042 90BD     		pop	{r4, r7, pc}
 195              	.L18:
 196              		.align	2
 197              	.L17:
 198 0044 00000000 		.word	ScpsCallBack
 199 0048 00000000 		.word	requestScanRefresh
 200              		.cfi_endproc
 201              	.LFE38:
 202              		.size	ScpsInit, .-ScpsInit
 203              		.text
 204              	.Letext0:
 205              		.file 2 "Generated_Source\\PSoC4/cytypes.h"
 206              		.file 3 "Generated_Source\\PSoC4/BLE_Stack.h"
 207              		.file 4 "Generated_Source\\PSoC4/BLE_StackGatt.h"
 208              		.file 5 "Generated_Source\\PSoC4/BLE_dis.h"
 209              		.file 6 "Generated_Source\\PSoC4/BLE_scps.h"
 210              		.file 7 "Generated_Source\\PSoC4/BLE_eventHandler.h"