ARM GAS  C:\Users\akita\AppData\Local\Temp\ccTFmJyh.s 			page 1


   1              		.cpu cortex-m0
   2              		.fpu softvfp
   3              		.eabi_attribute 20, 1
   4              		.eabi_attribute 21, 1
   5              		.eabi_attribute 23, 3
   6              		.eabi_attribute 24, 1
   7              		.eabi_attribute 25, 1
   8              		.eabi_attribute 26, 1
   9              		.eabi_attribute 30, 6
  10              		.eabi_attribute 34, 0
  11              		.eabi_attribute 18, 4
  12              		.code	16
  13              		.file	"CyLFClk.c"
  14              		.text
  15              	.Ltext0:
  16              		.cfi_sections	.debug_frame
  17              		.section	.text.CySysClkWcoSetHighPowerMode,"ax",%progbits
  18              		.align	2
  19              		.code	16
  20              		.thumb_func
  21              		.type	CySysClkWcoSetHighPowerMode, %function
  22              	CySysClkWcoSetHighPowerMode:
  23              	.LFB0:
  24              		.file 1 "Generated_Source\\PSoC4\\CyLFClk.h"
   1:Generated_Source\PSoC4/CyLFClk.h **** /***************************************************************************//**
   2:Generated_Source\PSoC4/CyLFClk.h **** * \file .h
   3:Generated_Source\PSoC4/CyLFClk.h **** * \version 1.10
   4:Generated_Source\PSoC4/CyLFClk.h **** *
   5:Generated_Source\PSoC4/CyLFClk.h **** * \brief
   6:Generated_Source\PSoC4/CyLFClk.h **** *  This file provides the source code to API for the lfclk and wdt.
   7:Generated_Source\PSoC4/CyLFClk.h **** *
   8:Generated_Source\PSoC4/CyLFClk.h **** ********************************************************************************
   9:Generated_Source\PSoC4/CyLFClk.h **** * \copyright
  10:Generated_Source\PSoC4/CyLFClk.h **** * Copyright 2008-2016, Cypress Semiconductor Corporation.  All rights reserved.
  11:Generated_Source\PSoC4/CyLFClk.h **** * You may use this file only in accordance with the license, terms, conditions,
  12:Generated_Source\PSoC4/CyLFClk.h **** * disclaimers, and limitations in the end user license agreement accompanying
  13:Generated_Source\PSoC4/CyLFClk.h **** * the software package with which this file was provided.
  14:Generated_Source\PSoC4/CyLFClk.h **** *******************************************************************************/
  15:Generated_Source\PSoC4/CyLFClk.h **** 
  16:Generated_Source\PSoC4/CyLFClk.h **** 
  17:Generated_Source\PSoC4/CyLFClk.h **** #if !defined(CY_LFCLK_CYLIB_H)
  18:Generated_Source\PSoC4/CyLFClk.h **** #define CY_LFCLK_CYLIB_H
  19:Generated_Source\PSoC4/CyLFClk.h **** 
  20:Generated_Source\PSoC4/CyLFClk.h **** #include "cytypes.h"
  21:Generated_Source\PSoC4/CyLFClk.h **** #include "cydevice_trm.h"
  22:Generated_Source\PSoC4/CyLFClk.h **** 
  23:Generated_Source\PSoC4/CyLFClk.h **** #define CY_IP_WCO_WDT_EN           (-1 == 1)
  24:Generated_Source\PSoC4/CyLFClk.h **** 
  25:Generated_Source\PSoC4/CyLFClk.h **** 
  26:Generated_Source\PSoC4/CyLFClk.h **** typedef enum
  27:Generated_Source\PSoC4/CyLFClk.h **** {
  28:Generated_Source\PSoC4/CyLFClk.h ****     CY_SYS_TIMER_WAIT = 0u,
  29:Generated_Source\PSoC4/CyLFClk.h ****     CY_SYS_TIMER_INTERRUPT = 1u
  30:Generated_Source\PSoC4/CyLFClk.h **** } cy_sys_timer_delaytype_enum;
  31:Generated_Source\PSoC4/CyLFClk.h **** 
  32:Generated_Source\PSoC4/CyLFClk.h **** 
  33:Generated_Source\PSoC4/CyLFClk.h **** /***************************************
ARM GAS  C:\Users\akita\AppData\Local\Temp\ccTFmJyh.s 			page 2


  34:Generated_Source\PSoC4/CyLFClk.h **** *    Function Prototypes
  35:Generated_Source\PSoC4/CyLFClk.h **** ***************************************/
  36:Generated_Source\PSoC4/CyLFClk.h **** /**
  37:Generated_Source\PSoC4/CyLFClk.h **** * \addtogroup group_general
  38:Generated_Source\PSoC4/CyLFClk.h **** * @{
  39:Generated_Source\PSoC4/CyLFClk.h **** */
  40:Generated_Source\PSoC4/CyLFClk.h **** /* Clocks API */
  41:Generated_Source\PSoC4/CyLFClk.h **** void CySysClkIloStart(void);
  42:Generated_Source\PSoC4/CyLFClk.h **** void CySysClkIloStop(void);
  43:Generated_Source\PSoC4/CyLFClk.h **** /** @} general */
  44:Generated_Source\PSoC4/CyLFClk.h **** 
  45:Generated_Source\PSoC4/CyLFClk.h **** /**
  46:Generated_Source\PSoC4/CyLFClk.h **** * \addtogroup group_compensate
  47:Generated_Source\PSoC4/CyLFClk.h **** * @{
  48:Generated_Source\PSoC4/CyLFClk.h **** */
  49:Generated_Source\PSoC4/CyLFClk.h **** cystatus CySysClkIloCompensate(uint32 desiredDelay, uint32 *compensatedCycles);
  50:Generated_Source\PSoC4/CyLFClk.h **** void CySysClkIloStartMeasurement(void);
  51:Generated_Source\PSoC4/CyLFClk.h **** void CySysClkIloStopMeasurement(void);
  52:Generated_Source\PSoC4/CyLFClk.h **** /** @} compensate */
  53:Generated_Source\PSoC4/CyLFClk.h **** 
  54:Generated_Source\PSoC4/CyLFClk.h **** #if(CY_IP_SRSSV2 && (!(CY_PSOC4_4100 || CY_PSOC4_4200)))
  55:Generated_Source\PSoC4/CyLFClk.h **** /**
  56:Generated_Source\PSoC4/CyLFClk.h **** * \addtogroup group_compensate
  57:Generated_Source\PSoC4/CyLFClk.h **** * @{
  58:Generated_Source\PSoC4/CyLFClk.h **** */
  59:Generated_Source\PSoC4/CyLFClk.h ****     cystatus CySysClkIloTrim(uint32 mode, int32 *iloAccuracyInPPT);
  60:Generated_Source\PSoC4/CyLFClk.h ****     cystatus CySysClkIloRestoreFactoryTrim(void);
  61:Generated_Source\PSoC4/CyLFClk.h **** /** @} compensate */
  62:Generated_Source\PSoC4/CyLFClk.h ****     cystatus CySysClkIloUpdateTrimReg(int32* iloAccuracyInPPT);
  63:Generated_Source\PSoC4/CyLFClk.h **** #endif /* (CY_IP_SRSSV2 && (!(CY_PSOC4_4100 || CY_PSOC4_4200))) */
  64:Generated_Source\PSoC4/CyLFClk.h **** 
  65:Generated_Source\PSoC4/CyLFClk.h **** #if(CY_IP_SRSSV2 && CY_IP_WCO)
  66:Generated_Source\PSoC4/CyLFClk.h **** /**
  67:Generated_Source\PSoC4/CyLFClk.h **** * \addtogroup group_general
  68:Generated_Source\PSoC4/CyLFClk.h **** * @{
  69:Generated_Source\PSoC4/CyLFClk.h **** */
  70:Generated_Source\PSoC4/CyLFClk.h ****     void CySysClkSetLfclkSource(uint32 source);
  71:Generated_Source\PSoC4/CyLFClk.h **** /** @} group_general */
  72:Generated_Source\PSoC4/CyLFClk.h **** #endif /* (CY_IP_SRSSV2 && CY_IP_WCO) */
  73:Generated_Source\PSoC4/CyLFClk.h **** 
  74:Generated_Source\PSoC4/CyLFClk.h **** #if (CY_IP_WCO)
  75:Generated_Source\PSoC4/CyLFClk.h **** /**
  76:Generated_Source\PSoC4/CyLFClk.h **** * \addtogroup group_wco
  77:Generated_Source\PSoC4/CyLFClk.h **** * @{
  78:Generated_Source\PSoC4/CyLFClk.h **** */
  79:Generated_Source\PSoC4/CyLFClk.h ****     void   CySysClkWcoStart(void);
  80:Generated_Source\PSoC4/CyLFClk.h ****     void   CySysClkWcoStop(void);
  81:Generated_Source\PSoC4/CyLFClk.h ****     uint32 CySysClkWcoSetPowerMode(uint32 mode);
  82:Generated_Source\PSoC4/CyLFClk.h ****     void CySysClkWcoClockOutSelect(uint32 clockSel);
  83:Generated_Source\PSoC4/CyLFClk.h **** /** @} wco */
  84:Generated_Source\PSoC4/CyLFClk.h ****     uint32 CySysClkWcoEnabled(void);
  85:Generated_Source\PSoC4/CyLFClk.h **** 
  86:Generated_Source\PSoC4/CyLFClk.h **** #endif /* (CY_IP_WCO) */
  87:Generated_Source\PSoC4/CyLFClk.h **** 
  88:Generated_Source\PSoC4/CyLFClk.h **** typedef void (*cyWdtCallback)(void);
  89:Generated_Source\PSoC4/CyLFClk.h **** 
  90:Generated_Source\PSoC4/CyLFClk.h **** #if (CY_IP_SRSSLT && CY_IP_WCO && CY_IP_WCO_WDT_EN)
ARM GAS  C:\Users\akita\AppData\Local\Temp\ccTFmJyh.s 			page 3


  91:Generated_Source\PSoC4/CyLFClk.h **** 
  92:Generated_Source\PSoC4/CyLFClk.h ****     typedef void (*cyTimerCallback)(void);
  93:Generated_Source\PSoC4/CyLFClk.h **** #endif /* (CY_IP_SRSSLT && CY_IP_WCO && CY_IP_WCO_WDT_EN) */
  94:Generated_Source\PSoC4/CyLFClk.h **** 
  95:Generated_Source\PSoC4/CyLFClk.h **** #if(CY_IP_SRSSV2)
  96:Generated_Source\PSoC4/CyLFClk.h **** /**
  97:Generated_Source\PSoC4/CyLFClk.h **** * \addtogroup group_wdtsrssv2
  98:Generated_Source\PSoC4/CyLFClk.h **** * @{
  99:Generated_Source\PSoC4/CyLFClk.h **** */
 100:Generated_Source\PSoC4/CyLFClk.h ****     /* WDT API */
 101:Generated_Source\PSoC4/CyLFClk.h ****     void   CySysWdtLock(void);
 102:Generated_Source\PSoC4/CyLFClk.h ****     void   CySysWdtUnlock(void);
 103:Generated_Source\PSoC4/CyLFClk.h ****     void   CySysWdtSetMode(uint32 counterNum, uint32 mode);
 104:Generated_Source\PSoC4/CyLFClk.h ****     uint32 CySysWdtGetMode(uint32 counterNum);
 105:Generated_Source\PSoC4/CyLFClk.h ****     uint32 CySysWdtGetEnabledStatus(uint32 counterNum);
 106:Generated_Source\PSoC4/CyLFClk.h ****     void   CySysWdtSetClearOnMatch(uint32 counterNum, uint32 enable);
 107:Generated_Source\PSoC4/CyLFClk.h ****     uint32 CySysWdtGetClearOnMatch(uint32 counterNum);
 108:Generated_Source\PSoC4/CyLFClk.h ****     void   CySysWdtEnable(uint32 counterMask);
 109:Generated_Source\PSoC4/CyLFClk.h ****     void   CySysWdtDisable(uint32 counterMask);
 110:Generated_Source\PSoC4/CyLFClk.h ****     void   CySysWdtSetCascade(uint32 cascadeMask);
 111:Generated_Source\PSoC4/CyLFClk.h ****     uint32 CySysWdtGetCascade(void);
 112:Generated_Source\PSoC4/CyLFClk.h ****     void   CySysWdtSetMatch(uint32 counterNum, uint32 match);
 113:Generated_Source\PSoC4/CyLFClk.h ****     void   CySysWdtSetToggleBit(uint32 bits);
 114:Generated_Source\PSoC4/CyLFClk.h ****     uint32 CySysWdtGetToggleBit(void);
 115:Generated_Source\PSoC4/CyLFClk.h ****     uint32 CySysWdtGetMatch(uint32 counterNum);
 116:Generated_Source\PSoC4/CyLFClk.h ****     uint32 CySysWdtGetCount(uint32 counterNum);
 117:Generated_Source\PSoC4/CyLFClk.h ****     uint32 CySysWdtGetInterruptSource(void);
 118:Generated_Source\PSoC4/CyLFClk.h ****     void   CySysWdtClearInterrupt(uint32 counterMask);
 119:Generated_Source\PSoC4/CyLFClk.h ****     void   CySysWdtResetCounters(uint32 countersMask);
 120:Generated_Source\PSoC4/CyLFClk.h ****     cyWdtCallback  CySysWdtSetInterruptCallback(uint32 counterNum, cyWdtCallback function);
 121:Generated_Source\PSoC4/CyLFClk.h ****     cyWdtCallback  CySysWdtGetInterruptCallback(uint32 counterNum);
 122:Generated_Source\PSoC4/CyLFClk.h ****     void   CySysTimerDelay(uint32 counterNum, cy_sys_timer_delaytype_enum delayType, uint32 delay);
 123:Generated_Source\PSoC4/CyLFClk.h ****     void   CySysTimerDelayUntilMatch(uint32 counterNum, cy_sys_timer_delaytype_enum delayType, uint
 124:Generated_Source\PSoC4/CyLFClk.h ****     void   CySysWatchdogFeed(uint32 counterNum);
 125:Generated_Source\PSoC4/CyLFClk.h ****     void   CySysWdtEnableCounterIsr(uint32 counterNum);
 126:Generated_Source\PSoC4/CyLFClk.h ****     void   CySysWdtDisableCounterIsr(uint32 counterNum);
 127:Generated_Source\PSoC4/CyLFClk.h ****     void   CySysWdtIsr(void);
 128:Generated_Source\PSoC4/CyLFClk.h **** /** @} wdtsrssv2 */
 129:Generated_Source\PSoC4/CyLFClk.h **** #else
 130:Generated_Source\PSoC4/CyLFClk.h **** /**
 131:Generated_Source\PSoC4/CyLFClk.h **** * \addtogroup group_wdtsrsslite
 132:Generated_Source\PSoC4/CyLFClk.h **** * @{
 133:Generated_Source\PSoC4/CyLFClk.h **** */
 134:Generated_Source\PSoC4/CyLFClk.h ****     /* WDT API */
 135:Generated_Source\PSoC4/CyLFClk.h ****     uint32 CySysWdtGetEnabledStatus(void);
 136:Generated_Source\PSoC4/CyLFClk.h ****     void   CySysWdtEnable(void);
 137:Generated_Source\PSoC4/CyLFClk.h ****     void   CySysWdtDisable(void);
 138:Generated_Source\PSoC4/CyLFClk.h ****     void   CySysWdtSetMatch(uint32 match);
 139:Generated_Source\PSoC4/CyLFClk.h ****     uint32 CySysWdtGetMatch(void);
 140:Generated_Source\PSoC4/CyLFClk.h ****     uint32 CySysWdtGetCount(void);
 141:Generated_Source\PSoC4/CyLFClk.h ****     void   CySysWdtSetIgnoreBits(uint32 bitsNum);
 142:Generated_Source\PSoC4/CyLFClk.h ****     uint32 CySysWdtGetIgnoreBits(void);
 143:Generated_Source\PSoC4/CyLFClk.h ****     void   CySysWdtClearInterrupt(void);
 144:Generated_Source\PSoC4/CyLFClk.h ****     void   CySysWdtMaskInterrupt(void);
 145:Generated_Source\PSoC4/CyLFClk.h ****     void   CySysWdtUnmaskInterrupt(void);
 146:Generated_Source\PSoC4/CyLFClk.h ****     cyWdtCallback CySysWdtSetInterruptCallback(cyWdtCallback function);
 147:Generated_Source\PSoC4/CyLFClk.h ****     cyWdtCallback CySysWdtGetInterruptCallback(void);
ARM GAS  C:\Users\akita\AppData\Local\Temp\ccTFmJyh.s 			page 4


 148:Generated_Source\PSoC4/CyLFClk.h ****     void   CySysWdtIsr(void);
 149:Generated_Source\PSoC4/CyLFClk.h **** /** @} wdtsrsslite*/
 150:Generated_Source\PSoC4/CyLFClk.h **** #endif  /* (CY_IP_SRSSV2) */
 151:Generated_Source\PSoC4/CyLFClk.h **** 
 152:Generated_Source\PSoC4/CyLFClk.h **** 
 153:Generated_Source\PSoC4/CyLFClk.h **** #if(CY_IP_SRSSLT && CY_IP_WCO && CY_IP_WCO_WDT_EN)
 154:Generated_Source\PSoC4/CyLFClk.h **** /**
 155:Generated_Source\PSoC4/CyLFClk.h **** * \addtogroup group_deepsleepwdt
 156:Generated_Source\PSoC4/CyLFClk.h **** * @{
 157:Generated_Source\PSoC4/CyLFClk.h **** */
 158:Generated_Source\PSoC4/CyLFClk.h ****     /* WCO WDT APIs */
 159:Generated_Source\PSoC4/CyLFClk.h ****     void   CySysClkSetTimerSource(uint32 source);
 160:Generated_Source\PSoC4/CyLFClk.h ****     void   CySysTimerSetMode(uint32 counterNum, uint32 mode);
 161:Generated_Source\PSoC4/CyLFClk.h ****     uint32 CySysTimerGetMode(uint32 counterNum);
 162:Generated_Source\PSoC4/CyLFClk.h ****     uint32 CySysTimerGetEnabledStatus(uint32 counterNum);
 163:Generated_Source\PSoC4/CyLFClk.h ****     void   CySysTimerSetClearOnMatch(uint32 counterNum, uint32 enable);
 164:Generated_Source\PSoC4/CyLFClk.h ****     uint32 CySysTimerGetClearOnMatch(uint32 counterNum);
 165:Generated_Source\PSoC4/CyLFClk.h ****     void   CySysTimerEnable(uint32 counterMask);
 166:Generated_Source\PSoC4/CyLFClk.h ****     void   CySysTimerDisable(uint32 counterMask);
 167:Generated_Source\PSoC4/CyLFClk.h ****     void   CySysTimerSetCascade(uint32 cascadeMask);
 168:Generated_Source\PSoC4/CyLFClk.h ****     uint32 CySysTimerGetCascade(void);
 169:Generated_Source\PSoC4/CyLFClk.h ****     void   CySysTimerSetMatch(uint32 counterNum, uint32 match);
 170:Generated_Source\PSoC4/CyLFClk.h ****     void   CySysTimerSetToggleBit(uint32 bits);
 171:Generated_Source\PSoC4/CyLFClk.h ****     uint32 CySysTimerGetToggleBit(void);
 172:Generated_Source\PSoC4/CyLFClk.h ****     uint32 CySysTimerGetMatch(uint32 counterNum);
 173:Generated_Source\PSoC4/CyLFClk.h ****     uint32 CySysTimerGetCount(uint32 counterNum);
 174:Generated_Source\PSoC4/CyLFClk.h ****     uint32 CySysTimerGetInterruptSource(void);
 175:Generated_Source\PSoC4/CyLFClk.h ****     void   CySysTimerClearInterrupt(uint32 counterMask);
 176:Generated_Source\PSoC4/CyLFClk.h ****     cyTimerCallback CySysTimerSetInterruptCallback(uint32 counterNum, cyTimerCallback function);
 177:Generated_Source\PSoC4/CyLFClk.h ****     cyTimerCallback CySysTimerGetInterruptCallback(uint32 counterNum);
 178:Generated_Source\PSoC4/CyLFClk.h ****     void   CySysTimerDelay(uint32 counterNum, cy_sys_timer_delaytype_enum delayType, uint32 delay);
 179:Generated_Source\PSoC4/CyLFClk.h ****     void   CySysTimerDelayUntilMatch(uint32 counterNum, cy_sys_timer_delaytype_enum delayType, uint
 180:Generated_Source\PSoC4/CyLFClk.h ****     void   CySysTimerResetCounters(uint32 countersMask);
 181:Generated_Source\PSoC4/CyLFClk.h ****     void   CySysTimerEnableIsr(uint32 counterNum);
 182:Generated_Source\PSoC4/CyLFClk.h ****     void   CySysTimerDisableIsr(uint32 counterNum);
 183:Generated_Source\PSoC4/CyLFClk.h ****     void   CySysTimerIsr(void);
 184:Generated_Source\PSoC4/CyLFClk.h **** /** @} deepsleepwdt */
 185:Generated_Source\PSoC4/CyLFClk.h **** #endif /* (CY_IP_SRSSLT && CY_IP_WCO && CY_IP_WCO_WDT_EN) */
 186:Generated_Source\PSoC4/CyLFClk.h **** 
 187:Generated_Source\PSoC4/CyLFClk.h **** 
 188:Generated_Source\PSoC4/CyLFClk.h **** /*******************************************************************************
 189:Generated_Source\PSoC4/CyLFClk.h **** * API Constants
 190:Generated_Source\PSoC4/CyLFClk.h **** *******************************************************************************/
 191:Generated_Source\PSoC4/CyLFClk.h **** #define CY_SYS_UINT16_MAX_VAL    (0xFFFFu)
 192:Generated_Source\PSoC4/CyLFClk.h **** 
 193:Generated_Source\PSoC4/CyLFClk.h **** 
 194:Generated_Source\PSoC4/CyLFClk.h **** /*******************************************************************************
 195:Generated_Source\PSoC4/CyLFClk.h **** * Clock API Constants
 196:Generated_Source\PSoC4/CyLFClk.h **** *******************************************************************************/
 197:Generated_Source\PSoC4/CyLFClk.h **** 
 198:Generated_Source\PSoC4/CyLFClk.h **** /* CySysClkIloStart()/CySysClkIloStop() - implementation definitions */
 199:Generated_Source\PSoC4/CyLFClk.h **** #define CY_SYS_CLK_ILO_CONFIG_ENABLE                    ((uint32)(( uint32 )0x01u << 31u))
 200:Generated_Source\PSoC4/CyLFClk.h **** #define CY_SYS_CLK_DFT_SELECT_DEFAULT_MASK              ((uint32)(( uint32 )0x0fu << 8u ))
 201:Generated_Source\PSoC4/CyLFClk.h **** 
 202:Generated_Source\PSoC4/CyLFClk.h **** /* CySysClkIloCompensate() - one ILO clock in uS multiplied on thousand */
 203:Generated_Source\PSoC4/CyLFClk.h **** #if (CY_IP_SRSSV2)
 204:Generated_Source\PSoC4/CyLFClk.h ****     #define CY_SYS_CLK_ILO_PERIOD_PPH                   ((uint32) (0x0C35u))
ARM GAS  C:\Users\akita\AppData\Local\Temp\ccTFmJyh.s 			page 5


 205:Generated_Source\PSoC4/CyLFClk.h **** #else
 206:Generated_Source\PSoC4/CyLFClk.h ****     #define CY_SYS_CLK_ILO_PERIOD_PPH                   ((uint32) (0x09C4u))
 207:Generated_Source\PSoC4/CyLFClk.h **** #endif /* (CY_IP_SRSSV2) */
 208:Generated_Source\PSoC4/CyLFClk.h **** 
 209:Generated_Source\PSoC4/CyLFClk.h **** /* CySysClkIloCompensate() - implementation definitions */
 210:Generated_Source\PSoC4/CyLFClk.h **** #define CY_SYS_CLK_ILO_CALIBR_COMPLETE_MASK             ((uint32)(( uint32 )0x01u << 31u))
 211:Generated_Source\PSoC4/CyLFClk.h **** #define CY_SYS_CLK_ILO_DFT_LSB_MASK                     ((uint32)(0x00000FFFu))
 212:Generated_Source\PSoC4/CyLFClk.h **** #define CY_SYS_CLK_TRIM_OR_COMP_STARTED                 (1u)
 213:Generated_Source\PSoC4/CyLFClk.h **** #define CY_SYS_CLK_TRIM_OR_COMP_FINISHED                (0u)
 214:Generated_Source\PSoC4/CyLFClk.h **** #define CY_SYS_CLK_COEF_PHUNDRED                        ((uint32) (0x64u))
 215:Generated_Source\PSoC4/CyLFClk.h **** #define CY_SYS_CLK_HALF_OF_CLOCK                        ((uint32) ((uint32) CY_SYS_CLK_ILO_PERIOD_P
 216:Generated_Source\PSoC4/CyLFClk.h **** 
 217:Generated_Source\PSoC4/CyLFClk.h **** /* CySysClkIloCompensate() - maximum value of desiredDelay argument */
 218:Generated_Source\PSoC4/CyLFClk.h **** #if (CY_IP_SRSSV2)
 219:Generated_Source\PSoC4/CyLFClk.h ****     #define CY_SYS_CLK_MAX_DELAY_US                     ((uint32) (0xEE6B2800u))
 220:Generated_Source\PSoC4/CyLFClk.h ****     #define CY_SYS_CLK_ILO_PERIOD                       ((uint32) (0x1Fu))
 221:Generated_Source\PSoC4/CyLFClk.h ****     #define CY_SYS_CLK_ILO_FREQ_2MSB                    ((uint32) 5u)
 222:Generated_Source\PSoC4/CyLFClk.h **** #else
 223:Generated_Source\PSoC4/CyLFClk.h ****     #define CY_SYS_CLK_MAX_DELAY_US                     ((uint32) (0x1E8480u))
 224:Generated_Source\PSoC4/CyLFClk.h ****     #define CY_SYS_CLK_ILO_FREQ_2MSB                    ((uint32) (0x28u ))
 225:Generated_Source\PSoC4/CyLFClk.h **** 
 226:Generated_Source\PSoC4/CyLFClk.h **** 
 227:Generated_Source\PSoC4/CyLFClk.h **** /**********************************************************************************
 228:Generated_Source\PSoC4/CyLFClk.h **** * CySysClkIloCompensate() - value to walk over oversamling in calculations with srsslite.
 229:Generated_Source\PSoC4/CyLFClk.h **** * The oversample can be obtained when ilo frequency in equal 80 KHz and desired clocks 
 230:Generated_Source\PSoC4/CyLFClk.h **** * are 80 000 clocks.
 231:Generated_Source\PSoC4/CyLFClk.h **** **********************************************************************************/
 232:Generated_Source\PSoC4/CyLFClk.h **** #define CY_SYS_CLK_MAX_LITE_NUMBER                     ((uint32) 53600u)
 233:Generated_Source\PSoC4/CyLFClk.h **** #endif /* (CY_IP_SRSSV2) */
 234:Generated_Source\PSoC4/CyLFClk.h **** 
 235:Generated_Source\PSoC4/CyLFClk.h **** #define CY_SYS_CLK_ILO_FREQ_3LSB                       ((uint32) (0x3E8u))
 236:Generated_Source\PSoC4/CyLFClk.h **** #define CY_SYS_CLK_DELAY_COUNTS_LIMIT                  ((uint32) (0xD160u))
 237:Generated_Source\PSoC4/CyLFClk.h **** #define CY_SYS_CLK_MIN_DELAY_US                        ((uint32) (0x64u))
 238:Generated_Source\PSoC4/CyLFClk.h **** 
 239:Generated_Source\PSoC4/CyLFClk.h **** /* CySysClkSetLfclkSource() - parameter definitions */
 240:Generated_Source\PSoC4/CyLFClk.h **** #if (CY_IP_SRSSV2 && CY_IP_WCO)
 241:Generated_Source\PSoC4/CyLFClk.h ****     #define CY_SYS_CLK_LFCLK_SRC_ILO                    (0u)                                  /**< 
 242:Generated_Source\PSoC4/CyLFClk.h ****     #define CY_SYS_CLK_LFCLK_SRC_WCO                    ((uint32)(( uint32 )0x01u << 30u))    /**< 
 243:Generated_Source\PSoC4/CyLFClk.h **** #endif /* (CY_IP_SRSSV2 && CY_IP_WCO) */
 244:Generated_Source\PSoC4/CyLFClk.h **** 
 245:Generated_Source\PSoC4/CyLFClk.h **** /* CySysClkSetLfclkSource() - implementation definitions */
 246:Generated_Source\PSoC4/CyLFClk.h **** #if (CY_IP_WCO)
 247:Generated_Source\PSoC4/CyLFClk.h ****     #define CY_SYS_CLK_LFCLK_SEL_MASK                   ((uint32)(( uint32 )0x03u << 30u))
 248:Generated_Source\PSoC4/CyLFClk.h **** #endif /* (CY_IP_WCO) */
 249:Generated_Source\PSoC4/CyLFClk.h **** 
 250:Generated_Source\PSoC4/CyLFClk.h **** /* CySysClkSetTimerSource() - implementation definitions */
 251:Generated_Source\PSoC4/CyLFClk.h **** #if (CY_IP_SRSSLT && CY_IP_WCO && CY_IP_WCO_WDT_EN)
 252:Generated_Source\PSoC4/CyLFClk.h ****     #define CY_SYS_CLK_TIMER_SEL_MASK                   ((uint32)(( uint32 )0x03u << 30u))
 253:Generated_Source\PSoC4/CyLFClk.h **** #endif /* (CY_IP_SRSSLT && CY_IP_WCO && CY_IP_WCO_WDT_EN) */
 254:Generated_Source\PSoC4/CyLFClk.h **** 
 255:Generated_Source\PSoC4/CyLFClk.h **** /* CySysClkSetTimerSource() - parameter definitions */
 256:Generated_Source\PSoC4/CyLFClk.h **** #if (CY_IP_SRSSLT && CY_IP_WCO && CY_IP_WCO_WDT_EN)
 257:Generated_Source\PSoC4/CyLFClk.h ****     #define CY_SYS_CLK_TIMER_SRC_ILO                (0u)                                  /**< Inte
 258:Generated_Source\PSoC4/CyLFClk.h ****     #define CY_SYS_CLK_TIMER_SRC_WCO                ((uint32)(( uint32 )0x01u << 30u))    /**< Low 
 259:Generated_Source\PSoC4/CyLFClk.h **** #endif /* (CY_IP_SRSSLT && CY_IP_WCO && CY_IP_WCO_WDT_EN) */
 260:Generated_Source\PSoC4/CyLFClk.h **** 
 261:Generated_Source\PSoC4/CyLFClk.h **** /* CySysClkWcoClockOutSelect() - parameter definitions */
ARM GAS  C:\Users\akita\AppData\Local\Temp\ccTFmJyh.s 			page 6


 262:Generated_Source\PSoC4/CyLFClk.h **** #if (CY_IP_WCO)
 263:Generated_Source\PSoC4/CyLFClk.h ****     #define CY_SYS_CLK_WCO_SEL_CRYSTAL                  (1u)    /**< Selects External crystal as WC
 264:Generated_Source\PSoC4/CyLFClk.h ****     #define CY_SYS_CLK_WCO_SEL_PIN                      (0u)    /**<Selects External clock input on
 265:Generated_Source\PSoC4/CyLFClk.h **** #endif /* (CY_IP_WCO) */
 266:Generated_Source\PSoC4/CyLFClk.h **** 
 267:Generated_Source\PSoC4/CyLFClk.h **** /* CySysClkWcoClockOutSelect() - implementation definitions */
 268:Generated_Source\PSoC4/CyLFClk.h **** #if (CY_IP_WCO)
 269:Generated_Source\PSoC4/CyLFClk.h ****     #define CY_SYS_CLK_WCO_SELECT_PIN_MASK              ((uint32)(( uint32 )0x01u << 2u))
 270:Generated_Source\PSoC4/CyLFClk.h ****     #define CY_SYS_CLK_WCO_SELECT_PIN_OFFSET            ((uint32) 0x02u)
 271:Generated_Source\PSoC4/CyLFClk.h **** #endif /* (CY_IP_WCO) */
 272:Generated_Source\PSoC4/CyLFClk.h **** 
 273:Generated_Source\PSoC4/CyLFClk.h **** /* CySysClkIloRestoreFactoryTrim() - implementation definitions */
 274:Generated_Source\PSoC4/CyLFClk.h **** #if (CY_IP_SRSSV2 && CY_IP_WCO && (!(CY_PSOC4_4100 || CY_PSOC4_4200)))
 275:Generated_Source\PSoC4/CyLFClk.h ****     #define CY_SYS_CLK_ILO_TRIM_DEFAULT_VALUE           ((uint8 )(0xF0u))
 276:Generated_Source\PSoC4/CyLFClk.h ****     #define CY_SYS_CLK_ILO_TRIM_DEFAULT_MASK            ((uint32)((uint32)0x01u << 3u))
 277:Generated_Source\PSoC4/CyLFClk.h ****     #define CY_SYS_CLK_ILO_TRIM_MASK                    ((uint32)(0x0Fu))
 278:Generated_Source\PSoC4/CyLFClk.h **** #endif /* (CY_IP_SRSSV2 && CY_IP_WCO && (!(CY_PSOC4_4100 || CY_PSOC4_4200))) */
 279:Generated_Source\PSoC4/CyLFClk.h **** 
 280:Generated_Source\PSoC4/CyLFClk.h **** /* CySysIloTrim() - parameter definitions and macros*/
 281:Generated_Source\PSoC4/CyLFClk.h **** #if (CY_IP_SRSSV2 && CY_IP_WCO && (!(CY_PSOC4_4100 || CY_PSOC4_4200)))
 282:Generated_Source\PSoC4/CyLFClk.h ****     #define CY_SYS_CLK_BLOCKING                         (0u)
 283:Generated_Source\PSoC4/CyLFClk.h ****     #define CY_SYS_CLK_NON_BLOCKING                     (1u)
 284:Generated_Source\PSoC4/CyLFClk.h ****     #define CY_SYS_CLK_PERTHOUSAND                      ((uint32) 0x000003E8u )
 285:Generated_Source\PSoC4/CyLFClk.h ****     #define CY_SYS_CLK_ABS_MACRO(x)                     ((0 > (x)) ? (-(x)) : (x))
 286:Generated_Source\PSoC4/CyLFClk.h ****     #define CY_SYS_CLK_ERROR_RANGE                      ((uint32) 0x38u)
 287:Generated_Source\PSoC4/CyLFClk.h ****     #define CY_SYS_CLK_TIMEOUT                          ((uint8 ) 0x05u)
 288:Generated_Source\PSoC4/CyLFClk.h **** 
 289:Generated_Source\PSoC4/CyLFClk.h ****     /* ILO error step is 7,37 % error range */
 290:Generated_Source\PSoC4/CyLFClk.h ****     #define CY_SYS_CLK_ERROR_STEP                       (( int32) 0x02E1u)
 291:Generated_Source\PSoC4/CyLFClk.h ****     #define CY_SYS_CLK_ERROR_COEF                       ((uint32) 0x0Au)
 292:Generated_Source\PSoC4/CyLFClk.h **** #endif /* (CY_IP_SRSSV2 && CY_IP_WCO && (!(CY_PSOC4_4100 || CY_PSOC4_4200))) */
 293:Generated_Source\PSoC4/CyLFClk.h **** 
 294:Generated_Source\PSoC4/CyLFClk.h **** #if (CY_IP_WCO)
 295:Generated_Source\PSoC4/CyLFClk.h ****     /* WCO Configuration Register */
 296:Generated_Source\PSoC4/CyLFClk.h ****     #define CY_SYS_CLK_WCO_CONFIG_LPM_EN                (( uint32 )(( uint32 )0x01u <<  0u))
 297:Generated_Source\PSoC4/CyLFClk.h ****     #define CY_SYS_CLK_WCO_CONFIG_LPM_AUTO              (( uint32 )(( uint32 )0x01u <<  1u))
 298:Generated_Source\PSoC4/CyLFClk.h ****     #define CY_SYS_CLK_WCO_CONFIG_LPM_ENABLE            (( uint32 )(( uint32 )0x01u << 31u))
 299:Generated_Source\PSoC4/CyLFClk.h **** 
 300:Generated_Source\PSoC4/CyLFClk.h ****     /* WCO Status Register */
 301:Generated_Source\PSoC4/CyLFClk.h ****     #define CY_SYS_CLK_WCO_STATUS_OUT_BLNK_A            (( uint32 )(( uint32 )0x01u <<  0u))
 302:Generated_Source\PSoC4/CyLFClk.h **** 
 303:Generated_Source\PSoC4/CyLFClk.h ****     /* WCO Trim Register */
 304:Generated_Source\PSoC4/CyLFClk.h ****     #define CY_SYS_CLK_WCO_TRIM_XGM_MASK                (( uint32 ) 0x07u)
 305:Generated_Source\PSoC4/CyLFClk.h ****     #define CY_SYS_CLK_WCO_TRIM_XGM_SHIFT               (( uint32 ) 0x00u)
 306:Generated_Source\PSoC4/CyLFClk.h **** 
 307:Generated_Source\PSoC4/CyLFClk.h ****     #define CY_SYS_CLK_WCO_TRIM_XGM_3370NA              (( uint32 ) 0x00u)
 308:Generated_Source\PSoC4/CyLFClk.h ****     #define CY_SYS_CLK_WCO_TRIM_XGM_2620NA              (( uint32 ) 0x01u)
 309:Generated_Source\PSoC4/CyLFClk.h ****     #define CY_SYS_CLK_WCO_TRIM_XGM_2250NA              (( uint32 ) 0x02u)
 310:Generated_Source\PSoC4/CyLFClk.h ****     #define CY_SYS_CLK_WCO_TRIM_XGM_1500NA              (( uint32 ) 0x03u)
 311:Generated_Source\PSoC4/CyLFClk.h ****     #define CY_SYS_CLK_WCO_TRIM_XGM_1870NA              (( uint32 ) 0x04u)
 312:Generated_Source\PSoC4/CyLFClk.h ****     #define CY_SYS_CLK_WCO_TRIM_XGM_1120NA              (( uint32 ) 0x05u)
 313:Generated_Source\PSoC4/CyLFClk.h ****     #define CY_SYS_CLK_WCO_TRIM_XGM_750NA               (( uint32 ) 0x06u)
 314:Generated_Source\PSoC4/CyLFClk.h ****     #define CY_SYS_CLK_WCO_TRIM_XGM_0NA                 (( uint32 ) 0x07u)
 315:Generated_Source\PSoC4/CyLFClk.h **** 
 316:Generated_Source\PSoC4/CyLFClk.h ****     #define CY_SYS_CLK_WCO_TRIM_GM_MASK                 (( uint32 )(( uint32 )0x03u << 4u))
 317:Generated_Source\PSoC4/CyLFClk.h ****     #define CY_SYS_CLK_WCO_TRIM_GM_SHIFT                (( uint32 ) 0x04u)
 318:Generated_Source\PSoC4/CyLFClk.h ****     #define CY_SYS_CLK_WCO_TRIM_GM_HPM                  (( uint32 ) 0x01u)
ARM GAS  C:\Users\akita\AppData\Local\Temp\ccTFmJyh.s 			page 7


 319:Generated_Source\PSoC4/CyLFClk.h ****     #define CY_SYS_CLK_WCO_TRIM_GM_LPM                  (( uint32 ) 0x02u)
 320:Generated_Source\PSoC4/CyLFClk.h **** #endif  /* (CY_IP_WCO) */
 321:Generated_Source\PSoC4/CyLFClk.h **** 
 322:Generated_Source\PSoC4/CyLFClk.h **** 
 323:Generated_Source\PSoC4/CyLFClk.h **** /*******************************************************************************
 324:Generated_Source\PSoC4/CyLFClk.h **** * WDT API Constants
 325:Generated_Source\PSoC4/CyLFClk.h **** *******************************************************************************/
 326:Generated_Source\PSoC4/CyLFClk.h **** #if(CY_IP_SRSSV2)
 327:Generated_Source\PSoC4/CyLFClk.h **** 
 328:Generated_Source\PSoC4/CyLFClk.h ****     #define CY_SYS_WDT_MODE_NONE                (0u)
 329:Generated_Source\PSoC4/CyLFClk.h ****     #define CY_SYS_WDT_MODE_INT                 (1u)
 330:Generated_Source\PSoC4/CyLFClk.h ****     #define CY_SYS_WDT_MODE_RESET               (2u)
 331:Generated_Source\PSoC4/CyLFClk.h ****     #define CY_SYS_WDT_MODE_INT_RESET           (3u)
 332:Generated_Source\PSoC4/CyLFClk.h **** 
 333:Generated_Source\PSoC4/CyLFClk.h ****     #define CY_SYS_WDT_COUNTER0_MASK            ((uint32)((uint32)0x01u))           /**< Counter 0 
 334:Generated_Source\PSoC4/CyLFClk.h ****     #define CY_SYS_WDT_COUNTER1_MASK            ((uint32)((uint32)0x01u << 8u))     /**< Counter 1 
 335:Generated_Source\PSoC4/CyLFClk.h ****     #define CY_SYS_WDT_COUNTER2_MASK            ((uint32)((uint32)0x01u << 16u))    /**< Counter 2 
 336:Generated_Source\PSoC4/CyLFClk.h **** 
 337:Generated_Source\PSoC4/CyLFClk.h ****     #define CY_SYS_WDT_CASCADE_NONE             ((uint32)0x00u)             /**< Neither */
 338:Generated_Source\PSoC4/CyLFClk.h ****     #define CY_SYS_WDT_CASCADE_01               ((uint32)0x01u << 3u)       /**< Cascade 01 */
 339:Generated_Source\PSoC4/CyLFClk.h ****     #define CY_SYS_WDT_CASCADE_12               ((uint32)0x01u << 11u)      /**< Cascade 12 */
 340:Generated_Source\PSoC4/CyLFClk.h **** 
 341:Generated_Source\PSoC4/CyLFClk.h ****     #define CY_SYS_WDT_COUNTER0_INT             ((uint32)0x01u << 2u)
 342:Generated_Source\PSoC4/CyLFClk.h ****     #define CY_SYS_WDT_COUNTER1_INT             ((uint32)0x01u << 10u)
 343:Generated_Source\PSoC4/CyLFClk.h ****     #define CY_SYS_WDT_COUNTER2_INT             ((uint32)0x01u << 18u)
 344:Generated_Source\PSoC4/CyLFClk.h **** 
 345:Generated_Source\PSoC4/CyLFClk.h ****     #define CY_SYS_WDT_COUNTER0_RESET           ((uint32)0x01u << 3u)       /**< Counter 0 */
 346:Generated_Source\PSoC4/CyLFClk.h ****     #define CY_SYS_WDT_COUNTER1_RESET           ((uint32)0x01u << 11u)      /**< Counter 1 */
 347:Generated_Source\PSoC4/CyLFClk.h ****     #define CY_SYS_WDT_COUNTER2_RESET           ((uint32)0x01u << 19u)      /**< Counter 2 */
 348:Generated_Source\PSoC4/CyLFClk.h **** 
 349:Generated_Source\PSoC4/CyLFClk.h ****     #define CY_SYS_WDT_COUNTERS_RESET           (CY_SYS_WDT_COUNTER0_RESET |\
 350:Generated_Source\PSoC4/CyLFClk.h ****                                                  CY_SYS_WDT_COUNTER1_RESET |\
 351:Generated_Source\PSoC4/CyLFClk.h ****                                                  CY_SYS_WDT_COUNTER2_RESET)
 352:Generated_Source\PSoC4/CyLFClk.h **** 
 353:Generated_Source\PSoC4/CyLFClk.h ****     #define CY_SYS_WDT_COUNTER0                 (0x00u)
 354:Generated_Source\PSoC4/CyLFClk.h ****     #define CY_SYS_WDT_COUNTER1                 (0x01u)
 355:Generated_Source\PSoC4/CyLFClk.h ****     #define CY_SYS_WDT_COUNTER2                 (0x02u)
 356:Generated_Source\PSoC4/CyLFClk.h **** 
 357:Generated_Source\PSoC4/CyLFClk.h ****     #define CY_SYS_WDT_COUNTER0_OFFSET          (0x00u)
 358:Generated_Source\PSoC4/CyLFClk.h ****     #define CY_SYS_WDT_COUNTER1_OFFSET          (0x02u)
 359:Generated_Source\PSoC4/CyLFClk.h ****     #define CY_SYS_WDT_COUNTER2_OFFSET          (0x04u)
 360:Generated_Source\PSoC4/CyLFClk.h **** 
 361:Generated_Source\PSoC4/CyLFClk.h ****     #define CY_SYS_WDT_MODE_MASK                ((uint32)(0x03u))
 362:Generated_Source\PSoC4/CyLFClk.h **** 
 363:Generated_Source\PSoC4/CyLFClk.h ****     #define CY_SYS_WDT_CONFIG_BITS2_MASK        (uint32)(0x1Fu)
 364:Generated_Source\PSoC4/CyLFClk.h ****     #define CY_SYS_WDT_CONFIG_BITS2_POS         (uint32)(24u)
 365:Generated_Source\PSoC4/CyLFClk.h ****     #define CY_SYS_WDT_LOWER_16BITS_MASK        (uint32)(0x0000FFFFu)
 366:Generated_Source\PSoC4/CyLFClk.h ****     #define CY_SYS_WDT_HIGHER_16BITS_MASK       (uint32)(0xFFFF0000u)
 367:Generated_Source\PSoC4/CyLFClk.h ****     #define CY_SYS_WDT_COUNTERS_MAX             (0x03u)
 368:Generated_Source\PSoC4/CyLFClk.h ****     #define CY_SYS_WDT_CNT_SHIFT                (0x08u)
 369:Generated_Source\PSoC4/CyLFClk.h ****     #define CY_SYS_WDT_CNT_MATCH_CLR_SHIFT      (0x02u)
 370:Generated_Source\PSoC4/CyLFClk.h ****     #define CY_SYS_WDT_CNT_STTS_SHIFT           (0x01u)
 371:Generated_Source\PSoC4/CyLFClk.h ****     #define CY_SYS_WDT_CNT_MATCH_SHIFT          (0x10u)
 372:Generated_Source\PSoC4/CyLFClk.h **** 
 373:Generated_Source\PSoC4/CyLFClk.h ****     #define CY_SYS_WDT_CLK_LOCK_BITS_MASK       ((uint32)0x03u << 14u)
 374:Generated_Source\PSoC4/CyLFClk.h ****     #define CY_SYS_WDT_CLK_LOCK_BIT0            ((uint32)0x01u << 14u)
 375:Generated_Source\PSoC4/CyLFClk.h ****     #define CY_SYS_WDT_CLK_LOCK_BIT1            ((uint32)0x01u << 15u)
ARM GAS  C:\Users\akita\AppData\Local\Temp\ccTFmJyh.s 			page 8


 376:Generated_Source\PSoC4/CyLFClk.h **** 
 377:Generated_Source\PSoC4/CyLFClk.h ****     #define CY_WDT_NUM_OF_WDT                   (3u)
 378:Generated_Source\PSoC4/CyLFClk.h ****     #define CY_WDT_NUM_OF_CALLBACKS             (3u)
 379:Generated_Source\PSoC4/CyLFClk.h **** 
 380:Generated_Source\PSoC4/CyLFClk.h ****     #else
 381:Generated_Source\PSoC4/CyLFClk.h ****         #define CY_WDT_NUM_OF_WDT               (1u)
 382:Generated_Source\PSoC4/CyLFClk.h ****         #define CY_WDT_NUM_OF_CALLBACKS         (3u)
 383:Generated_Source\PSoC4/CyLFClk.h ****         #define CY_SYS_WDT_KEY                  ((uint32)(0xACED8865u))
 384:Generated_Source\PSoC4/CyLFClk.h ****         #define CY_SYS_WDT_MATCH_MASK           ((uint32)(0x0000FFFFu))
 385:Generated_Source\PSoC4/CyLFClk.h ****         #define CY_SYS_WDT_IGNORE_BITS_MASK     ((uint32)(0x000F0000u))
 386:Generated_Source\PSoC4/CyLFClk.h ****         #define CY_SYS_WDT_IGNORE_BITS_SHIFT    ((uint32)(16u))
 387:Generated_Source\PSoC4/CyLFClk.h ****         #define CY_SYS_WDT_LOWER_BIT_MASK       ((uint32)(0x00000001u))
 388:Generated_Source\PSoC4/CyLFClk.h **** 
 389:Generated_Source\PSoC4/CyLFClk.h ****         #define CY_SYS_WDT_COUNTER0             (0x00u)
 390:Generated_Source\PSoC4/CyLFClk.h **** 
 391:Generated_Source\PSoC4/CyLFClk.h **** #endif /* (CY_IP_SRSSV2) */
 392:Generated_Source\PSoC4/CyLFClk.h **** 
 393:Generated_Source\PSoC4/CyLFClk.h **** #if (CY_IP_SRSSV2 && CY_IP_WCO)
 394:Generated_Source\PSoC4/CyLFClk.h ****     #define CY_SYS_WDT_1LFCLK_ILO_DELAY_US    ((uint16)( 67u))
 395:Generated_Source\PSoC4/CyLFClk.h ****     #define CY_SYS_WDT_3LFCLK_ILO_DELAY_US    ((uint16)(201u))
 396:Generated_Source\PSoC4/CyLFClk.h ****     #define CY_SYS_WDT_1LFCLK_WCO_DELAY_US    ((uint16)( 31u))
 397:Generated_Source\PSoC4/CyLFClk.h ****     #define CY_SYS_WDT_3LFCLK_WCO_DELAY_US    ((uint16)( 93u))
 398:Generated_Source\PSoC4/CyLFClk.h **** 
 399:Generated_Source\PSoC4/CyLFClk.h ****     #define CY_SYS_WDT_1LFCLK_DELAY_US      \
 400:Generated_Source\PSoC4/CyLFClk.h ****         ((CY_SYS_CLK_LFCLK_SRC_ILO == (CY_SYS_WDT_CONFIG_REG & CY_SYS_CLK_LFCLK_SEL_MASK)) ? \
 401:Generated_Source\PSoC4/CyLFClk.h ****                                             (CY_SYS_WDT_1LFCLK_ILO_DELAY_US) : \
 402:Generated_Source\PSoC4/CyLFClk.h ****                                             (CY_SYS_WDT_1LFCLK_WCO_DELAY_US))
 403:Generated_Source\PSoC4/CyLFClk.h **** 
 404:Generated_Source\PSoC4/CyLFClk.h ****     #define CY_SYS_WDT_3LFCLK_DELAY_US      \
 405:Generated_Source\PSoC4/CyLFClk.h ****         ((CY_SYS_CLK_LFCLK_SRC_ILO == (CY_SYS_WDT_CONFIG_REG & CY_SYS_CLK_LFCLK_SEL_MASK)) ? \
 406:Generated_Source\PSoC4/CyLFClk.h ****                                             (CY_SYS_WDT_3LFCLK_ILO_DELAY_US) : \
 407:Generated_Source\PSoC4/CyLFClk.h ****                                             (CY_SYS_WDT_3LFCLK_WCO_DELAY_US))
 408:Generated_Source\PSoC4/CyLFClk.h ****     #else
 409:Generated_Source\PSoC4/CyLFClk.h ****         #define CY_SYS_WDT_1LFCLK_DELAY_US      ((uint16)  (67u))
 410:Generated_Source\PSoC4/CyLFClk.h ****         #define CY_SYS_WDT_3LFCLK_DELAY_US      ((uint16) (201u))
 411:Generated_Source\PSoC4/CyLFClk.h **** #endif /* (CY_IP_SRSSV2 && !CY_IP_WCO) */
 412:Generated_Source\PSoC4/CyLFClk.h **** 
 413:Generated_Source\PSoC4/CyLFClk.h **** #if (CY_IP_SRSSLT && CY_IP_WCO && CY_IP_WCO_WDT_EN)
 414:Generated_Source\PSoC4/CyLFClk.h **** 
 415:Generated_Source\PSoC4/CyLFClk.h ****     #define CY_SYS_TIMER_MODE_NONE              (0u)
 416:Generated_Source\PSoC4/CyLFClk.h ****     #define CY_SYS_TIMER_MODE_INT               (1u)
 417:Generated_Source\PSoC4/CyLFClk.h **** 
 418:Generated_Source\PSoC4/CyLFClk.h ****     #define CY_SYS_TIMER0_MASK                  ((uint32)((uint32)0x01u))           /**< Counter 0 
 419:Generated_Source\PSoC4/CyLFClk.h ****     #define CY_SYS_TIMER1_MASK                  ((uint32)((uint32)0x01u << 8u))     /**< Counter 1 
 420:Generated_Source\PSoC4/CyLFClk.h ****     #define CY_SYS_TIMER2_MASK                  ((uint32)((uint32)0x01u << 16u))    /**< Counter 2 
 421:Generated_Source\PSoC4/CyLFClk.h **** 
 422:Generated_Source\PSoC4/CyLFClk.h ****     #define CY_SYS_TIMER0_RESET                 ((uint32)0x01u << 3u)       /**< Counter 0 */
 423:Generated_Source\PSoC4/CyLFClk.h ****     #define CY_SYS_TIMER1_RESET                 ((uint32)0x01u << 11u)      /**< Counter 1 */
 424:Generated_Source\PSoC4/CyLFClk.h ****     #define CY_SYS_TIMER2_RESET                 ((uint32)0x01u << 19u)      /**< Counter 2 */
 425:Generated_Source\PSoC4/CyLFClk.h **** 
 426:Generated_Source\PSoC4/CyLFClk.h ****     #define CY_SYS_TIMER_RESET                  (CY_SYS_TIMER0_RESET |\
 427:Generated_Source\PSoC4/CyLFClk.h ****                                                  CY_SYS_TIMER1_RESET |\
 428:Generated_Source\PSoC4/CyLFClk.h ****                                                  CY_SYS_TIMER2_RESET)
 429:Generated_Source\PSoC4/CyLFClk.h **** 
 430:Generated_Source\PSoC4/CyLFClk.h ****     #define CY_SYS_TIMER_CASCADE_NONE           ((uint32)0x00u)             /**< Neither */
 431:Generated_Source\PSoC4/CyLFClk.h ****     #define CY_SYS_TIMER_CASCADE_01             ((uint32)0x01u << 3u)       /**< Cascade 01 */
 432:Generated_Source\PSoC4/CyLFClk.h ****     #define CY_SYS_TIMER_CASCADE_12             ((uint32)0x01u << 11u)      /**< Cascade 12 */
ARM GAS  C:\Users\akita\AppData\Local\Temp\ccTFmJyh.s 			page 9


 433:Generated_Source\PSoC4/CyLFClk.h **** 
 434:Generated_Source\PSoC4/CyLFClk.h ****     #define CY_SYS_TIMER0_INT                   ((uint32)0x01u << 2u)
 435:Generated_Source\PSoC4/CyLFClk.h ****     #define CY_SYS_TIMER1_INT                   ((uint32)0x01u << 10u)
 436:Generated_Source\PSoC4/CyLFClk.h ****     #define CY_SYS_TIMER2_INT                   ((uint32)0x01u << 18u)
 437:Generated_Source\PSoC4/CyLFClk.h **** 
 438:Generated_Source\PSoC4/CyLFClk.h ****     #define CY_SYS_TIMER0                       (0x00u)
 439:Generated_Source\PSoC4/CyLFClk.h ****     #define CY_SYS_TIMER1                       (0x01u)
 440:Generated_Source\PSoC4/CyLFClk.h ****     #define CY_SYS_TIMER2                       (0x02u)
 441:Generated_Source\PSoC4/CyLFClk.h **** 
 442:Generated_Source\PSoC4/CyLFClk.h ****     #define CY_SYS_TIMER_MODE_MASK              ((uint32)(0x01u))
 443:Generated_Source\PSoC4/CyLFClk.h **** 
 444:Generated_Source\PSoC4/CyLFClk.h ****     #define CY_SYS_TIMER_CONFIG_BITS2_MASK      (uint32)(0x1Fu)
 445:Generated_Source\PSoC4/CyLFClk.h ****     #define CY_SYS_TIMER_CONFIG_BITS2_POS       (uint32)(24u)
 446:Generated_Source\PSoC4/CyLFClk.h ****     #define CY_SYS_TIMER_LOWER_16BITS_MASK      (uint32)(0x0000FFFFu)
 447:Generated_Source\PSoC4/CyLFClk.h ****     #define CY_SYS_TIMER_HIGHER_16BITS_MASK     (uint32)(0xFFFF0000u)
 448:Generated_Source\PSoC4/CyLFClk.h ****     #define CY_SYS_TIMER_COUNTERS_MAX           (0x03u)
 449:Generated_Source\PSoC4/CyLFClk.h ****     #define CY_SYS_TIMER_CNT_SHIFT              (0x08u)
 450:Generated_Source\PSoC4/CyLFClk.h ****     #define CY_SYS_TIMER_CNT_MATCH_CLR_SHIFT    (0x02u)
 451:Generated_Source\PSoC4/CyLFClk.h ****     #define CY_SYS_TIMER_CNT_STTS_SHIFT         (0x01u)
 452:Generated_Source\PSoC4/CyLFClk.h ****     #define CY_SYS_TIMER_CNT_MATCH_SHIFT        (0x10u)
 453:Generated_Source\PSoC4/CyLFClk.h **** 
 454:Generated_Source\PSoC4/CyLFClk.h ****     #define CY_SYS_NUM_OF_TIMERS                (3u)
 455:Generated_Source\PSoC4/CyLFClk.h **** 
 456:Generated_Source\PSoC4/CyLFClk.h ****     #define CY_SYS_SET_NEW_TIMER_SOURCE_ILO     ((uint16)(0x02u))
 457:Generated_Source\PSoC4/CyLFClk.h ****     #define CY_SYS_SET_NEW_TIMER_SOURCE_WCO     ((uint16)(0x01u))
 458:Generated_Source\PSoC4/CyLFClk.h ****     #define CY_SYS_WCO_WDT_CLKEN_RESET_MASK     ((uint32)(0x03u))
 459:Generated_Source\PSoC4/CyLFClk.h **** 
 460:Generated_Source\PSoC4/CyLFClk.h ****     #define CY_SYS_TIMER_1ILO_DELAY_US          ((uint16)( 67u))
 461:Generated_Source\PSoC4/CyLFClk.h ****     #define CY_SYS_TIMER_4ILO_DELAY_US          ((uint16)(268u))
 462:Generated_Source\PSoC4/CyLFClk.h ****     #define CY_SYS_TIMER_3ILO_DELAY_US          ((uint16)(201u))
 463:Generated_Source\PSoC4/CyLFClk.h **** 
 464:Generated_Source\PSoC4/CyLFClk.h ****     #define CY_SYS_TIMER_1WCO_DELAY_US          ((uint16)( 31u))
 465:Generated_Source\PSoC4/CyLFClk.h ****     #define CY_SYS_TIMER_4WCO_DELAY_US          ((uint16)(124u))
 466:Generated_Source\PSoC4/CyLFClk.h ****     #define CY_SYS_TIMER_3WCO_DELAY_US          ((uint16)( 93u))
 467:Generated_Source\PSoC4/CyLFClk.h **** 
 468:Generated_Source\PSoC4/CyLFClk.h ****     #define CY_SYS_1TIMER_DELAY_US      \
 469:Generated_Source\PSoC4/CyLFClk.h ****         ((CY_SYS_CLK_TIMER_SRC_ILO == (CY_SYS_WCO_WDT_CONFIG_REG & CY_SYS_CLK_TIMER_SEL_MASK)) ? \
 470:Generated_Source\PSoC4/CyLFClk.h ****                                             (CY_SYS_TIMER_1ILO_DELAY_US) : \
 471:Generated_Source\PSoC4/CyLFClk.h ****                                             (CY_SYS_TIMER_1WCO_DELAY_US))
 472:Generated_Source\PSoC4/CyLFClk.h **** 
 473:Generated_Source\PSoC4/CyLFClk.h ****     #define CY_SYS_4TIMER_DELAY_US      \
 474:Generated_Source\PSoC4/CyLFClk.h ****         ((CY_SYS_CLK_TIMER_SRC_ILO == (CY_SYS_WCO_WDT_CONFIG_REG & CY_SYS_CLK_TIMER_SEL_MASK)) ? \
 475:Generated_Source\PSoC4/CyLFClk.h ****                                             (CY_SYS_TIMER_4WCO_DELAY_US) : \
 476:Generated_Source\PSoC4/CyLFClk.h ****                                             (CY_SYS_TIMER_4ILO_DELAY_US))
 477:Generated_Source\PSoC4/CyLFClk.h **** 
 478:Generated_Source\PSoC4/CyLFClk.h ****     #define CY_SYS_3TIMER_DELAY_US      \
 479:Generated_Source\PSoC4/CyLFClk.h ****         ((CY_SYS_CLK_TIMER_SRC_ILO == (CY_SYS_WCO_WDT_CONFIG_REG & CY_SYS_CLK_TIMER_SEL_MASK)) ? \
 480:Generated_Source\PSoC4/CyLFClk.h ****                                             (CY_SYS_TIMER_3ILO_DELAY_US) : \
 481:Generated_Source\PSoC4/CyLFClk.h ****                                             (CY_SYS_TIMER_3WCO_DELAY_US))
 482:Generated_Source\PSoC4/CyLFClk.h **** 
 483:Generated_Source\PSoC4/CyLFClk.h ****     #define CY_SYS_SET_CURRENT_TIMER_SOURCE_BIT      \
 484:Generated_Source\PSoC4/CyLFClk.h ****         ((CY_SYS_CLK_TIMER_SRC_ILO == (CY_SYS_WCO_WDT_CONFIG_REG & CY_SYS_CLK_TIMER_SEL_MASK)) ? \
 485:Generated_Source\PSoC4/CyLFClk.h ****                                             (CY_SYS_SET_NEW_TIMER_SOURCE_ILO) : \
 486:Generated_Source\PSoC4/CyLFClk.h ****                                             (CY_SYS_SET_NEW_TIMER_SOURCE_WCO))
 487:Generated_Source\PSoC4/CyLFClk.h **** 
 488:Generated_Source\PSoC4/CyLFClk.h **** #endif /* (CY_IP_SRSSLT && CY_IP_WCO && CY_IP_WCO_WDT_EN) */
 489:Generated_Source\PSoC4/CyLFClk.h **** 
ARM GAS  C:\Users\akita\AppData\Local\Temp\ccTFmJyh.s 			page 10


 490:Generated_Source\PSoC4/CyLFClk.h **** /* CySysClkWcoSetPowerMode() */
 491:Generated_Source\PSoC4/CyLFClk.h **** #define CY_SYS_CLK_WCO_HPM                              (0x0u)     /**< High power mode */
 492:Generated_Source\PSoC4/CyLFClk.h **** #if(CY_PSOC4_4100BL || CY_PSOC4_4200BL)
 493:Generated_Source\PSoC4/CyLFClk.h ****     #define CY_SYS_CLK_WCO_LPM                          (0x1u)     /**< Low power mode */
 494:Generated_Source\PSoC4/CyLFClk.h **** #endif /* (CY_PSOC4_4100BL || CY_PSOC4_4200BL) */
 495:Generated_Source\PSoC4/CyLFClk.h **** 
 496:Generated_Source\PSoC4/CyLFClk.h **** 
 497:Generated_Source\PSoC4/CyLFClk.h **** /*******************************************************************************
 498:Generated_Source\PSoC4/CyLFClk.h **** *       Trim Registers Constants 
 499:Generated_Source\PSoC4/CyLFClk.h **** ********************************************************************************/
 500:Generated_Source\PSoC4/CyLFClk.h **** #define CY_SYS_CLK_SYS_CLK_DEVIDER                      ((uint32)0x0Au)
 501:Generated_Source\PSoC4/CyLFClk.h **** #define CY_SYS_CLK_SEL_ILO_DFT_SOURCE                   ((uint32)0x00000100u)
 502:Generated_Source\PSoC4/CyLFClk.h **** #define CY_SYS_CLK_FOURBITS_MAX                         (( int32)0x0f)
 503:Generated_Source\PSoC4/CyLFClk.h **** #define CY_SYS_CLK_HALF_OF_STEP                         (( int32)((uint32) CY_SYS_CLK_ERROR_STEP >>
 504:Generated_Source\PSoC4/CyLFClk.h **** 
 505:Generated_Source\PSoC4/CyLFClk.h **** #if(CY_IP_SRSSV2)
 506:Generated_Source\PSoC4/CyLFClk.h ****     #define CY_SYS_CLK_ILO_DESIRED_FREQ_HZ              (32000u)
 507:Generated_Source\PSoC4/CyLFClk.h ****     #define CY_SYS_CLK_DFT_SELSIZE                      ((uint32) 0x3F)
 508:Generated_Source\PSoC4/CyLFClk.h ****     #else
 509:Generated_Source\PSoC4/CyLFClk.h ****         #define CY_SYS_CLK_ILO_DESIRED_FREQ_HZ          (40000u)
 510:Generated_Source\PSoC4/CyLFClk.h ****         #define CY_SYS_TST_DDFT_CTRL_REG_SEL2_CLK1      ((uint32)0x00000908u)
 511:Generated_Source\PSoC4/CyLFClk.h ****         #define CY_SYS_CLK_DFT_SELSIZE                  ((uint32) 0x0F)
 512:Generated_Source\PSoC4/CyLFClk.h **** #endif /* (CY_IP_SRSSV2) */
 513:Generated_Source\PSoC4/CyLFClk.h **** 
 514:Generated_Source\PSoC4/CyLFClk.h **** #define CY_SYS_TST_DDFT_CTRL_REG_DEFAULT_MASK    ((uint32)((CY_SYS_CLK_DFT_SELSIZE << 8u) | (CY_SYS
 515:Generated_Source\PSoC4/CyLFClk.h **** 
 516:Generated_Source\PSoC4/CyLFClk.h **** #if (0u != (CY_PSOC4_4100 || CY_PSOC4_4200))
 517:Generated_Source\PSoC4/CyLFClk.h ****     #define  CY_SYS_TST_DDFT_CTRL_REG_SEL2_CLK1              ((uint32)0x00000201u)
 518:Generated_Source\PSoC4/CyLFClk.h **** #endif /* (0u != (CY_PSOC4_4100 || CY_PSOC4_4200)) */
 519:Generated_Source\PSoC4/CyLFClk.h **** 
 520:Generated_Source\PSoC4/CyLFClk.h **** #if (0u != (CY_PSOC4_4200L))
 521:Generated_Source\PSoC4/CyLFClk.h ****     #define  CY_SYS_TST_DDFT_CTRL_REG_SEL2_CLK1              ((uint32)0x00000908u)
 522:Generated_Source\PSoC4/CyLFClk.h **** #endif /* (0u != (CY_PSOC4_4200L)) */
 523:Generated_Source\PSoC4/CyLFClk.h **** 
 524:Generated_Source\PSoC4/CyLFClk.h **** #if (CY_IP_SRSSV2 && (!CY_PSOC4_4200L) && (!(CY_PSOC4_4100 || CY_PSOC4_4200)))
 525:Generated_Source\PSoC4/CyLFClk.h ****     #define  CY_SYS_TST_DDFT_CTRL_REG_SEL2_CLK1               ((uint32)0x00000B0Au)
 526:Generated_Source\PSoC4/CyLFClk.h **** #endif /* (CY_IP_SRSSV2 && (!CY_PSOC4_4200L) && (!(CY_PSOC4_4100 || CY_PSOC4_4200))) */
 527:Generated_Source\PSoC4/CyLFClk.h **** 
 528:Generated_Source\PSoC4/CyLFClk.h **** 
 529:Generated_Source\PSoC4/CyLFClk.h **** /*******************************************************************************
 530:Generated_Source\PSoC4/CyLFClk.h **** *       Trim Registers 
 531:Generated_Source\PSoC4/CyLFClk.h **** ********************************************************************************/
 532:Generated_Source\PSoC4/CyLFClk.h ****     /* DFT TST Control Register*/
 533:Generated_Source\PSoC4/CyLFClk.h **** #define CY_SYS_TST_DDFT_CTRL_REG                         (*(reg32*) CYREG_TST_DDFT_CTRL)
 534:Generated_Source\PSoC4/CyLFClk.h **** #define CY_SYS_CNT_CTRL_PTR                              ( (reg32*) CYREG_TST_DDFT_CTRL)
 535:Generated_Source\PSoC4/CyLFClk.h **** 
 536:Generated_Source\PSoC4/CyLFClk.h ****     /* DFT TST Counter 1 Register*/
 537:Generated_Source\PSoC4/CyLFClk.h **** #define CY_SYS_CNT_REG1_REG                              (*(reg32*) CYREG_TST_TRIM_CNTR1)
 538:Generated_Source\PSoC4/CyLFClk.h **** #define CY_SYS_CNT_REG1_PTR                              ( (reg32*) CYREG_TST_TRIM_CNTR1)
 539:Generated_Source\PSoC4/CyLFClk.h **** 
 540:Generated_Source\PSoC4/CyLFClk.h ****     /* DFT TST Counter 2 Register*/
 541:Generated_Source\PSoC4/CyLFClk.h **** #define CY_SYS_CNT_REG2_REG                              (*(reg32*) CYREG_TST_TRIM_CNTR2)
 542:Generated_Source\PSoC4/CyLFClk.h **** #define CY_SYS_CNT_REG2_PTR                              ( (reg32*) CYREG_TST_TRIM_CNTR2)
 543:Generated_Source\PSoC4/CyLFClk.h **** 
 544:Generated_Source\PSoC4/CyLFClk.h ****     /* DFT Muxes Configuration Register*/
 545:Generated_Source\PSoC4/CyLFClk.h **** #define CY_SYS_CLK_DFT_REG                               (*(reg32*) CYREG_CLK_DFT_SELECT)
 546:Generated_Source\PSoC4/CyLFClk.h **** #define CY_SYS_CLK_DFT_PTR                               ( (reg32*) CYREG_CLK_DFT_SELECT)
ARM GAS  C:\Users\akita\AppData\Local\Temp\ccTFmJyh.s 			page 11


 547:Generated_Source\PSoC4/CyLFClk.h **** 
 548:Generated_Source\PSoC4/CyLFClk.h ****     /* ILO Configuration Register*/
 549:Generated_Source\PSoC4/CyLFClk.h **** #define CY_SYS_CLK_ILO_CONFIG_REG                        (*(reg32 *) CYREG_CLK_ILO_CONFIG)
 550:Generated_Source\PSoC4/CyLFClk.h **** #define CY_SYS_CLK_ILO_CONFIG_PTR                        ( (reg32 *) CYREG_CLK_ILO_CONFIG)
 551:Generated_Source\PSoC4/CyLFClk.h **** 
 552:Generated_Source\PSoC4/CyLFClk.h ****     /* ILO Trim Register*/
 553:Generated_Source\PSoC4/CyLFClk.h **** #if(CY_IP_SRSSV2 && CY_IP_WCO)
 554:Generated_Source\PSoC4/CyLFClk.h ****     #define CY_SYS_CLK_ILO_TRIM_REG                      (*(reg32 *) CYREG_CLK_ILO_TRIM)
 555:Generated_Source\PSoC4/CyLFClk.h ****     #define CY_SYS_CLK_ILO_TRIM_PTR                      ( (reg32 *) CYREG_CLK_ILO_TRIM)
 556:Generated_Source\PSoC4/CyLFClk.h **** #endif  /* (CY_IP_SRSSV2) && CY_IP_WCO*/
 557:Generated_Source\PSoC4/CyLFClk.h **** 
 558:Generated_Source\PSoC4/CyLFClk.h **** #if (CY_IP_WCO)
 559:Generated_Source\PSoC4/CyLFClk.h ****     #if (CY_PSOC4_4100BL || CY_PSOC4_4200BL)
 560:Generated_Source\PSoC4/CyLFClk.h **** 
 561:Generated_Source\PSoC4/CyLFClk.h ****         /* WCO Status Register */
 562:Generated_Source\PSoC4/CyLFClk.h ****         #define CY_SYS_CLK_WCO_STATUS_REG               (*(reg32 *) CYREG_BLE_BLESS_WCO_STATUS)
 563:Generated_Source\PSoC4/CyLFClk.h ****         #define CY_SYS_CLK_WCO_STATUS_PTR               ( (reg32 *) CYREG_BLE_BLESS_WCO_STATUS)
 564:Generated_Source\PSoC4/CyLFClk.h **** 
 565:Generated_Source\PSoC4/CyLFClk.h ****         /* WCO Configuration Register */
 566:Generated_Source\PSoC4/CyLFClk.h ****         #define CY_SYS_CLK_WCO_CONFIG_REG               (*(reg32 *) CYREG_BLE_BLESS_WCO_CONFIG)
 567:Generated_Source\PSoC4/CyLFClk.h ****         #define CY_SYS_CLK_WCO_CONFIG_PTR               ( (reg32 *) CYREG_BLE_BLESS_WCO_CONFIG)
 568:Generated_Source\PSoC4/CyLFClk.h **** 
 569:Generated_Source\PSoC4/CyLFClk.h ****         /* WCO Trim Register */
 570:Generated_Source\PSoC4/CyLFClk.h ****         #define CY_SYS_CLK_WCO_TRIM_REG                 (*(reg32 *) CYREG_BLE_BLESS_WCO_TRIM)
 571:Generated_Source\PSoC4/CyLFClk.h ****         #define CY_SYS_CLK_WCO_TRIM_PTR                 ( (reg32 *) CYREG_BLE_BLESS_WCO_TRIM)
 572:Generated_Source\PSoC4/CyLFClk.h ****     #else   /* (CY_PSOC4_4100M || CY_PSOC4_4200M) && (CY_PSOC4_4100L || CY_PSOC4_4200L) */
 573:Generated_Source\PSoC4/CyLFClk.h **** 
 574:Generated_Source\PSoC4/CyLFClk.h ****         /* WCO Status Register */
 575:Generated_Source\PSoC4/CyLFClk.h ****         #define CY_SYS_CLK_WCO_STATUS_REG               (*(reg32 *) CYREG_WCO_STATUS)
 576:Generated_Source\PSoC4/CyLFClk.h ****         #define CY_SYS_CLK_WCO_STATUS_PTR               ( (reg32 *) CYREG_WCO_STATUS)
 577:Generated_Source\PSoC4/CyLFClk.h **** 
 578:Generated_Source\PSoC4/CyLFClk.h ****         /* WCO Configuration Register */
 579:Generated_Source\PSoC4/CyLFClk.h ****         #define CY_SYS_CLK_WCO_CONFIG_REG               (*(reg32 *) CYREG_WCO_CONFIG)
 580:Generated_Source\PSoC4/CyLFClk.h ****         #define CY_SYS_CLK_WCO_CONFIG_PTR               ( (reg32 *) CYREG_WCO_CONFIG)
 581:Generated_Source\PSoC4/CyLFClk.h **** 
 582:Generated_Source\PSoC4/CyLFClk.h ****         /* WCO Trim Register */
 583:Generated_Source\PSoC4/CyLFClk.h ****         #define CY_SYS_CLK_WCO_TRIM_REG                 (*(reg32 *) CYREG_WCO_TRIM)
 584:Generated_Source\PSoC4/CyLFClk.h ****         #define CY_SYS_CLK_WCO_TRIM_PTR                 ( (reg32 *) CYREG_WCO_TRIM)
 585:Generated_Source\PSoC4/CyLFClk.h ****     #endif /* (CY_PSOC4_4100BL || CY_PSOC4_4200BL) */
 586:Generated_Source\PSoC4/CyLFClk.h **** 
 587:Generated_Source\PSoC4/CyLFClk.h **** #endif  /* (CY_IP_WCO) */
 588:Generated_Source\PSoC4/CyLFClk.h **** 
 589:Generated_Source\PSoC4/CyLFClk.h **** 
 590:Generated_Source\PSoC4/CyLFClk.h **** /*******************************************************************************
 591:Generated_Source\PSoC4/CyLFClk.h **** * WDT API Registers
 592:Generated_Source\PSoC4/CyLFClk.h **** *******************************************************************************/
 593:Generated_Source\PSoC4/CyLFClk.h **** #if(CY_IP_SRSSV2)
 594:Generated_Source\PSoC4/CyLFClk.h ****     #define CY_SYS_WDT_CTRLOW_REG               (*(reg32 *) CYREG_WDT_CTRLOW)
 595:Generated_Source\PSoC4/CyLFClk.h ****     #define CY_SYS_WDT_CTRLOW_PTR               ( (reg32 *) CYREG_WDT_CTRLOW)
 596:Generated_Source\PSoC4/CyLFClk.h **** 
 597:Generated_Source\PSoC4/CyLFClk.h ****     #define CY_SYS_WDT_CTRHIGH_REG              (*(reg32 *) CYREG_WDT_CTRHIGH)
 598:Generated_Source\PSoC4/CyLFClk.h ****     #define CY_SYS_WDT_CTRHIGH_PTR              ( (reg32 *) CYREG_WDT_CTRHIGH)
 599:Generated_Source\PSoC4/CyLFClk.h **** 
 600:Generated_Source\PSoC4/CyLFClk.h ****     #define CY_SYS_WDT_MATCH_REG                (*(reg32 *) CYREG_WDT_MATCH)
 601:Generated_Source\PSoC4/CyLFClk.h ****     #define CY_SYS_WDT_MATCH_PTR                ( (reg32 *) CYREG_WDT_MATCH)
 602:Generated_Source\PSoC4/CyLFClk.h **** 
 603:Generated_Source\PSoC4/CyLFClk.h ****     #define CY_SYS_WDT_CONFIG_REG               (*(reg32 *) CYREG_WDT_CONFIG)
ARM GAS  C:\Users\akita\AppData\Local\Temp\ccTFmJyh.s 			page 12


 604:Generated_Source\PSoC4/CyLFClk.h ****     #define CY_SYS_WDT_CONFIG_PTR               ( (reg32 *) CYREG_WDT_CONFIG)
 605:Generated_Source\PSoC4/CyLFClk.h **** 
 606:Generated_Source\PSoC4/CyLFClk.h ****     #define CY_SYS_WDT_CONTROL_REG              (*(reg32 *) CYREG_WDT_CONTROL)
 607:Generated_Source\PSoC4/CyLFClk.h ****     #define CY_SYS_WDT_CONTROL_PTR              ( (reg32 *) CYREG_WDT_CONTROL)
 608:Generated_Source\PSoC4/CyLFClk.h **** #else
 609:Generated_Source\PSoC4/CyLFClk.h ****     #define CY_SYS_WDT_DISABLE_KEY_REG          (*(reg32 *) CYREG_WDT_DISABLE_KEY)
 610:Generated_Source\PSoC4/CyLFClk.h ****     #define CY_SYS_WDT_DISABLE_KEY_PTR          ( (reg32 *) CYREG_WDT_DISABLE_KEY)
 611:Generated_Source\PSoC4/CyLFClk.h **** 
 612:Generated_Source\PSoC4/CyLFClk.h ****     #define CY_SYS_WDT_MATCH_REG                (*(reg32 *) CYREG_WDT_MATCH)
 613:Generated_Source\PSoC4/CyLFClk.h ****     #define CY_SYS_WDT_MATCH_PTR                ( (reg32 *) CYREG_WDT_MATCH)
 614:Generated_Source\PSoC4/CyLFClk.h **** 
 615:Generated_Source\PSoC4/CyLFClk.h ****     #define CY_SYS_WDT_COUNTER_REG              (*(reg32 *) CYREG_WDT_COUNTER)
 616:Generated_Source\PSoC4/CyLFClk.h ****     #define CY_SYS_WDT_COUNTER_PTR              ( (reg32 *) CYREG_WDT_COUNTER)
 617:Generated_Source\PSoC4/CyLFClk.h **** 
 618:Generated_Source\PSoC4/CyLFClk.h ****     #define CY_SYS_SRSS_INTR_REG                (*(reg32 *) CYREG_SRSS_INTR)
 619:Generated_Source\PSoC4/CyLFClk.h ****     #define CY_SYS_SRSS_INTR_PTR                ( (reg32 *) CYREG_SRSS_INTR)
 620:Generated_Source\PSoC4/CyLFClk.h **** 
 621:Generated_Source\PSoC4/CyLFClk.h ****     #define CY_SYS_SRSS_INTR_MASK_REG           (*(reg32 *) CYREG_SRSS_INTR_MASK)
 622:Generated_Source\PSoC4/CyLFClk.h ****     #define CY_SYS_SRSS_INTR_MASK_PTR           ( (reg32 *) CYREG_SRSS_INTR_MASK)
 623:Generated_Source\PSoC4/CyLFClk.h **** #endif  /* (CY_IP_SRSSV2) */
 624:Generated_Source\PSoC4/CyLFClk.h **** 
 625:Generated_Source\PSoC4/CyLFClk.h **** #if (CY_IP_SRSSLT && CY_IP_WCO && CY_IP_WCO_WDT_EN)
 626:Generated_Source\PSoC4/CyLFClk.h ****     #define CY_SYS_WCO_WDT_CTRLOW_REG           (*(reg32 *) CYREG_WCO_WDT_CTRLOW)
 627:Generated_Source\PSoC4/CyLFClk.h ****     #define CY_SYS_WCO_WDT_CTRLOW_PTR           ( (reg32 *) CYREG_WCO_WDT_CTRLOW)
 628:Generated_Source\PSoC4/CyLFClk.h **** 
 629:Generated_Source\PSoC4/CyLFClk.h ****     #define CY_SYS_WCO_WDT_CTRHIGH_REG          (*(reg32 *) CYREG_WCO_WDT_CTRHIGH)
 630:Generated_Source\PSoC4/CyLFClk.h ****     #define CY_SYS_WCO_WDT_CTRHIGH_PTR          ( (reg32 *) CYREG_WCO_WDT_CTRHIGH)
 631:Generated_Source\PSoC4/CyLFClk.h **** 
 632:Generated_Source\PSoC4/CyLFClk.h ****     #define CY_SYS_WCO_WDT_MATCH_REG            (*(reg32 *) CYREG_WCO_WDT_MATCH)
 633:Generated_Source\PSoC4/CyLFClk.h ****     #define CY_SYS_WCO_WDT_MATCH_PTR            ( (reg32 *) CYREG_WCO_WDT_MATCH)
 634:Generated_Source\PSoC4/CyLFClk.h **** 
 635:Generated_Source\PSoC4/CyLFClk.h ****     #define CY_SYS_WCO_WDT_CONFIG_REG           (*(reg32 *) CYREG_WCO_WDT_CONFIG)
 636:Generated_Source\PSoC4/CyLFClk.h ****     #define CY_SYS_WCO_WDT_CONFIG_PTR           ( (reg32 *) CYREG_WCO_WDT_CONFIG)
 637:Generated_Source\PSoC4/CyLFClk.h **** 
 638:Generated_Source\PSoC4/CyLFClk.h ****     #define CY_SYS_WCO_WDT_CONTROL_REG          (*(reg32 *) CYREG_WCO_WDT_CONTROL)
 639:Generated_Source\PSoC4/CyLFClk.h ****     #define CY_SYS_WCO_WDT_CONTROL_PTR          ( (reg32 *) CYREG_WCO_WDT_CONTROL)
 640:Generated_Source\PSoC4/CyLFClk.h **** 
 641:Generated_Source\PSoC4/CyLFClk.h ****     #define CY_SYS_WCO_WDT_CLKEN_REG            (*(reg32 *) CYREG_WCO_WDT_CLKEN)
 642:Generated_Source\PSoC4/CyLFClk.h ****     #define CY_SYS_WCO_WDT_CLKEN_PTR            ( (reg32 *) CYREG_WCO_WDT_CLKEN)
 643:Generated_Source\PSoC4/CyLFClk.h **** #endif /* (CY_IP_SRSSLT && CY_IP_WCO && CY_IP_WCO_WDT_EN) */
 644:Generated_Source\PSoC4/CyLFClk.h **** 
 645:Generated_Source\PSoC4/CyLFClk.h **** #if (CY_IP_WCO)
 646:Generated_Source\PSoC4/CyLFClk.h **** 
 647:Generated_Source\PSoC4/CyLFClk.h **** 
 648:Generated_Source\PSoC4/CyLFClk.h ****     /*******************************************************************************
 649:Generated_Source\PSoC4/CyLFClk.h ****     * Function Name: CySysClkWcoSetHighPowerMode
 650:Generated_Source\PSoC4/CyLFClk.h ****     ********************************************************************************
 651:Generated_Source\PSoC4/CyLFClk.h ****     *
 652:Generated_Source\PSoC4/CyLFClk.h ****     * Summary:
 653:Generated_Source\PSoC4/CyLFClk.h ****     *  Sets the high power mode for the 32 KHz WCO.
 654:Generated_Source\PSoC4/CyLFClk.h ****     *
 655:Generated_Source\PSoC4/CyLFClk.h ****     *******************************************************************************/
 656:Generated_Source\PSoC4/CyLFClk.h ****     static CY_INLINE void CySysClkWcoSetHighPowerMode(void)
 657:Generated_Source\PSoC4/CyLFClk.h ****     {
  25              		.loc 1 657 0
  26              		.cfi_startproc
  27 0000 80B5     		push	{r7, lr}
ARM GAS  C:\Users\akita\AppData\Local\Temp\ccTFmJyh.s 			page 13


  28              		.cfi_def_cfa_offset 8
  29              		.cfi_offset 7, -8
  30              		.cfi_offset 14, -4
  31 0002 00AF     		add	r7, sp, #0
  32              		.cfi_def_cfa_register 7
 658:Generated_Source\PSoC4/CyLFClk.h ****         /* Switch off low power mode for WCO */
 659:Generated_Source\PSoC4/CyLFClk.h ****         CY_SYS_CLK_WCO_CONFIG_REG &= (uint32) ~CY_SYS_CLK_WCO_CONFIG_LPM_EN;
  33              		.loc 1 659 0
  34 0004 0E4B     		ldr	r3, .L2
  35 0006 0E4A     		ldr	r2, .L2
  36 0008 1268     		ldr	r2, [r2]
  37 000a 0121     		mov	r1, #1
  38 000c 8A43     		bic	r2, r1
  39 000e 1A60     		str	r2, [r3]
 660:Generated_Source\PSoC4/CyLFClk.h **** 
 661:Generated_Source\PSoC4/CyLFClk.h ****         /* Switch off auto low power mode in WCO */
 662:Generated_Source\PSoC4/CyLFClk.h ****         CY_SYS_CLK_WCO_CONFIG_REG &= ((uint32)~CY_SYS_CLK_WCO_CONFIG_LPM_AUTO);
  40              		.loc 1 662 0
  41 0010 0B4B     		ldr	r3, .L2
  42 0012 0B4A     		ldr	r2, .L2
  43 0014 1268     		ldr	r2, [r2]
  44 0016 0221     		mov	r1, #2
  45 0018 8A43     		bic	r2, r1
  46 001a 1A60     		str	r2, [r3]
 663:Generated_Source\PSoC4/CyLFClk.h **** 
 664:Generated_Source\PSoC4/CyLFClk.h ****         /* Restore WCO trim register HPM settings */
 665:Generated_Source\PSoC4/CyLFClk.h ****         CY_SYS_CLK_WCO_TRIM_REG = (CY_SYS_CLK_WCO_TRIM_REG & (uint32)(~CY_SYS_CLK_WCO_TRIM_GM_MASK)
  47              		.loc 1 665 0
  48 001c 094B     		ldr	r3, .L2+4
  49 001e 094A     		ldr	r2, .L2+4
  50 0020 1268     		ldr	r2, [r2]
  51 0022 3021     		mov	r1, #48
  52 0024 8A43     		bic	r2, r1
 666:Generated_Source\PSoC4/CyLFClk.h ****                     | (uint32)(CY_SYS_CLK_WCO_TRIM_GM_HPM << CY_SYS_CLK_WCO_TRIM_GM_SHIFT);
  53              		.loc 1 666 0
  54 0026 1021     		mov	r1, #16
  55 0028 0A43     		orr	r2, r1
 665:Generated_Source\PSoC4/CyLFClk.h ****                     | (uint32)(CY_SYS_CLK_WCO_TRIM_GM_HPM << CY_SYS_CLK_WCO_TRIM_GM_SHIFT);
  56              		.loc 1 665 0
  57 002a 1A60     		str	r2, [r3]
 667:Generated_Source\PSoC4/CyLFClk.h ****         CY_SYS_CLK_WCO_TRIM_REG = (CY_SYS_CLK_WCO_TRIM_REG & (uint32)(~CY_SYS_CLK_WCO_TRIM_XGM_MASK
  58              		.loc 1 667 0
  59 002c 054B     		ldr	r3, .L2+4
  60 002e 054A     		ldr	r2, .L2+4
  61 0030 1268     		ldr	r2, [r2]
  62 0032 0721     		mov	r1, #7
  63 0034 8A43     		bic	r2, r1
 668:Generated_Source\PSoC4/CyLFClk.h ****                     | (uint32)(CY_SYS_CLK_WCO_TRIM_XGM_2620NA << CY_SYS_CLK_WCO_TRIM_XGM_SHIFT);
  64              		.loc 1 668 0
  65 0036 0121     		mov	r1, #1
  66 0038 0A43     		orr	r2, r1
 667:Generated_Source\PSoC4/CyLFClk.h ****         CY_SYS_CLK_WCO_TRIM_REG = (CY_SYS_CLK_WCO_TRIM_REG & (uint32)(~CY_SYS_CLK_WCO_TRIM_XGM_MASK
  67              		.loc 1 667 0
  68 003a 1A60     		str	r2, [r3]
 669:Generated_Source\PSoC4/CyLFClk.h ****     }
  69              		.loc 1 669 0
  70 003c BD46     		mov	sp, r7
ARM GAS  C:\Users\akita\AppData\Local\Temp\ccTFmJyh.s 			page 14


  71              		@ sp needed
  72 003e 80BD     		pop	{r7, pc}
  73              	.L3:
  74              		.align	2
  75              	.L2:
  76 0040 00F02E40 		.word	1076817920
  77 0044 00FF2E40 		.word	1076821760
  78              		.cfi_endproc
  79              	.LFE0:
  80              		.size	CySysClkWcoSetHighPowerMode, .-CySysClkWcoSetHighPowerMode
  81              		.section	.text.CySysClkWcoSetLowPowerMode,"ax",%progbits
  82              		.align	2
  83              		.code	16
  84              		.thumb_func
  85              		.type	CySysClkWcoSetLowPowerMode, %function
  86              	CySysClkWcoSetLowPowerMode:
  87              	.LFB1:
 670:Generated_Source\PSoC4/CyLFClk.h **** 
 671:Generated_Source\PSoC4/CyLFClk.h ****     #if(CY_PSOC4_4100BL || CY_PSOC4_4200BL)
 672:Generated_Source\PSoC4/CyLFClk.h ****         /*******************************************************************************
 673:Generated_Source\PSoC4/CyLFClk.h ****         * Function Name: CySysClkWcoSetLowPowerMode
 674:Generated_Source\PSoC4/CyLFClk.h ****         ********************************************************************************
 675:Generated_Source\PSoC4/CyLFClk.h ****         *
 676:Generated_Source\PSoC4/CyLFClk.h ****         * Summary:
 677:Generated_Source\PSoC4/CyLFClk.h ****         *  Sets the low power mode for the 32 KHz WCO.
 678:Generated_Source\PSoC4/CyLFClk.h ****         *
 679:Generated_Source\PSoC4/CyLFClk.h ****         *  Note LPM available only for PSoC 4100 BLE / PSoC4 4200 BLE
 680:Generated_Source\PSoC4/CyLFClk.h ****         *******************************************************************************/
 681:Generated_Source\PSoC4/CyLFClk.h ****         static CY_INLINE void CySysClkWcoSetLowPowerMode(void)
 682:Generated_Source\PSoC4/CyLFClk.h ****         {
  88              		.loc 1 682 0
  89              		.cfi_startproc
  90 0000 80B5     		push	{r7, lr}
  91              		.cfi_def_cfa_offset 8
  92              		.cfi_offset 7, -8
  93              		.cfi_offset 14, -4
  94 0002 00AF     		add	r7, sp, #0
  95              		.cfi_def_cfa_register 7
 683:Generated_Source\PSoC4/CyLFClk.h ****             /* Switch off auto low power mode in WCO */
 684:Generated_Source\PSoC4/CyLFClk.h ****             CY_SYS_CLK_WCO_CONFIG_REG &= ((uint32)~CY_SYS_CLK_WCO_CONFIG_LPM_AUTO);
  96              		.loc 1 684 0
  97 0004 0E4B     		ldr	r3, .L5
  98 0006 0E4A     		ldr	r2, .L5
  99 0008 1268     		ldr	r2, [r2]
 100 000a 0221     		mov	r1, #2
 101 000c 8A43     		bic	r2, r1
 102 000e 1A60     		str	r2, [r3]
 685:Generated_Source\PSoC4/CyLFClk.h **** 
 686:Generated_Source\PSoC4/CyLFClk.h ****             /* Change WCO trim register settings to LPM */
 687:Generated_Source\PSoC4/CyLFClk.h ****             CY_SYS_CLK_WCO_TRIM_REG = (CY_SYS_CLK_WCO_TRIM_REG & (uint32)(~CY_SYS_CLK_WCO_TRIM_XGM_
 103              		.loc 1 687 0
 104 0010 0C4B     		ldr	r3, .L5+4
 105 0012 0C4A     		ldr	r2, .L5+4
 106 0014 1268     		ldr	r2, [r2]
 107 0016 0721     		mov	r1, #7
 108 0018 8A43     		bic	r2, r1
 688:Generated_Source\PSoC4/CyLFClk.h ****                         | (uint32)(CY_SYS_CLK_WCO_TRIM_XGM_2250NA << CY_SYS_CLK_WCO_TRIM_XGM_SHIFT)
ARM GAS  C:\Users\akita\AppData\Local\Temp\ccTFmJyh.s 			page 15


 109              		.loc 1 688 0
 110 001a 0221     		mov	r1, #2
 111 001c 0A43     		orr	r2, r1
 687:Generated_Source\PSoC4/CyLFClk.h ****                         | (uint32)(CY_SYS_CLK_WCO_TRIM_XGM_2250NA << CY_SYS_CLK_WCO_TRIM_XGM_SHIFT)
 112              		.loc 1 687 0
 113 001e 1A60     		str	r2, [r3]
 689:Generated_Source\PSoC4/CyLFClk.h ****             CY_SYS_CLK_WCO_TRIM_REG = (CY_SYS_CLK_WCO_TRIM_REG & (uint32)(~CY_SYS_CLK_WCO_TRIM_GM_M
 114              		.loc 1 689 0
 115 0020 084B     		ldr	r3, .L5+4
 116 0022 084A     		ldr	r2, .L5+4
 117 0024 1268     		ldr	r2, [r2]
 118 0026 3021     		mov	r1, #48
 119 0028 8A43     		bic	r2, r1
 690:Generated_Source\PSoC4/CyLFClk.h ****                         | (uint32)(CY_SYS_CLK_WCO_TRIM_GM_LPM << CY_SYS_CLK_WCO_TRIM_GM_SHIFT);
 120              		.loc 1 690 0
 121 002a 2021     		mov	r1, #32
 122 002c 0A43     		orr	r2, r1
 689:Generated_Source\PSoC4/CyLFClk.h ****             CY_SYS_CLK_WCO_TRIM_REG = (CY_SYS_CLK_WCO_TRIM_REG & (uint32)(~CY_SYS_CLK_WCO_TRIM_GM_M
 123              		.loc 1 689 0
 124 002e 1A60     		str	r2, [r3]
 691:Generated_Source\PSoC4/CyLFClk.h **** 
 692:Generated_Source\PSoC4/CyLFClk.h ****             /* Switch on low power mode for WCO */
 693:Generated_Source\PSoC4/CyLFClk.h ****             CY_SYS_CLK_WCO_CONFIG_REG |= CY_SYS_CLK_WCO_CONFIG_LPM_EN;
 125              		.loc 1 693 0
 126 0030 034B     		ldr	r3, .L5
 127 0032 034A     		ldr	r2, .L5
 128 0034 1268     		ldr	r2, [r2]
 129 0036 0121     		mov	r1, #1
 130 0038 0A43     		orr	r2, r1
 131 003a 1A60     		str	r2, [r3]
 694:Generated_Source\PSoC4/CyLFClk.h ****         }
 132              		.loc 1 694 0
 133 003c BD46     		mov	sp, r7
 134              		@ sp needed
 135 003e 80BD     		pop	{r7, pc}
 136              	.L6:
 137              		.align	2
 138              	.L5:
 139 0040 00F02E40 		.word	1076817920
 140 0044 00FF2E40 		.word	1076821760
 141              		.cfi_endproc
 142              	.LFE1:
 143              		.size	CySysClkWcoSetLowPowerMode, .-CySysClkWcoSetLowPowerMode
 144              		.data
 145              		.align	1
 146              		.type	defaultIloTrimRegValue, %object
 147              		.size	defaultIloTrimRegValue, 2
 148              	defaultIloTrimRegValue:
 149 0000 F000     		.short	240
 150              		.bss
 151              		.align	2
 152              	lfclkPosedgeWdtCounter0Enabled:
 153 0000 00000000 		.space	4
 154              		.align	2
 155              	lfclkPosedgeWdtCounter0Mode:
 156 0004 00000000 		.space	4
 157              		.align	2
ARM GAS  C:\Users\akita\AppData\Local\Temp\ccTFmJyh.s 			page 16


 158              	disableServicedIsr:
 159 0008 00000000 		.space	4
 160              		.data
 161 0002 0000     		.align	2
 162              		.type	wdtIsrMask, %object
 163              		.size	wdtIsrMask, 4
 164              	wdtIsrMask:
 165 0004 04040400 		.word	263172
 166              		.section	.rodata
 167              		.align	2
 168              		.type	counterIntMaskTbl, %object
 169              		.size	counterIntMaskTbl, 12
 170              	counterIntMaskTbl:
 171 0000 04000000 		.word	4
 172 0004 00040000 		.word	1024
 173 0008 00000400 		.word	262144
 174              		.bss
 175              		.align	2
 176              	cySysWdtCallback:
 177 000c 00000000 		.space	12
 177      00000000 
 177      00000000 
 178              		.section	.text.CySysClkIloStart,"ax",%progbits
 179              		.align	2
 180              		.global	CySysClkIloStart
 181              		.code	16
 182              		.thumb_func
 183              		.type	CySysClkIloStart, %function
 184              	CySysClkIloStart:
 185              	.LFB2:
 186              		.file 2 "Generated_Source\\PSoC4\\CyLFClk.c"
   1:Generated_Source\PSoC4/CyLFClk.c **** /***************************************************************************//**
   2:Generated_Source\PSoC4/CyLFClk.c **** * \file .c
   3:Generated_Source\PSoC4/CyLFClk.c **** * \version 1.10
   4:Generated_Source\PSoC4/CyLFClk.c **** *
   5:Generated_Source\PSoC4/CyLFClk.c **** * \brief
   6:Generated_Source\PSoC4/CyLFClk.c **** *  This file provides the source code for configuring watchdog timers WDTs, 
   7:Generated_Source\PSoC4/CyLFClk.c **** *  low frequency clocks (LFCLK) and the Real-time Clock (RTC) component in
   8:Generated_Source\PSoC4/CyLFClk.c **** *  PSoC Creator for the PSoC 4 families.
   9:Generated_Source\PSoC4/CyLFClk.c **** *
  10:Generated_Source\PSoC4/CyLFClk.c **** ********************************************************************************
  11:Generated_Source\PSoC4/CyLFClk.c **** * \copyright
  12:Generated_Source\PSoC4/CyLFClk.c **** * Copyright 2008-2016, Cypress Semiconductor Corporation.  All rights reserved.
  13:Generated_Source\PSoC4/CyLFClk.c **** * You may use this file only in accordance with the license, terms, conditions,
  14:Generated_Source\PSoC4/CyLFClk.c **** * disclaimers, and limitations in the end user license agreement accompanying
  15:Generated_Source\PSoC4/CyLFClk.c **** * the software package with which this file was provided.
  16:Generated_Source\PSoC4/CyLFClk.c **** *******************************************************************************/
  17:Generated_Source\PSoC4/CyLFClk.c **** 
  18:Generated_Source\PSoC4/CyLFClk.c **** 
  19:Generated_Source\PSoC4/CyLFClk.c **** #include "CyLFClk.h"
  20:Generated_Source\PSoC4/CyLFClk.c **** #include "CyLib.h"
  21:Generated_Source\PSoC4/CyLFClk.c **** 
  22:Generated_Source\PSoC4/CyLFClk.c **** #if (CY_IP_WCO && CY_IP_SRSSV2)
  23:Generated_Source\PSoC4/CyLFClk.c ****     static uint32 CySysClkGetLfclkSource(void);
  24:Generated_Source\PSoC4/CyLFClk.c **** #endif /* (CY_IP_WCO && CY_IP_SRSSV2) */
  25:Generated_Source\PSoC4/CyLFClk.c **** 
  26:Generated_Source\PSoC4/CyLFClk.c **** 
ARM GAS  C:\Users\akita\AppData\Local\Temp\ccTFmJyh.s 			page 17


  27:Generated_Source\PSoC4/CyLFClk.c **** #if(CY_IP_SRSSV2 && (!(CY_PSOC4_4100 || CY_PSOC4_4200)))
  28:Generated_Source\PSoC4/CyLFClk.c ****     /* Default Ilo Trim Register value for ILO trimming*/
  29:Generated_Source\PSoC4/CyLFClk.c ****     static volatile uint16 defaultIloTrimRegValue = CY_SYS_CLK_ILO_TRIM_DEFAULT_VALUE;
  30:Generated_Source\PSoC4/CyLFClk.c **** #endif /* (CY_IP_SRSSV2 && (!(CY_PSOC4_4100 || CY_PSOC4_4200))) */
  31:Generated_Source\PSoC4/CyLFClk.c **** 
  32:Generated_Source\PSoC4/CyLFClk.c **** #if(CY_IP_SRSSV2)
  33:Generated_Source\PSoC4/CyLFClk.c ****     /* CySysClkLfclkPosedgeCatch() / CySysClkLfclkPosedgeRestore() */
  34:Generated_Source\PSoC4/CyLFClk.c ****     static uint32 lfclkPosedgeWdtCounter0Enabled = 0u;
  35:Generated_Source\PSoC4/CyLFClk.c ****     static uint32 lfclkPosedgeWdtCounter0Mode    = CY_SYS_WDT_MODE_NONE;
  36:Generated_Source\PSoC4/CyLFClk.c **** 
  37:Generated_Source\PSoC4/CyLFClk.c ****     static volatile uint32 disableServicedIsr = 0uL;
  38:Generated_Source\PSoC4/CyLFClk.c ****     static volatile uint32 wdtIsrMask = CY_SYS_WDT_COUNTER0_INT |\
  39:Generated_Source\PSoC4/CyLFClk.c ****                                         CY_SYS_WDT_COUNTER1_INT |\
  40:Generated_Source\PSoC4/CyLFClk.c ****                                         CY_SYS_WDT_COUNTER2_INT;
  41:Generated_Source\PSoC4/CyLFClk.c **** 
  42:Generated_Source\PSoC4/CyLFClk.c ****     static const uint32 counterIntMaskTbl[CY_WDT_NUM_OF_WDT] = {CY_SYS_WDT_COUNTER0_INT,
  43:Generated_Source\PSoC4/CyLFClk.c ****                                                                 CY_SYS_WDT_COUNTER1_INT,
  44:Generated_Source\PSoC4/CyLFClk.c ****                                                                 CY_SYS_WDT_COUNTER2_INT};
  45:Generated_Source\PSoC4/CyLFClk.c **** 
  46:Generated_Source\PSoC4/CyLFClk.c ****     static void CySysClkLfclkPosedgeCatch(void);
  47:Generated_Source\PSoC4/CyLFClk.c ****     static void CySysClkLfclkPosedgeRestore(void);
  48:Generated_Source\PSoC4/CyLFClk.c **** 
  49:Generated_Source\PSoC4/CyLFClk.c ****     static uint32 CySysWdtLocked(void);
  50:Generated_Source\PSoC4/CyLFClk.c ****     static uint32 CySysClkIloEnabled(void);
  51:Generated_Source\PSoC4/CyLFClk.c **** #endif /* (CY_IP_SRSSV2) */
  52:Generated_Source\PSoC4/CyLFClk.c **** 
  53:Generated_Source\PSoC4/CyLFClk.c **** #if (CY_IP_SRSSLT && CY_IP_WCO && CY_IP_WCO_WDT_EN)
  54:Generated_Source\PSoC4/CyLFClk.c ****     static uint32 CySysClkGetTimerSource(void);
  55:Generated_Source\PSoC4/CyLFClk.c ****     static volatile uint32 disableTimerServicedIsr = 0uL;
  56:Generated_Source\PSoC4/CyLFClk.c ****     static volatile uint32 timerIsrMask = CY_SYS_TIMER0_INT |\
  57:Generated_Source\PSoC4/CyLFClk.c ****                                           CY_SYS_TIMER1_INT |\
  58:Generated_Source\PSoC4/CyLFClk.c ****                                           CY_SYS_TIMER2_INT;
  59:Generated_Source\PSoC4/CyLFClk.c **** 
  60:Generated_Source\PSoC4/CyLFClk.c ****     static const uint32 counterTimerIntMaskTbl[CY_SYS_NUM_OF_TIMERS] = {CY_SYS_TIMER0_INT,
  61:Generated_Source\PSoC4/CyLFClk.c ****                                                                         CY_SYS_TIMER1_INT,
  62:Generated_Source\PSoC4/CyLFClk.c ****                                                                         CY_SYS_TIMER2_INT};
  63:Generated_Source\PSoC4/CyLFClk.c **** 
  64:Generated_Source\PSoC4/CyLFClk.c ****     static cyTimerCallback cySysTimerCallback[CY_SYS_NUM_OF_TIMERS] = {(void *)0, (void *)0, (void 
  65:Generated_Source\PSoC4/CyLFClk.c **** #endif /* (CY_IP_SRSSLT && CY_IP_WCO && CY_IP_WCO_DWT_EN) */
  66:Generated_Source\PSoC4/CyLFClk.c **** 
  67:Generated_Source\PSoC4/CyLFClk.c **** #if(CY_IP_SRSSV2)
  68:Generated_Source\PSoC4/CyLFClk.c ****     static cyWdtCallback cySysWdtCallback[CY_WDT_NUM_OF_WDT] = {(void *)0, (void *)0, (void *)0};
  69:Generated_Source\PSoC4/CyLFClk.c **** #else
  70:Generated_Source\PSoC4/CyLFClk.c ****     static cyWdtCallback cySysWdtCallback = (void *)0;
  71:Generated_Source\PSoC4/CyLFClk.c **** #endif /* (CY_IP_SRSSV2) */
  72:Generated_Source\PSoC4/CyLFClk.c **** 
  73:Generated_Source\PSoC4/CyLFClk.c **** 
  74:Generated_Source\PSoC4/CyLFClk.c **** /*******************************************************************************
  75:Generated_Source\PSoC4/CyLFClk.c **** * Function Name: CySysClkIloStart
  76:Generated_Source\PSoC4/CyLFClk.c **** ****************************************************************************//**
  77:Generated_Source\PSoC4/CyLFClk.c **** * \brief
  78:Generated_Source\PSoC4/CyLFClk.c **** *  Enables ILO.
  79:Generated_Source\PSoC4/CyLFClk.c **** *
  80:Generated_Source\PSoC4/CyLFClk.c **** *  Refer to the device datasheet for the ILO startup time.
  81:Generated_Source\PSoC4/CyLFClk.c **** *
  82:Generated_Source\PSoC4/CyLFClk.c **** *******************************************************************************/
  83:Generated_Source\PSoC4/CyLFClk.c **** void CySysClkIloStart(void)
ARM GAS  C:\Users\akita\AppData\Local\Temp\ccTFmJyh.s 			page 18


  84:Generated_Source\PSoC4/CyLFClk.c **** {
 187              		.loc 2 84 0
 188              		.cfi_startproc
 189 0000 80B5     		push	{r7, lr}
 190              		.cfi_def_cfa_offset 8
 191              		.cfi_offset 7, -8
 192              		.cfi_offset 14, -4
 193 0002 00AF     		add	r7, sp, #0
 194              		.cfi_def_cfa_register 7
  85:Generated_Source\PSoC4/CyLFClk.c ****     CY_SYS_CLK_ILO_CONFIG_REG |= CY_SYS_CLK_ILO_CONFIG_ENABLE;
 195              		.loc 2 85 0
 196 0004 044B     		ldr	r3, .L8
 197 0006 044A     		ldr	r2, .L8
 198 0008 1268     		ldr	r2, [r2]
 199 000a 8021     		mov	r1, #128
 200 000c 0906     		lsl	r1, r1, #24
 201 000e 0A43     		orr	r2, r1
 202 0010 1A60     		str	r2, [r3]
  86:Generated_Source\PSoC4/CyLFClk.c **** }
 203              		.loc 2 86 0
 204 0012 BD46     		mov	sp, r7
 205              		@ sp needed
 206 0014 80BD     		pop	{r7, pc}
 207              	.L9:
 208 0016 C046     		.align	2
 209              	.L8:
 210 0018 04010B40 		.word	1074462980
 211              		.cfi_endproc
 212              	.LFE2:
 213              		.size	CySysClkIloStart, .-CySysClkIloStart
 214              		.section	.text.CySysClkIloStop,"ax",%progbits
 215              		.align	2
 216              		.global	CySysClkIloStop
 217              		.code	16
 218              		.thumb_func
 219              		.type	CySysClkIloStop, %function
 220              	CySysClkIloStop:
 221              	.LFB3:
  87:Generated_Source\PSoC4/CyLFClk.c **** 
  88:Generated_Source\PSoC4/CyLFClk.c **** 
  89:Generated_Source\PSoC4/CyLFClk.c **** /*******************************************************************************
  90:Generated_Source\PSoC4/CyLFClk.c **** * Function Name: CySysClkIloStop
  91:Generated_Source\PSoC4/CyLFClk.c **** ****************************************************************************//**
  92:Generated_Source\PSoC4/CyLFClk.c **** * \brief
  93:Generated_Source\PSoC4/CyLFClk.c **** *  Disables the ILO.
  94:Generated_Source\PSoC4/CyLFClk.c **** *
  95:Generated_Source\PSoC4/CyLFClk.c **** *  This function has no effect if WDT is locked (CySysWdtLock() is
  96:Generated_Source\PSoC4/CyLFClk.c **** *  called). Call CySysWdtUnlock() to unlock WDT and stop ILO.
  97:Generated_Source\PSoC4/CyLFClk.c **** *
  98:Generated_Source\PSoC4/CyLFClk.c **** *  PSoC 4100 / PSoC 4200: Note that ILO is required for WDT's operation.
  99:Generated_Source\PSoC4/CyLFClk.c **** *
 100:Generated_Source\PSoC4/CyLFClk.c **** *  PSoC 4100 BLE / PSoC 4200 BLE / PSoC 4200L / PSoC 4100M / 
 101:Generated_Source\PSoC4/CyLFClk.c **** *  PSoC 4200M:
 102:Generated_Source\PSoC4/CyLFClk.c **** *  Stopping ILO affects the peripheral clocked by LFCLK, if
 103:Generated_Source\PSoC4/CyLFClk.c **** *  LFCLK is configured to be sourced by ILO.
 104:Generated_Source\PSoC4/CyLFClk.c **** *
 105:Generated_Source\PSoC4/CyLFClk.c **** *  If the ILO is disabled, all blocks run by ILO will stop functioning.
ARM GAS  C:\Users\akita\AppData\Local\Temp\ccTFmJyh.s 			page 19


 106:Generated_Source\PSoC4/CyLFClk.c **** *
 107:Generated_Source\PSoC4/CyLFClk.c **** *******************************************************************************/
 108:Generated_Source\PSoC4/CyLFClk.c **** void CySysClkIloStop(void)
 109:Generated_Source\PSoC4/CyLFClk.c **** {
 222              		.loc 2 109 0
 223              		.cfi_startproc
 224 0000 90B5     		push	{r4, r7, lr}
 225              		.cfi_def_cfa_offset 12
 226              		.cfi_offset 4, -12
 227              		.cfi_offset 7, -8
 228              		.cfi_offset 14, -4
 229 0002 83B0     		sub	sp, sp, #12
 230              		.cfi_def_cfa_offset 24
 231 0004 00AF     		add	r7, sp, #0
 232              		.cfi_def_cfa_register 7
 110:Generated_Source\PSoC4/CyLFClk.c ****     #if(CY_IP_SRSSV2)
 111:Generated_Source\PSoC4/CyLFClk.c ****         uint8  interruptState;
 112:Generated_Source\PSoC4/CyLFClk.c **** 
 113:Generated_Source\PSoC4/CyLFClk.c ****         /* Do nothing if WDT is locked or ILO is disabled */
 114:Generated_Source\PSoC4/CyLFClk.c ****         if (0u == CySysWdtLocked())
 233              		.loc 2 114 0
 234 0006 FFF7FEFF 		bl	CySysWdtLocked
 235 000a 031E     		sub	r3, r0, #0
 236 000c 22D1     		bne	.L10
 115:Generated_Source\PSoC4/CyLFClk.c ****         {
 116:Generated_Source\PSoC4/CyLFClk.c ****             if (0u != CySysClkIloEnabled())
 237              		.loc 2 116 0
 238 000e FFF7FEFF 		bl	CySysClkIloEnabled
 239 0012 031E     		sub	r3, r0, #0
 240 0014 1ED0     		beq	.L10
 117:Generated_Source\PSoC4/CyLFClk.c ****             {
 118:Generated_Source\PSoC4/CyLFClk.c **** 
 119:Generated_Source\PSoC4/CyLFClk.c ****             #if (CY_IP_WCO)
 120:Generated_Source\PSoC4/CyLFClk.c ****                 if (CY_SYS_CLK_LFCLK_SRC_ILO == CySysClkGetLfclkSource())
 241              		.loc 2 120 0
 242 0016 FFF7FEFF 		bl	CySysClkGetLfclkSource
 243 001a 031E     		sub	r3, r0, #0
 244 001c 14D1     		bne	.L12
 121:Generated_Source\PSoC4/CyLFClk.c ****                 {
 122:Generated_Source\PSoC4/CyLFClk.c ****             #endif /* (CY_IP_WCO) */
 123:Generated_Source\PSoC4/CyLFClk.c **** 
 124:Generated_Source\PSoC4/CyLFClk.c ****                 interruptState = CyEnterCriticalSection();
 245              		.loc 2 124 0
 246 001e FC1D     		add	r4, r7, #7
 247 0020 FFF7FEFF 		bl	CyEnterCriticalSection
 248 0024 031C     		mov	r3, r0
 249 0026 2370     		strb	r3, [r4]
 125:Generated_Source\PSoC4/CyLFClk.c ****                 CySysClkLfclkPosedgeCatch();
 250              		.loc 2 125 0
 251 0028 FFF7FEFF 		bl	CySysClkLfclkPosedgeCatch
 126:Generated_Source\PSoC4/CyLFClk.c ****                 CY_SYS_CLK_ILO_CONFIG_REG &= (uint32) ( ~(uint32)CY_SYS_CLK_ILO_CONFIG_ENABLE);
 252              		.loc 2 126 0
 253 002c 0B4B     		ldr	r3, .L13
 254 002e 0B4A     		ldr	r2, .L13
 255 0030 1268     		ldr	r2, [r2]
 256 0032 5200     		lsl	r2, r2, #1
 257 0034 5208     		lsr	r2, r2, #1
ARM GAS  C:\Users\akita\AppData\Local\Temp\ccTFmJyh.s 			page 20


 258 0036 1A60     		str	r2, [r3]
 127:Generated_Source\PSoC4/CyLFClk.c ****                 CySysClkLfclkPosedgeRestore();
 259              		.loc 2 127 0
 260 0038 FFF7FEFF 		bl	CySysClkLfclkPosedgeRestore
 128:Generated_Source\PSoC4/CyLFClk.c ****                 CyExitCriticalSection(interruptState);
 261              		.loc 2 128 0
 262 003c FB1D     		add	r3, r7, #7
 263 003e 1B78     		ldrb	r3, [r3]
 264 0040 181C     		mov	r0, r3
 265 0042 FFF7FEFF 		bl	CyExitCriticalSection
 266 0046 05E0     		b	.L10
 267              	.L12:
 129:Generated_Source\PSoC4/CyLFClk.c **** 
 130:Generated_Source\PSoC4/CyLFClk.c ****             #if (CY_IP_WCO)
 131:Generated_Source\PSoC4/CyLFClk.c ****                 }
 132:Generated_Source\PSoC4/CyLFClk.c ****                 else /* Safe to disable - shortened pulse does not impact peripheral */
 133:Generated_Source\PSoC4/CyLFClk.c ****                 {
 134:Generated_Source\PSoC4/CyLFClk.c ****                     CY_SYS_CLK_ILO_CONFIG_REG &= (uint32) ( ~(uint32)CY_SYS_CLK_ILO_CONFIG_ENABLE);
 268              		.loc 2 134 0
 269 0048 044B     		ldr	r3, .L13
 270 004a 044A     		ldr	r2, .L13
 271 004c 1268     		ldr	r2, [r2]
 272 004e 5200     		lsl	r2, r2, #1
 273 0050 5208     		lsr	r2, r2, #1
 274 0052 1A60     		str	r2, [r3]
 275              	.L10:
 135:Generated_Source\PSoC4/CyLFClk.c ****                 }
 136:Generated_Source\PSoC4/CyLFClk.c ****             #endif /* (CY_IP_WCO) */
 137:Generated_Source\PSoC4/CyLFClk.c **** 
 138:Generated_Source\PSoC4/CyLFClk.c ****             }
 139:Generated_Source\PSoC4/CyLFClk.c ****         }
 140:Generated_Source\PSoC4/CyLFClk.c ****     #else
 141:Generated_Source\PSoC4/CyLFClk.c ****         CY_SYS_CLK_ILO_CONFIG_REG &= ( uint32 ) ( ~( uint32 )CY_SYS_CLK_ILO_CONFIG_ENABLE);
 142:Generated_Source\PSoC4/CyLFClk.c ****     #endif /* (CY_IP_SRSSV2) */
 143:Generated_Source\PSoC4/CyLFClk.c **** }
 276              		.loc 2 143 0
 277 0054 BD46     		mov	sp, r7
 278 0056 03B0     		add	sp, sp, #12
 279              		@ sp needed
 280 0058 90BD     		pop	{r4, r7, pc}
 281              	.L14:
 282 005a C046     		.align	2
 283              	.L13:
 284 005c 04010B40 		.word	1074462980
 285              		.cfi_endproc
 286              	.LFE3:
 287              		.size	CySysClkIloStop, .-CySysClkIloStop
 288              		.section	.text.CySysClkIloStartMeasurement,"ax",%progbits
 289              		.align	2
 290              		.global	CySysClkIloStartMeasurement
 291              		.code	16
 292              		.thumb_func
 293              		.type	CySysClkIloStartMeasurement, %function
 294              	CySysClkIloStartMeasurement:
 295              	.LFB4:
 144:Generated_Source\PSoC4/CyLFClk.c **** 
 145:Generated_Source\PSoC4/CyLFClk.c **** 
ARM GAS  C:\Users\akita\AppData\Local\Temp\ccTFmJyh.s 			page 21


 146:Generated_Source\PSoC4/CyLFClk.c **** /******************************************************************************
 147:Generated_Source\PSoC4/CyLFClk.c **** * Function Name: CySysClkIloStartMeasurement
 148:Generated_Source\PSoC4/CyLFClk.c **** ***************************************************************************//**
 149:Generated_Source\PSoC4/CyLFClk.c **** * \brief
 150:Generated_Source\PSoC4/CyLFClk.c **** * Starts the ILO accuracy measurement.
 151:Generated_Source\PSoC4/CyLFClk.c **** *
 152:Generated_Source\PSoC4/CyLFClk.c **** * This function is non-blocking and needs to be called before using the 
 153:Generated_Source\PSoC4/CyLFClk.c **** * CySysClkIloTrim() and CySysClkIloCompensate() API.
 154:Generated_Source\PSoC4/CyLFClk.c **** *
 155:Generated_Source\PSoC4/CyLFClk.c **** * This API configures measurement counters to be sourced by SysClk (Counter 1)
 156:Generated_Source\PSoC4/CyLFClk.c **** * and ILO (Counter 2). 
 157:Generated_Source\PSoC4/CyLFClk.c **** *
 158:Generated_Source\PSoC4/CyLFClk.c **** * \note SysClk should be sourced by IMO. Otherwise CySysClkIloTrim() and 
 159:Generated_Source\PSoC4/CyLFClk.c **** * CySysClkIloCompensate() API can give incorrect results.
 160:Generated_Source\PSoC4/CyLFClk.c **** *
 161:Generated_Source\PSoC4/CyLFClk.c **** * In addition, this API stores the factory ILO trim settings on the first call 
 162:Generated_Source\PSoC4/CyLFClk.c **** * after reset. This stored factory setting is used by the 
 163:Generated_Source\PSoC4/CyLFClk.c **** * CySysClkIloRestoreFactoryTrim() API to restore the ILO factory trim. 
 164:Generated_Source\PSoC4/CyLFClk.c **** * Hence, it is important to call this API before restoring the ILO 
 165:Generated_Source\PSoC4/CyLFClk.c **** * factory trim settings.
 166:Generated_Source\PSoC4/CyLFClk.c **** *
 167:Generated_Source\PSoC4/CyLFClk.c **** ******************************************************************************/
 168:Generated_Source\PSoC4/CyLFClk.c **** void CySysClkIloStartMeasurement(void)
 169:Generated_Source\PSoC4/CyLFClk.c **** {
 296              		.loc 2 169 0
 297              		.cfi_startproc
 298 0000 80B5     		push	{r7, lr}
 299              		.cfi_def_cfa_offset 8
 300              		.cfi_offset 7, -8
 301              		.cfi_offset 14, -4
 302 0002 00AF     		add	r7, sp, #0
 303              		.cfi_def_cfa_register 7
 170:Generated_Source\PSoC4/CyLFClk.c **** #if(CY_IP_SRSSV2 && (!(CY_PSOC4_4100 || CY_PSOC4_4200)))
 171:Generated_Source\PSoC4/CyLFClk.c ****     static uint8 iloTrimTrig = 0u;
 172:Generated_Source\PSoC4/CyLFClk.c **** 
 173:Generated_Source\PSoC4/CyLFClk.c ****     /* Write default ILO trim value while ILO starting ( Cypress ID 225244 )*/
 174:Generated_Source\PSoC4/CyLFClk.c ****     if (0u == iloTrimTrig)
 304              		.loc 2 174 0
 305 0004 114B     		ldr	r3, .L17
 306 0006 1B78     		ldrb	r3, [r3]
 307 0008 002B     		cmp	r3, #0
 308 000a 0BD1     		bne	.L16
 175:Generated_Source\PSoC4/CyLFClk.c ****     {
 176:Generated_Source\PSoC4/CyLFClk.c ****         defaultIloTrimRegValue = ((uint8)(CY_SYS_CLK_ILO_TRIM_REG & CY_SYS_CLK_ILO_TRIM_MASK));
 309              		.loc 2 176 0
 310 000c 104B     		ldr	r3, .L17+4
 311 000e 1B68     		ldr	r3, [r3]
 312 0010 DBB2     		uxtb	r3, r3
 313 0012 9BB2     		uxth	r3, r3
 314 0014 0F22     		mov	r2, #15
 315 0016 1340     		and	r3, r2
 316 0018 9AB2     		uxth	r2, r3
 317 001a 0E4B     		ldr	r3, .L17+8
 318 001c 1A80     		strh	r2, [r3]
 177:Generated_Source\PSoC4/CyLFClk.c ****         iloTrimTrig = 1u;
 319              		.loc 2 177 0
 320 001e 0B4B     		ldr	r3, .L17
ARM GAS  C:\Users\akita\AppData\Local\Temp\ccTFmJyh.s 			page 22


 321 0020 0122     		mov	r2, #1
 322 0022 1A70     		strb	r2, [r3]
 323              	.L16:
 178:Generated_Source\PSoC4/CyLFClk.c ****     }
 179:Generated_Source\PSoC4/CyLFClk.c **** #endif /* (CY_IP_SRSSV2 && (!(CY_PSOC4_4100 || CY_PSOC4_4200))) */
 180:Generated_Source\PSoC4/CyLFClk.c **** 
 181:Generated_Source\PSoC4/CyLFClk.c ****     /* Configure measurement counters to source by SysClk (Counter 1) and ILO (Counter 2)*/
 182:Generated_Source\PSoC4/CyLFClk.c ****     CY_SYS_CLK_DFT_REG = (CY_SYS_CLK_DFT_REG & (uint32) ~CY_SYS_CLK_DFT_SELECT_DEFAULT_MASK) |
 324              		.loc 2 182 0
 325 0024 0C4B     		ldr	r3, .L17+12
 326 0026 0C4A     		ldr	r2, .L17+12
 327 0028 1268     		ldr	r2, [r2]
 328 002a 0C49     		ldr	r1, .L17+16
 329 002c 0A40     		and	r2, r1
 330 002e 8021     		mov	r1, #128
 331 0030 4900     		lsl	r1, r1, #1
 332 0032 0A43     		orr	r2, r1
 333 0034 1A60     		str	r2, [r3]
 183:Generated_Source\PSoC4/CyLFClk.c ****                             CY_SYS_CLK_SEL_ILO_DFT_SOURCE; 
 184:Generated_Source\PSoC4/CyLFClk.c **** 
 185:Generated_Source\PSoC4/CyLFClk.c ****     CY_SYS_TST_DDFT_CTRL_REG = (CY_SYS_TST_DDFT_CTRL_REG & (uint32) ~ CY_SYS_TST_DDFT_CTRL_REG_DEFA
 334              		.loc 2 185 0
 335 0036 0A4B     		ldr	r3, .L17+20
 336 0038 094A     		ldr	r2, .L17+20
 337 003a 1268     		ldr	r2, [r2]
 338 003c 0949     		ldr	r1, .L17+24
 339 003e 0A40     		and	r2, r1
 340 0040 0949     		ldr	r1, .L17+28
 341 0042 0A43     		orr	r2, r1
 342 0044 1A60     		str	r2, [r3]
 186:Generated_Source\PSoC4/CyLFClk.c ****                             CY_SYS_TST_DDFT_CTRL_REG_SEL2_CLK1;
 187:Generated_Source\PSoC4/CyLFClk.c **** }
 343              		.loc 2 187 0
 344 0046 BD46     		mov	sp, r7
 345              		@ sp needed
 346 0048 80BD     		pop	{r7, pc}
 347              	.L18:
 348 004a C046     		.align	2
 349              	.L17:
 350 004c 18000000 		.word	iloTrimTrig.4745
 351 0050 24FF0B40 		.word	1074528036
 352 0054 00000000 		.word	defaultIloTrimRegValue
 353 0058 10010B40 		.word	1074462992
 354 005c FFF0FFFF 		.word	-3841
 355 0060 08000340 		.word	1073938440
 356 0064 C0C0FFFF 		.word	-16192
 357 0068 0A0B0000 		.word	2826
 358              		.cfi_endproc
 359              	.LFE4:
 360              		.size	CySysClkIloStartMeasurement, .-CySysClkIloStartMeasurement
 361              		.section	.text.CySysClkIloStopMeasurement,"ax",%progbits
 362              		.align	2
 363              		.global	CySysClkIloStopMeasurement
 364              		.code	16
 365              		.thumb_func
 366              		.type	CySysClkIloStopMeasurement, %function
 367              	CySysClkIloStopMeasurement:
ARM GAS  C:\Users\akita\AppData\Local\Temp\ccTFmJyh.s 			page 23


 368              	.LFB5:
 188:Generated_Source\PSoC4/CyLFClk.c **** 
 189:Generated_Source\PSoC4/CyLFClk.c **** 
 190:Generated_Source\PSoC4/CyLFClk.c **** /******************************************************************************
 191:Generated_Source\PSoC4/CyLFClk.c **** * Function Name: CySysClkIloStopMeasurement
 192:Generated_Source\PSoC4/CyLFClk.c **** ***************************************************************************//**
 193:Generated_Source\PSoC4/CyLFClk.c **** * \brief
 194:Generated_Source\PSoC4/CyLFClk.c **** * Stops the ILO accuracy measurement.
 195:Generated_Source\PSoC4/CyLFClk.c **** *
 196:Generated_Source\PSoC4/CyLFClk.c **** * Calling this function immediately stops the the ILO frequency measurement.
 197:Generated_Source\PSoC4/CyLFClk.c **** * This function should be called before placing the device to deepsleep, if 
 198:Generated_Source\PSoC4/CyLFClk.c **** * CySysClkIloStartMeasurement() API was called before. 
 199:Generated_Source\PSoC4/CyLFClk.c **** *
 200:Generated_Source\PSoC4/CyLFClk.c **** ******************************************************************************/
 201:Generated_Source\PSoC4/CyLFClk.c **** void CySysClkIloStopMeasurement(void)
 202:Generated_Source\PSoC4/CyLFClk.c **** {
 369              		.loc 2 202 0
 370              		.cfi_startproc
 371 0000 80B5     		push	{r7, lr}
 372              		.cfi_def_cfa_offset 8
 373              		.cfi_offset 7, -8
 374              		.cfi_offset 14, -4
 375 0002 00AF     		add	r7, sp, #0
 376              		.cfi_def_cfa_register 7
 203:Generated_Source\PSoC4/CyLFClk.c ****     /* Set default configurations in 11...8 DFT register bits to zero */
 204:Generated_Source\PSoC4/CyLFClk.c ****     CY_SYS_CLK_DFT_REG &= ~CY_SYS_CLK_DFT_SELECT_DEFAULT_MASK;
 377              		.loc 2 204 0
 378 0004 034B     		ldr	r3, .L20
 379 0006 034A     		ldr	r2, .L20
 380 0008 1268     		ldr	r2, [r2]
 381 000a 0349     		ldr	r1, .L20+4
 382 000c 0A40     		and	r2, r1
 383 000e 1A60     		str	r2, [r3]
 205:Generated_Source\PSoC4/CyLFClk.c ****     #if(CY_IP_SRSSLT)
 206:Generated_Source\PSoC4/CyLFClk.c ****         CY_SYS_TST_DDFT_CTRL_REG &= ((uint32) CY_SYS_TST_DDFT_CTRL_REG_DEFAULT_MASK);
 207:Generated_Source\PSoC4/CyLFClk.c ****     #endif /* (CY_IP_SRSSLT) */
 208:Generated_Source\PSoC4/CyLFClk.c **** }
 384              		.loc 2 208 0
 385 0010 BD46     		mov	sp, r7
 386              		@ sp needed
 387 0012 80BD     		pop	{r7, pc}
 388              	.L21:
 389              		.align	2
 390              	.L20:
 391 0014 10010B40 		.word	1074462992
 392 0018 FFF0FFFF 		.word	-3841
 393              		.cfi_endproc
 394              	.LFE5:
 395              		.size	CySysClkIloStopMeasurement, .-CySysClkIloStopMeasurement
 396              		.global	__aeabi_uidiv
 397              		.section	.text.CySysClkIloCompensate,"ax",%progbits
 398              		.align	2
 399              		.global	CySysClkIloCompensate
 400              		.code	16
 401              		.thumb_func
 402              		.type	CySysClkIloCompensate, %function
 403              	CySysClkIloCompensate:
ARM GAS  C:\Users\akita\AppData\Local\Temp\ccTFmJyh.s 			page 24


 404              	.LFB6:
 209:Generated_Source\PSoC4/CyLFClk.c **** 
 210:Generated_Source\PSoC4/CyLFClk.c **** 
 211:Generated_Source\PSoC4/CyLFClk.c **** /******************************************************************************
 212:Generated_Source\PSoC4/CyLFClk.c **** * Function Name: CySysClkIloCompensate
 213:Generated_Source\PSoC4/CyLFClk.c **** ***************************************************************************//**
 214:Generated_Source\PSoC4/CyLFClk.c **** * \brief
 215:Generated_Source\PSoC4/CyLFClk.c **** * This API measures the current ILO accuracy.
 216:Generated_Source\PSoC4/CyLFClk.c **** *
 217:Generated_Source\PSoC4/CyLFClk.c **** * Basing on the measured frequency the required number of ILO cycles for a 
 218:Generated_Source\PSoC4/CyLFClk.c **** * given delay (in microseconds) is obtained. The desired delay that needs to 
 219:Generated_Source\PSoC4/CyLFClk.c **** * be compensated is passed through the desiredDelay parameter. The compensated 
 220:Generated_Source\PSoC4/CyLFClk.c **** * cycle count is returned through the compesatedCycles pointer.
 221:Generated_Source\PSoC4/CyLFClk.c **** * The compensated ILO cycles can then be used to define the WDT period value, 
 222:Generated_Source\PSoC4/CyLFClk.c **** * effectively compensating for the ILO inaccuracy and allowing a more 
 223:Generated_Source\PSoC4/CyLFClk.c **** * accurate WDT interrupt generation.
 224:Generated_Source\PSoC4/CyLFClk.c **** *
 225:Generated_Source\PSoC4/CyLFClk.c **** * CySysClkIloStartMeasurement() API should be called prior to calling this API. 
 226:Generated_Source\PSoC4/CyLFClk.c **** *
 227:Generated_Source\PSoC4/CyLFClk.c **** * \note SysClk should be sourced by IMO. Otherwise CySysClkIloTrim() and 
 228:Generated_Source\PSoC4/CyLFClk.c **** * CySysClkIloCompensate() API can give incorrect results.
 229:Generated_Source\PSoC4/CyLFClk.c **** *
 230:Generated_Source\PSoC4/CyLFClk.c **** * \note If the System clock frequency is changed in runtime, the CyDelayFreq() 
 231:Generated_Source\PSoC4/CyLFClk.c **** * with the appropriate parameter (Frequency of bus clock in Hertz) should be 
 232:Generated_Source\PSoC4/CyLFClk.c **** * called before calling a next CySysClkIloCompensate().
 233:Generated_Source\PSoC4/CyLFClk.c **** *
 234:Generated_Source\PSoC4/CyLFClk.c **** * \warning Do not enter deep sleep mode until the function returns CYRET_SUCCESS.
 235:Generated_Source\PSoC4/CyLFClk.c **** *
 236:Generated_Source\PSoC4/CyLFClk.c **** * \param desiredDelay Required delay in microseconds.
 237:Generated_Source\PSoC4/CyLFClk.c **** *
 238:Generated_Source\PSoC4/CyLFClk.c **** * \param *compensatedCycles The pointer to the variable in which the required
 239:Generated_Source\PSoC4/CyLFClk.c **** * number of ILO cycles for the given delay will be returned.
 240:Generated_Source\PSoC4/CyLFClk.c **** *
 241:Generated_Source\PSoC4/CyLFClk.c **** * \details
 242:Generated_Source\PSoC4/CyLFClk.c **** * The value returned in *compensatedCycles pointer is not valid until the 
 243:Generated_Source\PSoC4/CyLFClk.c **** * function returns CYRET_SUCCESS.
 244:Generated_Source\PSoC4/CyLFClk.c **** *
 245:Generated_Source\PSoC4/CyLFClk.c **** * The desiredDelay parameter value should be in next range: <br>From 100 to 
 246:Generated_Source\PSoC4/CyLFClk.c **** * 2 000 000 microseconds for PSoC 4000 / PSoC 4000S / PSoC 4100S / PSoC Analog 
 247:Generated_Source\PSoC4/CyLFClk.c **** * Coprocessor devices.<br>From 100 to 4 000 000 000 microseconds for 
 248:Generated_Source\PSoC4/CyLFClk.c **** * PSoC 4100 / PSoC 4200 / PSoC 4100 BLE / PSoC 4200 BLE / PRoC BLE /
 249:Generated_Source\PSoC4/CyLFClk.c **** * PSoC 4200L / PSoC 4100M /PSoC 4200M devices.
 250:Generated_Source\PSoC4/CyLFClk.c **** *
 251:Generated_Source\PSoC4/CyLFClk.c **** * \return CYRET_SUCCESS - The compensation process is complete and the 
 252:Generated_Source\PSoC4/CyLFClk.c **** * compensated cycles value is returned in the compensatedCycles pointer.
 253:Generated_Source\PSoC4/CyLFClk.c **** *
 254:Generated_Source\PSoC4/CyLFClk.c **** * \return CYRET_STARTED - Indicates measurement is in progress. It is 
 255:Generated_Source\PSoC4/CyLFClk.c **** * strongly recommended to do not make pauses between API calling. The 
 256:Generated_Source\PSoC4/CyLFClk.c **** * function should be called repeatedly until the API returns CYRET_SUCCESS.
 257:Generated_Source\PSoC4/CyLFClk.c **** *
 258:Generated_Source\PSoC4/CyLFClk.c **** * \return CYRET_INVALID_STATE - Indicates that measurement not started. 
 259:Generated_Source\PSoC4/CyLFClk.c **** * The user should call CySysClkIloStartMeasurement() API before calling 
 260:Generated_Source\PSoC4/CyLFClk.c **** * this API.
 261:Generated_Source\PSoC4/CyLFClk.c **** *
 262:Generated_Source\PSoC4/CyLFClk.c **** * \note For a correct WDT or DeepSleep Timers functioning with ILO compensating 
 263:Generated_Source\PSoC4/CyLFClk.c **** * the CySysClkIloCompensate() should be called before WDT or DeepSleep Timers 
 264:Generated_Source\PSoC4/CyLFClk.c **** * enabling.
ARM GAS  C:\Users\akita\AppData\Local\Temp\ccTFmJyh.s 			page 25


 265:Generated_Source\PSoC4/CyLFClk.c **** *
 266:Generated_Source\PSoC4/CyLFClk.c **** *******************************************************************************/
 267:Generated_Source\PSoC4/CyLFClk.c **** cystatus CySysClkIloCompensate(uint32 desiredDelay , uint32* compensatedCycles)
 268:Generated_Source\PSoC4/CyLFClk.c **** {
 405              		.loc 2 268 0
 406              		.cfi_startproc
 407 0000 90B5     		push	{r4, r7, lr}
 408              		.cfi_def_cfa_offset 12
 409              		.cfi_offset 4, -12
 410              		.cfi_offset 7, -8
 411              		.cfi_offset 14, -4
 412 0002 87B0     		sub	sp, sp, #28
 413              		.cfi_def_cfa_offset 40
 414 0004 00AF     		add	r7, sp, #0
 415              		.cfi_def_cfa_register 7
 416 0006 7860     		str	r0, [r7, #4]
 417 0008 3960     		str	r1, [r7]
 269:Generated_Source\PSoC4/CyLFClk.c ****     uint32 iloCompensatedCycles;
 270:Generated_Source\PSoC4/CyLFClk.c ****     uint32 desiredDelayInCounts;
 271:Generated_Source\PSoC4/CyLFClk.c ****     static uint32 compensateRunningStatus = CY_SYS_CLK_TRIM_OR_COMP_FINISHED;
 272:Generated_Source\PSoC4/CyLFClk.c ****     uint32 checkStatus;
 273:Generated_Source\PSoC4/CyLFClk.c ****     cystatus returnStatus;
 274:Generated_Source\PSoC4/CyLFClk.c **** 
 275:Generated_Source\PSoC4/CyLFClk.c ****     checkStatus = (uint32) (CY_SYS_CLK_DFT_REG & (uint32) CY_SYS_TST_DDFT_CTRL_REG_DEFAULT_MASK);
 418              		.loc 2 275 0
 419 000a 484B     		ldr	r3, .L34
 420 000c 1B68     		ldr	r3, [r3]
 421 000e 484A     		ldr	r2, .L34+4
 422 0010 1340     		and	r3, r2
 423 0012 FB60     		str	r3, [r7, #12]
 276:Generated_Source\PSoC4/CyLFClk.c **** 
 277:Generated_Source\PSoC4/CyLFClk.c ****     /* Check if CySysStartMeasurement was called before */
 278:Generated_Source\PSoC4/CyLFClk.c ****     if((checkStatus == CY_SYS_CLK_SEL_ILO_DFT_SOURCE) && 
 424              		.loc 2 278 0
 425 0014 FA68     		ldr	r2, [r7, #12]
 426 0016 8023     		mov	r3, #128
 427 0018 5B00     		lsl	r3, r3, #1
 428 001a 9A42     		cmp	r2, r3
 429 001c 00D0     		beq	.LCB327
 430 001e 7DE0     		b	.L23	@long jump
 431              	.LCB327:
 279:Generated_Source\PSoC4/CyLFClk.c ****        (CY_SYS_TST_DDFT_CTRL_REG == CY_SYS_TST_DDFT_CTRL_REG_SEL2_CLK1) &&
 432              		.loc 2 279 0 discriminator 1
 433 0020 444B     		ldr	r3, .L34+8
 434 0022 1B68     		ldr	r3, [r3]
 278:Generated_Source\PSoC4/CyLFClk.c ****        (CY_SYS_TST_DDFT_CTRL_REG == CY_SYS_TST_DDFT_CTRL_REG_SEL2_CLK1) &&
 435              		.loc 2 278 0 discriminator 1
 436 0024 444A     		ldr	r2, .L34+12
 437 0026 9342     		cmp	r3, r2
 438 0028 00D0     		beq	.LCB332
 439 002a 77E0     		b	.L23	@long jump
 440              	.LCB332:
 441              		.loc 2 279 0
 442 002c 7B68     		ldr	r3, [r7, #4]
 443 002e 434A     		ldr	r2, .L34+16
 444 0030 9342     		cmp	r3, r2
 445 0032 00D9     		bls	.LCB336
ARM GAS  C:\Users\akita\AppData\Local\Temp\ccTFmJyh.s 			page 26


 446 0034 72E0     		b	.L23	@long jump
 447              	.LCB336:
 280:Generated_Source\PSoC4/CyLFClk.c ****        (CY_SYS_CLK_MAX_DELAY_US >= desiredDelay) &&
 448              		.loc 2 280 0
 449 0036 7B68     		ldr	r3, [r7, #4]
 450 0038 632B     		cmp	r3, #99
 451 003a 6FD9     		bls	.L23
 281:Generated_Source\PSoC4/CyLFClk.c ****        (CY_SYS_CLK_MIN_DELAY_US <= desiredDelay) &&
 452              		.loc 2 281 0
 453 003c 3B68     		ldr	r3, [r7]
 454 003e 002B     		cmp	r3, #0
 455 0040 6CD0     		beq	.L23
 282:Generated_Source\PSoC4/CyLFClk.c ****        (compensatedCycles !=  NULL))
 283:Generated_Source\PSoC4/CyLFClk.c ****     {
 284:Generated_Source\PSoC4/CyLFClk.c ****         if(CY_SYS_CLK_TRIM_OR_COMP_FINISHED != compensateRunningStatus)
 456              		.loc 2 284 0
 457 0042 3F4B     		ldr	r3, .L34+20
 458 0044 1B68     		ldr	r3, [r3]
 459 0046 002B     		cmp	r3, #0
 460 0048 5CD0     		beq	.L24
 285:Generated_Source\PSoC4/CyLFClk.c ****         {
 286:Generated_Source\PSoC4/CyLFClk.c ****             /* Wait until counter 1 stopped counting and after it calculate compensated cycles */
 287:Generated_Source\PSoC4/CyLFClk.c ****             if(0u != (CY_SYS_CNT_REG1_REG & CY_SYS_CLK_ILO_CALIBR_COMPLETE_MASK))
 461              		.loc 2 287 0
 462 004a 3E4B     		ldr	r3, .L34+24
 463 004c 1B68     		ldr	r3, [r3]
 464 004e 002B     		cmp	r3, #0
 465 0050 55DA     		bge	.L25
 288:Generated_Source\PSoC4/CyLFClk.c ****             {
 289:Generated_Source\PSoC4/CyLFClk.c ****                 if (0u != CY_SYS_CNT_REG2_REG)
 466              		.loc 2 289 0
 467 0052 3D4B     		ldr	r3, .L34+28
 468 0054 1B68     		ldr	r3, [r3]
 469 0056 002B     		cmp	r3, #0
 470 0058 4ED0     		beq	.L26
 290:Generated_Source\PSoC4/CyLFClk.c ****                 {
 291:Generated_Source\PSoC4/CyLFClk.c ****                     /* Calculate required number of ILO cycles for given delay */
 292:Generated_Source\PSoC4/CyLFClk.c ****                     #if(CY_IP_SRSSV2)
 293:Generated_Source\PSoC4/CyLFClk.c ****                         if (CY_SYS_CLK_DELAY_COUNTS_LIMIT < desiredDelay)
 471              		.loc 2 293 0
 472 005a 7B68     		ldr	r3, [r7, #4]
 473 005c 3B4A     		ldr	r2, .L34+32
 474 005e 9342     		cmp	r3, r2
 475 0060 1ED9     		bls	.L27
 294:Generated_Source\PSoC4/CyLFClk.c ****                         {
 295:Generated_Source\PSoC4/CyLFClk.c ****                             desiredDelayInCounts = (desiredDelay / CY_SYS_CLK_ILO_PERIOD);
 476              		.loc 2 295 0
 477 0062 7B68     		ldr	r3, [r7, #4]
 478 0064 181C     		mov	r0, r3
 479 0066 1F21     		mov	r1, #31
 480 0068 FFF7FEFF 		bl	__aeabi_uidiv
 481 006c 031C     		mov	r3, r0
 482 006e BB60     		str	r3, [r7, #8]
 296:Generated_Source\PSoC4/CyLFClk.c ****                             iloCompensatedCycles = 
 297:Generated_Source\PSoC4/CyLFClk.c ****                             (((CY_SYS_CNT_REG2_REG * cydelayFreqHz) / (cydelayFreqHz >> CY_SYS_CLK_
 483              		.loc 2 297 0
 484 0070 354B     		ldr	r3, .L34+28
ARM GAS  C:\Users\akita\AppData\Local\Temp\ccTFmJyh.s 			page 27


 485 0072 1A68     		ldr	r2, [r3]
 486 0074 364B     		ldr	r3, .L34+36
 487 0076 1B68     		ldr	r3, [r3]
 488 0078 5A43     		mul	r2, r3
 489 007a 354B     		ldr	r3, .L34+36
 490 007c 1B68     		ldr	r3, [r3]
 491 007e 9B0A     		lsr	r3, r3, #10
 492 0080 101C     		mov	r0, r2
 493 0082 191C     		mov	r1, r3
 494 0084 FFF7FEFF 		bl	__aeabi_uidiv
 495 0088 031C     		mov	r3, r0
 496 008a 5C09     		lsr	r4, r3, #5
 298:Generated_Source\PSoC4/CyLFClk.c ****                                 CY_SYS_CLK_ILO_FREQ_2MSB) * (desiredDelayInCounts / CY_SYS_CLK_ILO_
 497              		.loc 2 298 0
 498 008c BB68     		ldr	r3, [r7, #8]
 499 008e 181C     		mov	r0, r3
 500 0090 FA23     		mov	r3, #250
 501 0092 9900     		lsl	r1, r3, #2
 502 0094 FFF7FEFF 		bl	__aeabi_uidiv
 503 0098 031C     		mov	r3, r0
 296:Generated_Source\PSoC4/CyLFClk.c ****                             iloCompensatedCycles = 
 504              		.loc 2 296 0
 505 009a 6343     		mul	r3, r4
 506 009c 7B61     		str	r3, [r7, #20]
 507 009e 22E0     		b	.L28
 508              	.L27:
 299:Generated_Source\PSoC4/CyLFClk.c ****                         }
 300:Generated_Source\PSoC4/CyLFClk.c ****                         else
 301:Generated_Source\PSoC4/CyLFClk.c ****                         {
 302:Generated_Source\PSoC4/CyLFClk.c ****                             desiredDelayInCounts = ((desiredDelay * CY_SYS_CLK_COEF_PHUNDRED) + 
 509              		.loc 2 302 0
 510 00a0 7B68     		ldr	r3, [r7, #4]
 511 00a2 6422     		mov	r2, #100
 512 00a4 5343     		mul	r3, r2
 513 00a6 2B4A     		ldr	r2, .L34+40
 514 00a8 9446     		mov	ip, r2
 515 00aa 6344     		add	r3, r3, ip
 516 00ac 181C     		mov	r0, r3
 517 00ae 2A49     		ldr	r1, .L34+44
 518 00b0 FFF7FEFF 		bl	__aeabi_uidiv
 519 00b4 031C     		mov	r3, r0
 520 00b6 BB60     		str	r3, [r7, #8]
 303:Generated_Source\PSoC4/CyLFClk.c ****                                                      CY_SYS_CLK_HALF_OF_CLOCK) / CY_SYS_CLK_ILO_PER
 304:Generated_Source\PSoC4/CyLFClk.c **** 
 305:Generated_Source\PSoC4/CyLFClk.c ****                             iloCompensatedCycles = (((CY_SYS_CNT_REG2_REG * cydelayFreqHz) / 
 521              		.loc 2 305 0
 522 00b8 234B     		ldr	r3, .L34+28
 523 00ba 1A68     		ldr	r2, [r3]
 524 00bc 244B     		ldr	r3, .L34+36
 525 00be 1B68     		ldr	r3, [r3]
 526 00c0 5A43     		mul	r2, r3
 306:Generated_Source\PSoC4/CyLFClk.c ****                                                      (cydelayFreqHz >> CY_SYS_CLK_SYS_CLK_DEVIDER))
 527              		.loc 2 306 0
 528 00c2 234B     		ldr	r3, .L34+36
 529 00c4 1B68     		ldr	r3, [r3]
 530 00c6 9B0A     		lsr	r3, r3, #10
 305:Generated_Source\PSoC4/CyLFClk.c ****                                                      (cydelayFreqHz >> CY_SYS_CLK_SYS_CLK_DEVIDER))
ARM GAS  C:\Users\akita\AppData\Local\Temp\ccTFmJyh.s 			page 28


 531              		.loc 2 305 0
 532 00c8 101C     		mov	r0, r2
 533 00ca 191C     		mov	r1, r3
 534 00cc FFF7FEFF 		bl	__aeabi_uidiv
 535 00d0 031C     		mov	r3, r0
 536 00d2 1A1C     		mov	r2, r3
 537              		.loc 2 306 0
 538 00d4 BB68     		ldr	r3, [r7, #8]
 539 00d6 5343     		mul	r3, r2
 305:Generated_Source\PSoC4/CyLFClk.c ****                                                      (cydelayFreqHz >> CY_SYS_CLK_SYS_CLK_DEVIDER))
 540              		.loc 2 305 0
 541 00d8 181C     		mov	r0, r3
 542 00da FA23     		mov	r3, #250
 543 00dc D901     		lsl	r1, r3, #7
 544 00de FFF7FEFF 		bl	__aeabi_uidiv
 545 00e2 031C     		mov	r3, r0
 546 00e4 7B61     		str	r3, [r7, #20]
 547              	.L28:
 307:Generated_Source\PSoC4/CyLFClk.c ****                                                      desiredDelayInCounts) / CY_SYS_CLK_ILO_DESIRED
 308:Generated_Source\PSoC4/CyLFClk.c ****                         }
 309:Generated_Source\PSoC4/CyLFClk.c ****                     #else /* (CY_IP_SRSSLT) */
 310:Generated_Source\PSoC4/CyLFClk.c ****                         desiredDelayInCounts = ((desiredDelay * CY_SYS_CLK_COEF_PHUNDRED) + CY_SYS_
 311:Generated_Source\PSoC4/CyLFClk.c ****                                                                                            CY_SYS_C
 312:Generated_Source\PSoC4/CyLFClk.c ****                         if(CY_SYS_CLK_MAX_LITE_NUMBER < desiredDelayInCounts)
 313:Generated_Source\PSoC4/CyLFClk.c ****                         {
 314:Generated_Source\PSoC4/CyLFClk.c ****                             iloCompensatedCycles = (((CY_SYS_CNT_REG2_REG * cydelayFreqHz) / (cydel
 315:Generated_Source\PSoC4/CyLFClk.c ****                                                    CY_SYS_CLK_SYS_CLK_DEVIDER)) / CY_SYS_CLK_ILO_FR
 316:Generated_Source\PSoC4/CyLFClk.c ****                                                    (desiredDelayInCounts / CY_SYS_CLK_ILO_FREQ_3LSB
 317:Generated_Source\PSoC4/CyLFClk.c ****                         }
 318:Generated_Source\PSoC4/CyLFClk.c ****                         else
 319:Generated_Source\PSoC4/CyLFClk.c ****                         {
 320:Generated_Source\PSoC4/CyLFClk.c ****                             iloCompensatedCycles = (((CY_SYS_CNT_REG2_REG * cydelayFreqHz) / 
 321:Generated_Source\PSoC4/CyLFClk.c ****                                                      (cydelayFreqHz >> CY_SYS_CLK_SYS_CLK_DEVIDER))
 322:Generated_Source\PSoC4/CyLFClk.c ****                                                      desiredDelayInCounts) / CY_SYS_CLK_ILO_DESIRED
 323:Generated_Source\PSoC4/CyLFClk.c ****                         }
 324:Generated_Source\PSoC4/CyLFClk.c ****                     #endif /* (CY_IP_SRSSV2) */
 325:Generated_Source\PSoC4/CyLFClk.c **** 
 326:Generated_Source\PSoC4/CyLFClk.c ****                     *compensatedCycles = iloCompensatedCycles;
 548              		.loc 2 326 0
 549 00e6 3B68     		ldr	r3, [r7]
 550 00e8 7A69     		ldr	r2, [r7, #20]
 551 00ea 1A60     		str	r2, [r3]
 327:Generated_Source\PSoC4/CyLFClk.c ****                     compensateRunningStatus = CY_SYS_CLK_TRIM_OR_COMP_FINISHED;
 552              		.loc 2 327 0
 553 00ec 144B     		ldr	r3, .L34+20
 554 00ee 0022     		mov	r2, #0
 555 00f0 1A60     		str	r2, [r3]
 328:Generated_Source\PSoC4/CyLFClk.c ****                     returnStatus = CYRET_SUCCESS;
 556              		.loc 2 328 0
 557 00f2 0023     		mov	r3, #0
 558 00f4 3B61     		str	r3, [r7, #16]
 559 00f6 10E0     		b	.L31
 560              	.L26:
 329:Generated_Source\PSoC4/CyLFClk.c ****                 }
 330:Generated_Source\PSoC4/CyLFClk.c ****                 else
 331:Generated_Source\PSoC4/CyLFClk.c ****                 {
 332:Generated_Source\PSoC4/CyLFClk.c ****                     returnStatus  = CYRET_INVALID_STATE;
ARM GAS  C:\Users\akita\AppData\Local\Temp\ccTFmJyh.s 			page 29


 561              		.loc 2 332 0
 562 00f8 1123     		mov	r3, #17
 563 00fa 3B61     		str	r3, [r7, #16]
 564 00fc 0DE0     		b	.L31
 565              	.L25:
 333:Generated_Source\PSoC4/CyLFClk.c ****                 }
 334:Generated_Source\PSoC4/CyLFClk.c ****             }
 335:Generated_Source\PSoC4/CyLFClk.c ****             else
 336:Generated_Source\PSoC4/CyLFClk.c ****             {
 337:Generated_Source\PSoC4/CyLFClk.c ****                 returnStatus = CYRET_STARTED;
 566              		.loc 2 337 0
 567 00fe 0723     		mov	r3, #7
 568 0100 3B61     		str	r3, [r7, #16]
 284:Generated_Source\PSoC4/CyLFClk.c ****         {
 569              		.loc 2 284 0
 570 0102 0DE0     		b	.L32
 571              	.L24:
 338:Generated_Source\PSoC4/CyLFClk.c ****             }
 339:Generated_Source\PSoC4/CyLFClk.c ****         }
 340:Generated_Source\PSoC4/CyLFClk.c ****         else
 341:Generated_Source\PSoC4/CyLFClk.c ****         {
 342:Generated_Source\PSoC4/CyLFClk.c ****             /* Reload CNTR 1 count value for next measurement cycle*/
 343:Generated_Source\PSoC4/CyLFClk.c ****             CY_SYS_CNT_REG1_REG = (cydelayFreqHz >> CY_SYS_CLK_SYS_CLK_DEVIDER);
 572              		.loc 2 343 0
 573 0104 0F4A     		ldr	r2, .L34+24
 574 0106 124B     		ldr	r3, .L34+36
 575 0108 1B68     		ldr	r3, [r3]
 576 010a 9B0A     		lsr	r3, r3, #10
 577 010c 1360     		str	r3, [r2]
 344:Generated_Source\PSoC4/CyLFClk.c ****             compensateRunningStatus = CY_SYS_CLK_TRIM_OR_COMP_STARTED;
 578              		.loc 2 344 0
 579 010e 0C4B     		ldr	r3, .L34+20
 580 0110 0122     		mov	r2, #1
 581 0112 1A60     		str	r2, [r3]
 345:Generated_Source\PSoC4/CyLFClk.c ****             returnStatus = CYRET_STARTED;
 582              		.loc 2 345 0
 583 0114 0723     		mov	r3, #7
 584 0116 3B61     		str	r3, [r7, #16]
 284:Generated_Source\PSoC4/CyLFClk.c ****         {
 585              		.loc 2 284 0
 586 0118 02E0     		b	.L32
 587              	.L31:
 284:Generated_Source\PSoC4/CyLFClk.c ****         {
 588              		.loc 2 284 0 is_stmt 0 discriminator 2
 589 011a 01E0     		b	.L32
 590              	.L23:
 346:Generated_Source\PSoC4/CyLFClk.c ****         }
 347:Generated_Source\PSoC4/CyLFClk.c ****     }
 348:Generated_Source\PSoC4/CyLFClk.c ****     else
 349:Generated_Source\PSoC4/CyLFClk.c ****     {
 350:Generated_Source\PSoC4/CyLFClk.c ****         returnStatus = CYRET_INVALID_STATE;
 591              		.loc 2 350 0 is_stmt 1
 592 011c 1123     		mov	r3, #17
 593 011e 3B61     		str	r3, [r7, #16]
 594              	.L32:
 351:Generated_Source\PSoC4/CyLFClk.c ****     }
 352:Generated_Source\PSoC4/CyLFClk.c **** 
ARM GAS  C:\Users\akita\AppData\Local\Temp\ccTFmJyh.s 			page 30


 353:Generated_Source\PSoC4/CyLFClk.c ****     return (returnStatus);
 595              		.loc 2 353 0
 596 0120 3B69     		ldr	r3, [r7, #16]
 354:Generated_Source\PSoC4/CyLFClk.c **** }
 597              		.loc 2 354 0
 598 0122 181C     		mov	r0, r3
 599 0124 BD46     		mov	sp, r7
 600 0126 07B0     		add	sp, sp, #28
 601              		@ sp needed
 602 0128 90BD     		pop	{r4, r7, pc}
 603              	.L35:
 604 012a C046     		.align	2
 605              	.L34:
 606 012c 10010B40 		.word	1074462992
 607 0130 3F3F0000 		.word	16191
 608 0134 08000340 		.word	1073938440
 609 0138 0A0B0000 		.word	2826
 610 013c 00286BEE 		.word	-294967296
 611 0140 1C000000 		.word	compensateRunningStatus.4755
 612 0144 18000340 		.word	1073938456
 613 0148 1C000340 		.word	1073938460
 614 014c 60D10000 		.word	53600
 615 0150 00000000 		.word	cydelayFreqHz
 616 0154 0D030000 		.word	781
 617 0158 350C0000 		.word	3125
 618              		.cfi_endproc
 619              	.LFE6:
 620              		.size	CySysClkIloCompensate, .-CySysClkIloCompensate
 621              		.section	.text.CySysClkIloEnabled,"ax",%progbits
 622              		.align	2
 623              		.code	16
 624              		.thumb_func
 625              		.type	CySysClkIloEnabled, %function
 626              	CySysClkIloEnabled:
 627              	.LFB7:
 355:Generated_Source\PSoC4/CyLFClk.c **** 
 356:Generated_Source\PSoC4/CyLFClk.c **** 
 357:Generated_Source\PSoC4/CyLFClk.c **** #if(CY_IP_SRSSV2)
 358:Generated_Source\PSoC4/CyLFClk.c ****     /*******************************************************************************
 359:Generated_Source\PSoC4/CyLFClk.c ****     * Function Name: CySysClkIloEnabled
 360:Generated_Source\PSoC4/CyLFClk.c ****     ****************************************************************************//**
 361:Generated_Source\PSoC4/CyLFClk.c ****     *
 362:Generated_Source\PSoC4/CyLFClk.c ****     * \internal
 363:Generated_Source\PSoC4/CyLFClk.c ****     * Reports the ILO enable state.
 364:Generated_Source\PSoC4/CyLFClk.c ****     *
 365:Generated_Source\PSoC4/CyLFClk.c ****     * \return
 366:Generated_Source\PSoC4/CyLFClk.c ****     * 1 if ILO is enabled, and 0 if ILO is disabled.
 367:Generated_Source\PSoC4/CyLFClk.c ****     *
 368:Generated_Source\PSoC4/CyLFClk.c ****     * \endinternal
 369:Generated_Source\PSoC4/CyLFClk.c ****     ********************************************************************************/
 370:Generated_Source\PSoC4/CyLFClk.c ****     static uint32 CySysClkIloEnabled(void)
 371:Generated_Source\PSoC4/CyLFClk.c ****     {
 628              		.loc 2 371 0
 629              		.cfi_startproc
 630 0000 80B5     		push	{r7, lr}
 631              		.cfi_def_cfa_offset 8
 632              		.cfi_offset 7, -8
ARM GAS  C:\Users\akita\AppData\Local\Temp\ccTFmJyh.s 			page 31


 633              		.cfi_offset 14, -4
 634 0002 00AF     		add	r7, sp, #0
 635              		.cfi_def_cfa_register 7
 372:Generated_Source\PSoC4/CyLFClk.c ****         /* Prohibits writing to WDT registers and ILO/WCO registers when not equal to 0 */
 373:Generated_Source\PSoC4/CyLFClk.c ****         return ((0u != (CY_SYS_CLK_ILO_CONFIG_REG & (uint32)(CY_SYS_CLK_ILO_CONFIG_ENABLE))) ?
 636              		.loc 2 373 0
 637 0004 044B     		ldr	r3, .L40
 638 0006 1B68     		ldr	r3, [r3]
 374:Generated_Source\PSoC4/CyLFClk.c ****             (uint32) 1u :
 639              		.loc 2 374 0
 640 0008 002B     		cmp	r3, #0
 641 000a 01DA     		bge	.L37
 642              		.loc 2 374 0 is_stmt 0 discriminator 1
 643 000c 0123     		mov	r3, #1
 644 000e 00E0     		b	.L38
 645              	.L37:
 646              		.loc 2 374 0 discriminator 2
 647 0010 0023     		mov	r3, #0
 648              	.L38:
 375:Generated_Source\PSoC4/CyLFClk.c ****             (uint32) 0u);
 376:Generated_Source\PSoC4/CyLFClk.c ****     }
 649              		.loc 2 376 0 is_stmt 1
 650 0012 181C     		mov	r0, r3
 651 0014 BD46     		mov	sp, r7
 652              		@ sp needed
 653 0016 80BD     		pop	{r7, pc}
 654              	.L41:
 655              		.align	2
 656              	.L40:
 657 0018 04010B40 		.word	1074462980
 658              		.cfi_endproc
 659              	.LFE7:
 660              		.size	CySysClkIloEnabled, .-CySysClkIloEnabled
 661              		.section	.text.CySysClkIloTrim,"ax",%progbits
 662              		.align	2
 663              		.global	CySysClkIloTrim
 664              		.code	16
 665              		.thumb_func
 666              		.type	CySysClkIloTrim, %function
 667              	CySysClkIloTrim:
 668              	.LFB8:
 377:Generated_Source\PSoC4/CyLFClk.c **** #endif /* (CY_IP_SRSSV2) */
 378:Generated_Source\PSoC4/CyLFClk.c **** 
 379:Generated_Source\PSoC4/CyLFClk.c **** 
 380:Generated_Source\PSoC4/CyLFClk.c **** #if(CY_IP_SRSSV2 && (!(CY_PSOC4_4100 || CY_PSOC4_4200)))
 381:Generated_Source\PSoC4/CyLFClk.c **** /********************************************************************************
 382:Generated_Source\PSoC4/CyLFClk.c **** * Function Name: CySysClkIloTrim
 383:Generated_Source\PSoC4/CyLFClk.c **** *****************************************************************************//**
 384:Generated_Source\PSoC4/CyLFClk.c **** * \brief
 385:Generated_Source\PSoC4/CyLFClk.c **** * The API trims the ILO frequency to +/- 10% accuracy range using accurate 
 386:Generated_Source\PSoC4/CyLFClk.c **** * SysClk.
 387:Generated_Source\PSoC4/CyLFClk.c **** *
 388:Generated_Source\PSoC4/CyLFClk.c **** * The API can be blocking or non-blocking depending on the value of the mode 
 389:Generated_Source\PSoC4/CyLFClk.c **** * parameter passed. The accuracy of ILO after trimming in parts per thousand 
 390:Generated_Source\PSoC4/CyLFClk.c **** * is returned through the iloAccuracyInPPT pointer. A positive number indicates 
 391:Generated_Source\PSoC4/CyLFClk.c **** * that the ILO is running fast and a negative number indicates that the ILO is 
 392:Generated_Source\PSoC4/CyLFClk.c **** * running slowly. This error is relative to the error in the reference clock 
ARM GAS  C:\Users\akita\AppData\Local\Temp\ccTFmJyh.s 			page 32


 393:Generated_Source\PSoC4/CyLFClk.c **** * (SysClk), so the absolute error will be higher and depends on the accuracy 
 394:Generated_Source\PSoC4/CyLFClk.c **** * of the reference.
 395:Generated_Source\PSoC4/CyLFClk.c **** *
 396:Generated_Source\PSoC4/CyLFClk.c **** * The CySysClkIloStartMeasurement() API should be called prior to calling this 
 397:Generated_Source\PSoC4/CyLFClk.c **** * API. Otherwise it will return CYRET_INVALID_STATE as the measurement was not 
 398:Generated_Source\PSoC4/CyLFClk.c **** * started.
 399:Generated_Source\PSoC4/CyLFClk.c **** *
 400:Generated_Source\PSoC4/CyLFClk.c **** * \note SysClk should be sourced by IMO. Otherwise CySysClkIloTrim() and 
 401:Generated_Source\PSoC4/CyLFClk.c **** * CySysClkIloCompensate() API can give incorrect results.
 402:Generated_Source\PSoC4/CyLFClk.c **** *
 403:Generated_Source\PSoC4/CyLFClk.c **** * \note If System clock frequency is changed in runtime, the CyDelayFreq() 
 404:Generated_Source\PSoC4/CyLFClk.c **** * with the appropriate parameter (Frequency of bus clock in Hertz) should be 
 405:Generated_Source\PSoC4/CyLFClk.c **** * called before next CySysClkIloCompensate() usage.
 406:Generated_Source\PSoC4/CyLFClk.c **** *
 407:Generated_Source\PSoC4/CyLFClk.c **** * \warning Do not enter deep sleep mode until the function returns CYRET_SUCCESS
 408:Generated_Source\PSoC4/CyLFClk.c **** * or CYRET_TIMEOUT.
 409:Generated_Source\PSoC4/CyLFClk.c **** *
 410:Generated_Source\PSoC4/CyLFClk.c **** * Available for all PSoC 4 devices with ILO trim capability. This excludes 
 411:Generated_Source\PSoC4/CyLFClk.c **** * PSoC 4000 / PSoC 4100 / PSoC 4200 / PSoC 4000S / PSoC 4100S / PSoC
 412:Generated_Source\PSoC4/CyLFClk.c **** * Analog Coprocessor devices.
 413:Generated_Source\PSoC4/CyLFClk.c **** *
 414:Generated_Source\PSoC4/CyLFClk.c **** * \param mode
 415:Generated_Source\PSoC4/CyLFClk.c **** *  CY_SYS_CLK_BLOCKING -  The function does not return until the ILO is 
 416:Generated_Source\PSoC4/CyLFClk.c **** * within +/-10% accuracy range or time out has occurred.<br>
 417:Generated_Source\PSoC4/CyLFClk.c **** * CY_SYS_CLK_NON_BLOCKING - The function returns immediately after 
 418:Generated_Source\PSoC4/CyLFClk.c **** * performing a single iteration of the trim process. The function should be 
 419:Generated_Source\PSoC4/CyLFClk.c **** * called repeatedly until the trimming is completed successfully.
 420:Generated_Source\PSoC4/CyLFClk.c **** *
 421:Generated_Source\PSoC4/CyLFClk.c **** * \param *iloAccuracyInPPT Pointer to an integer in which the trimmed ILO 
 422:Generated_Source\PSoC4/CyLFClk.c **** * accuracy will be returned.
 423:Generated_Source\PSoC4/CyLFClk.c **** *
 424:Generated_Source\PSoC4/CyLFClk.c **** * \details The value returned in *iloAccuracyInPPT pointer is not valid 
 425:Generated_Source\PSoC4/CyLFClk.c **** * until the function returns CYRET_SUCCESS. ILO accuracy in PPT is given by:
 426:Generated_Source\PSoC4/CyLFClk.c **** *
 427:Generated_Source\PSoC4/CyLFClk.c **** * IloAccuracyInPPT = ((MeasuredIloFreq - DesiredIloFreq) * 
 428:Generated_Source\PSoC4/CyLFClk.c **** * CY_SYS_CLK_PERTHOUSAND) / DesiredIloFreq);
 429:Generated_Source\PSoC4/CyLFClk.c **** *
 430:Generated_Source\PSoC4/CyLFClk.c **** * DesiredIloFreq  = 32000, CY_SYS_CLK_PERTHOUSAND = 1000;
 431:Generated_Source\PSoC4/CyLFClk.c **** *
 432:Generated_Source\PSoC4/CyLFClk.c **** * \return CYRET_SUCCESS - Indicates trimming is complete. This value indicates 
 433:Generated_Source\PSoC4/CyLFClk.c **** * trimming is successful and iloAccuracyInPPT is within +/- 10%.
 434:Generated_Source\PSoC4/CyLFClk.c **** *
 435:Generated_Source\PSoC4/CyLFClk.c **** * \return CYRET_STARTED - Indicates measurement is in progress. This is applicable 
 436:Generated_Source\PSoC4/CyLFClk.c **** * only for non-blocking mode.
 437:Generated_Source\PSoC4/CyLFClk.c **** *
 438:Generated_Source\PSoC4/CyLFClk.c **** * \return CYRET_INVALID_STATE - Indicates trimming was unsuccessful. You should 
 439:Generated_Source\PSoC4/CyLFClk.c **** * call CySysClkIloStartMeasurement() before calling this API.
 440:Generated_Source\PSoC4/CyLFClk.c **** *
 441:Generated_Source\PSoC4/CyLFClk.c **** * \return CYRET_TIMEOUT - Indicates trimming was unsuccessful. This is applicable 
 442:Generated_Source\PSoC4/CyLFClk.c **** * only for blocking mode. Timeout means the trimming was tried 5 times without 
 443:Generated_Source\PSoC4/CyLFClk.c **** * success (i.e. ILO accuracy > +/- 10%). The user can call the API again for 
 444:Generated_Source\PSoC4/CyLFClk.c **** * another try or wait for some time before calling it again (to let the system 
 445:Generated_Source\PSoC4/CyLFClk.c **** * to settle to another operating point change in temperature etc.) and continue 
 446:Generated_Source\PSoC4/CyLFClk.c **** * using the previous trim value till the next call.
 447:Generated_Source\PSoC4/CyLFClk.c **** *
 448:Generated_Source\PSoC4/CyLFClk.c **** **********************************************************************************/
 449:Generated_Source\PSoC4/CyLFClk.c **** cystatus CySysClkIloTrim(uint32 mode, int32* iloAccuracyInPPT)
ARM GAS  C:\Users\akita\AppData\Local\Temp\ccTFmJyh.s 			page 33


 450:Generated_Source\PSoC4/CyLFClk.c **** {
 669              		.loc 2 450 0
 670              		.cfi_startproc
 671 0000 80B5     		push	{r7, lr}
 672              		.cfi_def_cfa_offset 8
 673              		.cfi_offset 7, -8
 674              		.cfi_offset 14, -4
 675 0002 86B0     		sub	sp, sp, #24
 676              		.cfi_def_cfa_offset 32
 677 0004 00AF     		add	r7, sp, #0
 678              		.cfi_def_cfa_register 7
 679 0006 7860     		str	r0, [r7, #4]
 680 0008 3960     		str	r1, [r7]
 451:Generated_Source\PSoC4/CyLFClk.c ****     uint32 timeOutClocks = CY_SYS_CLK_TIMEOUT;
 681              		.loc 2 451 0
 682 000a 0523     		mov	r3, #5
 683 000c 7B61     		str	r3, [r7, #20]
 452:Generated_Source\PSoC4/CyLFClk.c ****     uint32 waitUntilCntr1Stops;
 453:Generated_Source\PSoC4/CyLFClk.c ****     static uint32 trimRunningStatus = CY_SYS_CLK_TRIM_OR_COMP_FINISHED;
 454:Generated_Source\PSoC4/CyLFClk.c ****     uint32 checkStatus;
 455:Generated_Source\PSoC4/CyLFClk.c ****     cystatus returnStatus;
 456:Generated_Source\PSoC4/CyLFClk.c **** 
 457:Generated_Source\PSoC4/CyLFClk.c ****     checkStatus = (uint32) (CY_SYS_CLK_DFT_REG & (uint32) CY_SYS_TST_DDFT_CTRL_REG_DEFAULT_MASK);
 684              		.loc 2 457 0
 685 000e 3E4B     		ldr	r3, .L59
 686 0010 1B68     		ldr	r3, [r3]
 687 0012 3E4A     		ldr	r2, .L59+4
 688 0014 1340     		and	r3, r2
 689 0016 BB60     		str	r3, [r7, #8]
 458:Generated_Source\PSoC4/CyLFClk.c **** 
 459:Generated_Source\PSoC4/CyLFClk.c ****     /* Check if DFT and CTRL registers were configures in CySysStartMeasurement*/
 460:Generated_Source\PSoC4/CyLFClk.c ****     if((checkStatus == CY_SYS_CLK_SEL_ILO_DFT_SOURCE) &&
 690              		.loc 2 460 0
 691 0018 BA68     		ldr	r2, [r7, #8]
 692 001a 8023     		mov	r3, #128
 693 001c 5B00     		lsl	r3, r3, #1
 694 001e 9A42     		cmp	r2, r3
 695 0020 00D0     		beq	.LCB563
 696 0022 69E0     		b	.L43	@long jump
 697              	.LCB563:
 461:Generated_Source\PSoC4/CyLFClk.c ****        (CY_SYS_TST_DDFT_CTRL_REG == CY_SYS_TST_DDFT_CTRL_REG_SEL2_CLK1) &&
 698              		.loc 2 461 0 discriminator 1
 699 0024 3A4B     		ldr	r3, .L59+8
 700 0026 1B68     		ldr	r3, [r3]
 460:Generated_Source\PSoC4/CyLFClk.c ****        (CY_SYS_TST_DDFT_CTRL_REG == CY_SYS_TST_DDFT_CTRL_REG_SEL2_CLK1) &&
 701              		.loc 2 460 0 discriminator 1
 702 0028 3A4A     		ldr	r2, .L59+12
 703 002a 9342     		cmp	r3, r2
 704 002c 00D0     		beq	.LCB568
 705 002e 63E0     		b	.L43	@long jump
 706              	.LCB568:
 707              		.loc 2 461 0
 708 0030 3B68     		ldr	r3, [r7]
 709 0032 002B     		cmp	r3, #0
 710 0034 60D0     		beq	.L43
 462:Generated_Source\PSoC4/CyLFClk.c ****        (iloAccuracyInPPT != NULL))
 463:Generated_Source\PSoC4/CyLFClk.c ****     {
ARM GAS  C:\Users\akita\AppData\Local\Temp\ccTFmJyh.s 			page 34


 464:Generated_Source\PSoC4/CyLFClk.c ****         if(CY_SYS_CLK_BLOCKING == mode)
 711              		.loc 2 464 0
 712 0036 7B68     		ldr	r3, [r7, #4]
 713 0038 002B     		cmp	r3, #0
 714 003a 3CD1     		bne	.L44
 465:Generated_Source\PSoC4/CyLFClk.c ****         {
 466:Generated_Source\PSoC4/CyLFClk.c ****             waitUntilCntr1Stops = cydelayFreqHz >> CY_SYS_CLK_SYS_CLK_DEVIDER;
 715              		.loc 2 466 0
 716 003c 364B     		ldr	r3, .L59+16
 717 003e 1B68     		ldr	r3, [r3]
 718 0040 9B0A     		lsr	r3, r3, #10
 719 0042 3B61     		str	r3, [r7, #16]
 720              	.L49:
 467:Generated_Source\PSoC4/CyLFClk.c ****             do
 468:Generated_Source\PSoC4/CyLFClk.c ****             {
 469:Generated_Source\PSoC4/CyLFClk.c ****                 /* Reload CNTR 1 count value for measuring cycle*/
 470:Generated_Source\PSoC4/CyLFClk.c ****                 CY_SYS_CNT_REG1_REG = cydelayFreqHz >> CY_SYS_CLK_SYS_CLK_DEVIDER; 
 721              		.loc 2 470 0
 722 0044 354A     		ldr	r2, .L59+20
 723 0046 344B     		ldr	r3, .L59+16
 724 0048 1B68     		ldr	r3, [r3]
 725 004a 9B0A     		lsr	r3, r3, #10
 726 004c 1360     		str	r3, [r2]
 471:Generated_Source\PSoC4/CyLFClk.c **** 
 472:Generated_Source\PSoC4/CyLFClk.c ****                 /* Wait until counter CNTR 1 will finish down-counting */
 473:Generated_Source\PSoC4/CyLFClk.c ****                 while (0u == (CY_SYS_CNT_REG1_REG & CY_SYS_CLK_ILO_CALIBR_COMPLETE_MASK))
 727              		.loc 2 473 0
 728 004e 06E0     		b	.L45
 729              	.L47:
 474:Generated_Source\PSoC4/CyLFClk.c ****                 {
 475:Generated_Source\PSoC4/CyLFClk.c ****                     waitUntilCntr1Stops--;
 730              		.loc 2 475 0
 731 0050 3B69     		ldr	r3, [r7, #16]
 732 0052 013B     		sub	r3, r3, #1
 733 0054 3B61     		str	r3, [r7, #16]
 476:Generated_Source\PSoC4/CyLFClk.c ****                     if (0u == waitUntilCntr1Stops)
 734              		.loc 2 476 0
 735 0056 3B69     		ldr	r3, [r7, #16]
 736 0058 002B     		cmp	r3, #0
 737 005a 00D1     		bne	.L45
 477:Generated_Source\PSoC4/CyLFClk.c ****                     {
 478:Generated_Source\PSoC4/CyLFClk.c ****                         break;
 738              		.loc 2 478 0
 739 005c 03E0     		b	.L46
 740              	.L45:
 473:Generated_Source\PSoC4/CyLFClk.c ****                 {
 741              		.loc 2 473 0
 742 005e 2F4B     		ldr	r3, .L59+20
 743 0060 1B68     		ldr	r3, [r3]
 744 0062 002B     		cmp	r3, #0
 745 0064 F4DA     		bge	.L47
 746              	.L46:
 479:Generated_Source\PSoC4/CyLFClk.c ****                     }
 480:Generated_Source\PSoC4/CyLFClk.c ****                 }
 481:Generated_Source\PSoC4/CyLFClk.c ****                 trimRunningStatus = CySysClkIloUpdateTrimReg(iloAccuracyInPPT);
 747              		.loc 2 481 0
 748 0066 3B68     		ldr	r3, [r7]
ARM GAS  C:\Users\akita\AppData\Local\Temp\ccTFmJyh.s 			page 35


 749 0068 181C     		mov	r0, r3
 750 006a FFF7FEFF 		bl	CySysClkIloUpdateTrimReg
 751 006e 021C     		mov	r2, r0
 752 0070 2B4B     		ldr	r3, .L59+24
 753 0072 1A60     		str	r2, [r3]
 482:Generated_Source\PSoC4/CyLFClk.c ****                 timeOutClocks--;
 754              		.loc 2 482 0
 755 0074 7B69     		ldr	r3, [r7, #20]
 756 0076 013B     		sub	r3, r3, #1
 757 0078 7B61     		str	r3, [r7, #20]
 483:Generated_Source\PSoC4/CyLFClk.c **** 
 484:Generated_Source\PSoC4/CyLFClk.c ****             /* Untill ILO accuracy will be in range less than +/- 10% or timeout occurs*/
 485:Generated_Source\PSoC4/CyLFClk.c ****             } while((CYRET_SUCCESS != trimRunningStatus) && 
 758              		.loc 2 485 0
 759 007a 294B     		ldr	r3, .L59+24
 760 007c 1B68     		ldr	r3, [r3]
 486:Generated_Source\PSoC4/CyLFClk.c ****               (CYRET_INVALID_STATE != trimRunningStatus) && 
 487:Generated_Source\PSoC4/CyLFClk.c ****                                (0u != timeOutClocks));
 761              		.loc 2 487 0
 762 007e 002B     		cmp	r3, #0
 763 0080 06D0     		beq	.L48
 486:Generated_Source\PSoC4/CyLFClk.c ****               (CYRET_INVALID_STATE != trimRunningStatus) && 
 764              		.loc 2 486 0
 765 0082 274B     		ldr	r3, .L59+24
 766 0084 1B68     		ldr	r3, [r3]
 485:Generated_Source\PSoC4/CyLFClk.c ****               (CYRET_INVALID_STATE != trimRunningStatus) && 
 767              		.loc 2 485 0
 768 0086 112B     		cmp	r3, #17
 769 0088 02D0     		beq	.L48
 486:Generated_Source\PSoC4/CyLFClk.c ****               (CYRET_INVALID_STATE != trimRunningStatus) && 
 770              		.loc 2 486 0
 771 008a 7B69     		ldr	r3, [r7, #20]
 772 008c 002B     		cmp	r3, #0
 773 008e D9D1     		bne	.L49
 774              	.L48:
 488:Generated_Source\PSoC4/CyLFClk.c **** 
 489:Generated_Source\PSoC4/CyLFClk.c ****             if (CYRET_SUCCESS == trimRunningStatus)
 775              		.loc 2 489 0
 776 0090 234B     		ldr	r3, .L59+24
 777 0092 1B68     		ldr	r3, [r3]
 778 0094 002B     		cmp	r3, #0
 779 0096 02D1     		bne	.L50
 490:Generated_Source\PSoC4/CyLFClk.c ****             {
 491:Generated_Source\PSoC4/CyLFClk.c ****                 returnStatus = CYRET_SUCCESS;
 780              		.loc 2 491 0
 781 0098 0023     		mov	r3, #0
 782 009a FB60     		str	r3, [r7, #12]
 783 009c 2BE0     		b	.L53
 784              	.L50:
 492:Generated_Source\PSoC4/CyLFClk.c ****             }
 493:Generated_Source\PSoC4/CyLFClk.c ****             else
 494:Generated_Source\PSoC4/CyLFClk.c ****             {
 495:Generated_Source\PSoC4/CyLFClk.c ****                 if(0u == timeOutClocks)
 785              		.loc 2 495 0
 786 009e 7B69     		ldr	r3, [r7, #20]
 787 00a0 002B     		cmp	r3, #0
 788 00a2 05D1     		bne	.L52
ARM GAS  C:\Users\akita\AppData\Local\Temp\ccTFmJyh.s 			page 36


 496:Generated_Source\PSoC4/CyLFClk.c ****                 {
 497:Generated_Source\PSoC4/CyLFClk.c ****                     trimRunningStatus = CY_SYS_CLK_TRIM_OR_COMP_FINISHED;
 789              		.loc 2 497 0
 790 00a4 1E4B     		ldr	r3, .L59+24
 791 00a6 0022     		mov	r2, #0
 792 00a8 1A60     		str	r2, [r3]
 498:Generated_Source\PSoC4/CyLFClk.c ****                     returnStatus = CYRET_TIMEOUT;
 793              		.loc 2 498 0
 794 00aa 1023     		mov	r3, #16
 795 00ac FB60     		str	r3, [r7, #12]
 796 00ae 22E0     		b	.L53
 797              	.L52:
 499:Generated_Source\PSoC4/CyLFClk.c ****                 }
 500:Generated_Source\PSoC4/CyLFClk.c ****                 else
 501:Generated_Source\PSoC4/CyLFClk.c ****                 {
 502:Generated_Source\PSoC4/CyLFClk.c ****                     returnStatus = CYRET_INVALID_STATE;
 798              		.loc 2 502 0
 799 00b0 1123     		mov	r3, #17
 800 00b2 FB60     		str	r3, [r7, #12]
 464:Generated_Source\PSoC4/CyLFClk.c ****         {
 801              		.loc 2 464 0
 802 00b4 22E0     		b	.L57
 803              	.L44:
 503:Generated_Source\PSoC4/CyLFClk.c ****                 }
 504:Generated_Source\PSoC4/CyLFClk.c ****             }
 505:Generated_Source\PSoC4/CyLFClk.c ****         }
 506:Generated_Source\PSoC4/CyLFClk.c ****         /* Non - blocking mode */
 507:Generated_Source\PSoC4/CyLFClk.c ****         else
 508:Generated_Source\PSoC4/CyLFClk.c ****         {
 509:Generated_Source\PSoC4/CyLFClk.c ****             if (CY_SYS_CLK_TRIM_OR_COMP_FINISHED != trimRunningStatus)
 804              		.loc 2 509 0
 805 00b6 1A4B     		ldr	r3, .L59+24
 806 00b8 1B68     		ldr	r3, [r3]
 807 00ba 002B     		cmp	r3, #0
 808 00bc 10D0     		beq	.L54
 510:Generated_Source\PSoC4/CyLFClk.c ****             {
 511:Generated_Source\PSoC4/CyLFClk.c ****                 /* Checking if the counter CNTR 1 finished down-counting */
 512:Generated_Source\PSoC4/CyLFClk.c ****                 if(0u != (CY_SYS_CNT_REG1_REG & CY_SYS_CLK_ILO_CALIBR_COMPLETE_MASK))
 809              		.loc 2 512 0
 810 00be 174B     		ldr	r3, .L59+20
 811 00c0 1B68     		ldr	r3, [r3]
 812 00c2 002B     		cmp	r3, #0
 813 00c4 09DA     		bge	.L55
 513:Generated_Source\PSoC4/CyLFClk.c ****                 {
 514:Generated_Source\PSoC4/CyLFClk.c ****                     returnStatus = CySysClkIloUpdateTrimReg(iloAccuracyInPPT);
 814              		.loc 2 514 0
 815 00c6 3B68     		ldr	r3, [r7]
 816 00c8 181C     		mov	r0, r3
 817 00ca FFF7FEFF 		bl	CySysClkIloUpdateTrimReg
 818 00ce 031C     		mov	r3, r0
 819 00d0 FB60     		str	r3, [r7, #12]
 515:Generated_Source\PSoC4/CyLFClk.c ****                     trimRunningStatus = CY_SYS_CLK_TRIM_OR_COMP_FINISHED;
 820              		.loc 2 515 0
 821 00d2 134B     		ldr	r3, .L59+24
 822 00d4 0022     		mov	r2, #0
 823 00d6 1A60     		str	r2, [r3]
 824 00d8 0DE0     		b	.L53
ARM GAS  C:\Users\akita\AppData\Local\Temp\ccTFmJyh.s 			page 37


 825              	.L55:
 516:Generated_Source\PSoC4/CyLFClk.c ****                 }
 517:Generated_Source\PSoC4/CyLFClk.c ****                 else
 518:Generated_Source\PSoC4/CyLFClk.c ****                 {
 519:Generated_Source\PSoC4/CyLFClk.c ****                     returnStatus = CYRET_STARTED;
 826              		.loc 2 519 0
 827 00da 0723     		mov	r3, #7
 828 00dc FB60     		str	r3, [r7, #12]
 464:Generated_Source\PSoC4/CyLFClk.c ****         {
 829              		.loc 2 464 0
 830 00de 0DE0     		b	.L57
 831              	.L54:
 520:Generated_Source\PSoC4/CyLFClk.c ****                 }
 521:Generated_Source\PSoC4/CyLFClk.c ****             }
 522:Generated_Source\PSoC4/CyLFClk.c ****             else
 523:Generated_Source\PSoC4/CyLFClk.c ****             {
 524:Generated_Source\PSoC4/CyLFClk.c ****                 /* Reload CNTR 1 count value for next measuring */
 525:Generated_Source\PSoC4/CyLFClk.c ****                 CY_SYS_CNT_REG1_REG = cydelayFreqHz >> CY_SYS_CLK_SYS_CLK_DEVIDER;
 832              		.loc 2 525 0
 833 00e0 0E4A     		ldr	r2, .L59+20
 834 00e2 0D4B     		ldr	r3, .L59+16
 835 00e4 1B68     		ldr	r3, [r3]
 836 00e6 9B0A     		lsr	r3, r3, #10
 837 00e8 1360     		str	r3, [r2]
 526:Generated_Source\PSoC4/CyLFClk.c ****                 trimRunningStatus = CY_SYS_CLK_TRIM_OR_COMP_STARTED;
 838              		.loc 2 526 0
 839 00ea 0D4B     		ldr	r3, .L59+24
 840 00ec 0122     		mov	r2, #1
 841 00ee 1A60     		str	r2, [r3]
 527:Generated_Source\PSoC4/CyLFClk.c ****                 returnStatus = CYRET_STARTED;
 842              		.loc 2 527 0
 843 00f0 0723     		mov	r3, #7
 844 00f2 FB60     		str	r3, [r7, #12]
 464:Generated_Source\PSoC4/CyLFClk.c ****         {
 845              		.loc 2 464 0
 846 00f4 02E0     		b	.L57
 847              	.L53:
 464:Generated_Source\PSoC4/CyLFClk.c ****         {
 848              		.loc 2 464 0 is_stmt 0 discriminator 1
 849 00f6 01E0     		b	.L57
 850              	.L43:
 528:Generated_Source\PSoC4/CyLFClk.c ****             }
 529:Generated_Source\PSoC4/CyLFClk.c ****         }
 530:Generated_Source\PSoC4/CyLFClk.c ****     }
 531:Generated_Source\PSoC4/CyLFClk.c ****     else
 532:Generated_Source\PSoC4/CyLFClk.c ****     {
 533:Generated_Source\PSoC4/CyLFClk.c ****         returnStatus = CYRET_INVALID_STATE;
 851              		.loc 2 533 0 is_stmt 1
 852 00f8 1123     		mov	r3, #17
 853 00fa FB60     		str	r3, [r7, #12]
 854              	.L57:
 534:Generated_Source\PSoC4/CyLFClk.c ****     }
 535:Generated_Source\PSoC4/CyLFClk.c **** 
 536:Generated_Source\PSoC4/CyLFClk.c ****     return (returnStatus);
 855              		.loc 2 536 0
 856 00fc FB68     		ldr	r3, [r7, #12]
 537:Generated_Source\PSoC4/CyLFClk.c **** }
ARM GAS  C:\Users\akita\AppData\Local\Temp\ccTFmJyh.s 			page 38


 857              		.loc 2 537 0
 858 00fe 181C     		mov	r0, r3
 859 0100 BD46     		mov	sp, r7
 860 0102 06B0     		add	sp, sp, #24
 861              		@ sp needed
 862 0104 80BD     		pop	{r7, pc}
 863              	.L60:
 864 0106 C046     		.align	2
 865              	.L59:
 866 0108 10010B40 		.word	1074462992
 867 010c 3F3F0000 		.word	16191
 868 0110 08000340 		.word	1073938440
 869 0114 0A0B0000 		.word	2826
 870 0118 00000000 		.word	cydelayFreqHz
 871 011c 18000340 		.word	1073938456
 872 0120 20000000 		.word	trimRunningStatus.4767
 873              		.cfi_endproc
 874              	.LFE8:
 875              		.size	CySysClkIloTrim, .-CySysClkIloTrim
 876              		.global	__aeabi_idiv
 877              		.section	.text.CySysClkIloUpdateTrimReg,"ax",%progbits
 878              		.align	2
 879              		.global	CySysClkIloUpdateTrimReg
 880              		.code	16
 881              		.thumb_func
 882              		.type	CySysClkIloUpdateTrimReg, %function
 883              	CySysClkIloUpdateTrimReg:
 884              	.LFB9:
 538:Generated_Source\PSoC4/CyLFClk.c **** 
 539:Generated_Source\PSoC4/CyLFClk.c **** 
 540:Generated_Source\PSoC4/CyLFClk.c **** /********************************************************************************
 541:Generated_Source\PSoC4/CyLFClk.c **** * Function Name: CySysClkIloUpdateTrimReg
 542:Generated_Source\PSoC4/CyLFClk.c **** *********************************************************************************
 543:Generated_Source\PSoC4/CyLFClk.c **** *
 544:Generated_Source\PSoC4/CyLFClk.c **** * \internal
 545:Generated_Source\PSoC4/CyLFClk.c **** * Function calculates ILO accuracy and check is error range is higher than 
 546:Generated_Source\PSoC4/CyLFClk.c **** * +/- 10%. If Measured frequency is higher than +/- 10% function updates 
 547:Generated_Source\PSoC4/CyLFClk.c **** * ILO Trim register.
 548:Generated_Source\PSoC4/CyLFClk.c **** *
 549:Generated_Source\PSoC4/CyLFClk.c **** * \param
 550:Generated_Source\PSoC4/CyLFClk.c **** * iloAccuracyInPPT Pointer to an integer in which the trimmed ILO 
 551:Generated_Source\PSoC4/CyLFClk.c **** * accuracy will be returned. The value returned in this pointer is not valid 
 552:Generated_Source\PSoC4/CyLFClk.c **** * until the function returns CYRET_SUCCESS. If ILO frequency error is lower 
 553:Generated_Source\PSoC4/CyLFClk.c **** * than +/- 10% then the value returned in this pointer will be updated.
 554:Generated_Source\PSoC4/CyLFClk.c **** *
 555:Generated_Source\PSoC4/CyLFClk.c **** * \return CYRET_SUCCESS - Indicates that ILO frequency error is lower than 
 556:Generated_Source\PSoC4/CyLFClk.c **** * +/- 10% and no actions are required.
 557:Generated_Source\PSoC4/CyLFClk.c **** *
 558:Generated_Source\PSoC4/CyLFClk.c **** * \return  CYRET_STARTED - Indicates that ILO frequency error is higher than 
 559:Generated_Source\PSoC4/CyLFClk.c **** * +/- 10% and ILO Trim register was updated.
 560:Generated_Source\PSoC4/CyLFClk.c **** *
 561:Generated_Source\PSoC4/CyLFClk.c **** * \return CYRET_INVALID_STATE - Indicates trimming was unsuccessful.
 562:Generated_Source\PSoC4/CyLFClk.c **** *
 563:Generated_Source\PSoC4/CyLFClk.c **** * Post #1 - To obtain 10% ILO accuracy the calculated accuracy should be equal 
 564:Generated_Source\PSoC4/CyLFClk.c **** * CY_SYS_CLK_ERROR_RANGE = 5.6%. Error value should take to account IMO error of 
 565:Generated_Source\PSoC4/CyLFClk.c **** * +/-2% (+/-0.64kHz), trim step of 2.36kHz (+/-1.18kHz) and error while ILO 
 566:Generated_Source\PSoC4/CyLFClk.c **** * frequency measuring.
ARM GAS  C:\Users\akita\AppData\Local\Temp\ccTFmJyh.s 			page 39


 567:Generated_Source\PSoC4/CyLFClk.c **** *
 568:Generated_Source\PSoC4/CyLFClk.c **** * \endinternal
 569:Generated_Source\PSoC4/CyLFClk.c **** *
 570:Generated_Source\PSoC4/CyLFClk.c **** **********************************************************************************/
 571:Generated_Source\PSoC4/CyLFClk.c **** cystatus CySysClkIloUpdateTrimReg(int32* iloAccuracyInPPT)
 572:Generated_Source\PSoC4/CyLFClk.c **** {
 885              		.loc 2 572 0
 886              		.cfi_startproc
 887 0000 80B5     		push	{r7, lr}
 888              		.cfi_def_cfa_offset 8
 889              		.cfi_offset 7, -8
 890              		.cfi_offset 14, -4
 891 0002 88B0     		sub	sp, sp, #32
 892              		.cfi_def_cfa_offset 40
 893 0004 00AF     		add	r7, sp, #0
 894              		.cfi_def_cfa_register 7
 895 0006 7860     		str	r0, [r7, #4]
 573:Generated_Source\PSoC4/CyLFClk.c ****     uint32 measuredIloFreq;
 574:Generated_Source\PSoC4/CyLFClk.c ****     uint32 currentIloTrimValue;
 575:Generated_Source\PSoC4/CyLFClk.c ****     int32 iloAccuracyValue;
 576:Generated_Source\PSoC4/CyLFClk.c ****     int32 trimStep;
 577:Generated_Source\PSoC4/CyLFClk.c ****     cystatus errorRangeStatus;
 578:Generated_Source\PSoC4/CyLFClk.c **** 
 579:Generated_Source\PSoC4/CyLFClk.c ****     if(0u != CY_SYS_CNT_REG2_REG)
 896              		.loc 2 579 0
 897 0008 374B     		ldr	r3, .L71
 898 000a 1B68     		ldr	r3, [r3]
 899 000c 002B     		cmp	r3, #0
 900 000e 64D0     		beq	.L62
 580:Generated_Source\PSoC4/CyLFClk.c ****     {
 581:Generated_Source\PSoC4/CyLFClk.c ****         measuredIloFreq = (CY_SYS_CNT_REG2_REG * cydelayFreqHz) / (cydelayFreqHz >> CY_SYS_CLK_SYS_
 901              		.loc 2 581 0
 902 0010 354B     		ldr	r3, .L71
 903 0012 1A68     		ldr	r2, [r3]
 904 0014 354B     		ldr	r3, .L71+4
 905 0016 1B68     		ldr	r3, [r3]
 906 0018 5A43     		mul	r2, r3
 907 001a 344B     		ldr	r3, .L71+4
 908 001c 1B68     		ldr	r3, [r3]
 909 001e 9B0A     		lsr	r3, r3, #10
 910 0020 101C     		mov	r0, r2
 911 0022 191C     		mov	r1, r3
 912 0024 FFF7FEFF 		bl	__aeabi_uidiv
 913 0028 031C     		mov	r3, r0
 914 002a 7B61     		str	r3, [r7, #20]
 582:Generated_Source\PSoC4/CyLFClk.c **** 
 583:Generated_Source\PSoC4/CyLFClk.c ****         /* Calculate value of error in PPT according to formula - 
 584:Generated_Source\PSoC4/CyLFClk.c ****         *       ((measuredIlofrequency - iloDesired freaquency) * 1000 / iloDesired freaquency) */
 585:Generated_Source\PSoC4/CyLFClk.c ****         iloAccuracyValue = (((int32) measuredIloFreq - (int32) CY_SYS_CLK_ILO_DESIRED_FREQ_HZ) * \
 915              		.loc 2 585 0
 916 002c 7B69     		ldr	r3, [r7, #20]
 917 002e 304A     		ldr	r2, .L71+8
 918 0030 9446     		mov	ip, r2
 919 0032 6344     		add	r3, r3, ip
 920 0034 FA22     		mov	r2, #250
 921 0036 9200     		lsl	r2, r2, #2
 922 0038 5343     		mul	r3, r2
ARM GAS  C:\Users\akita\AppData\Local\Temp\ccTFmJyh.s 			page 40


 923 003a 181C     		mov	r0, r3
 924 003c FA23     		mov	r3, #250
 925 003e D901     		lsl	r1, r3, #7
 926 0040 FFF7FEFF 		bl	__aeabi_idiv
 927 0044 031C     		mov	r3, r0
 928 0046 3B61     		str	r3, [r7, #16]
 586:Generated_Source\PSoC4/CyLFClk.c ****                             ((int32) CY_SYS_CLK_PERTHOUSAND)) / ((int32) CY_SYS_CLK_ILO_DESIRED_FRE
 587:Generated_Source\PSoC4/CyLFClk.c **** 
 588:Generated_Source\PSoC4/CyLFClk.c ****         /* Check if ILO accuracy is more than +/- CY_SYS_CLK_ERROR_RANGE. See post #1 of API descri
 589:Generated_Source\PSoC4/CyLFClk.c ****         if(CY_SYS_CLK_ERROR_RANGE < (uint32) (CY_SYS_CLK_ABS_MACRO(iloAccuracyValue)))
 929              		.loc 2 589 0
 930 0048 3B69     		ldr	r3, [r7, #16]
 931 004a DA17     		asr	r2, r3, #31
 932 004c 9B18     		add	r3, r3, r2
 933 004e 5340     		eor	r3, r2
 934 0050 382B     		cmp	r3, #56
 935 0052 3CD9     		bls	.L63
 590:Generated_Source\PSoC4/CyLFClk.c ****         {
 591:Generated_Source\PSoC4/CyLFClk.c ****             if (0 < iloAccuracyValue)
 936              		.loc 2 591 0
 937 0054 3B69     		ldr	r3, [r7, #16]
 938 0056 002B     		cmp	r3, #0
 939 0058 0DDD     		ble	.L64
 592:Generated_Source\PSoC4/CyLFClk.c ****             {
 593:Generated_Source\PSoC4/CyLFClk.c ****                 trimStep = (int32) (((iloAccuracyValue * (int32) CY_SYS_CLK_ERROR_COEF) + 
 940              		.loc 2 593 0
 941 005a 3A69     		ldr	r2, [r7, #16]
 942 005c 131C     		mov	r3, r2
 943 005e 9B00     		lsl	r3, r3, #2
 944 0060 9B18     		add	r3, r3, r2
 945 0062 5B00     		lsl	r3, r3, #1
 946 0064 7133     		add	r3, r3, #113
 947 0066 FF33     		add	r3, r3, #255
 948 0068 181C     		mov	r0, r3
 949 006a 2249     		ldr	r1, .L71+12
 950 006c FFF7FEFF 		bl	__aeabi_idiv
 951 0070 031C     		mov	r3, r0
 952 0072 FB61     		str	r3, [r7, #28]
 953 0074 0CE0     		b	.L65
 954              	.L64:
 594:Generated_Source\PSoC4/CyLFClk.c ****                 CY_SYS_CLK_HALF_OF_STEP) / CY_SYS_CLK_ERROR_STEP);
 595:Generated_Source\PSoC4/CyLFClk.c ****             }
 596:Generated_Source\PSoC4/CyLFClk.c ****             else
 597:Generated_Source\PSoC4/CyLFClk.c ****             {
 598:Generated_Source\PSoC4/CyLFClk.c ****                 trimStep = (int32) (((iloAccuracyValue * (int32) CY_SYS_CLK_ERROR_COEF) - 
 955              		.loc 2 598 0
 956 0076 3A69     		ldr	r2, [r7, #16]
 957 0078 131C     		mov	r3, r2
 958 007a 9B00     		lsl	r3, r3, #2
 959 007c 9B18     		add	r3, r3, r2
 960 007e 5B00     		lsl	r3, r3, #1
 961 0080 713B     		sub	r3, r3, #113
 962 0082 FF3B     		sub	r3, r3, #255
 963 0084 181C     		mov	r0, r3
 964 0086 1B49     		ldr	r1, .L71+12
 965 0088 FFF7FEFF 		bl	__aeabi_idiv
 966 008c 031C     		mov	r3, r0
ARM GAS  C:\Users\akita\AppData\Local\Temp\ccTFmJyh.s 			page 41


 967 008e FB61     		str	r3, [r7, #28]
 968              	.L65:
 599:Generated_Source\PSoC4/CyLFClk.c ****                 CY_SYS_CLK_HALF_OF_STEP) / CY_SYS_CLK_ERROR_STEP);
 600:Generated_Source\PSoC4/CyLFClk.c ****             }
 601:Generated_Source\PSoC4/CyLFClk.c ****             currentIloTrimValue = (CY_SYS_CLK_ILO_TRIM_REG & CY_SYS_CLK_ILO_TRIM_MASK);
 969              		.loc 2 601 0
 970 0090 194B     		ldr	r3, .L71+16
 971 0092 1B68     		ldr	r3, [r3]
 972 0094 0F22     		mov	r2, #15
 973 0096 1340     		and	r3, r2
 974 0098 FB60     		str	r3, [r7, #12]
 602:Generated_Source\PSoC4/CyLFClk.c ****             trimStep = (int32) currentIloTrimValue - trimStep;
 975              		.loc 2 602 0
 976 009a FA68     		ldr	r2, [r7, #12]
 977 009c FB69     		ldr	r3, [r7, #28]
 978 009e D31A     		sub	r3, r2, r3
 979 00a0 FB61     		str	r3, [r7, #28]
 603:Generated_Source\PSoC4/CyLFClk.c **** 
 604:Generated_Source\PSoC4/CyLFClk.c ****             if(trimStep > CY_SYS_CLK_FOURBITS_MAX)
 980              		.loc 2 604 0
 981 00a2 FB69     		ldr	r3, [r7, #28]
 982 00a4 0F2B     		cmp	r3, #15
 983 00a6 01DD     		ble	.L66
 605:Generated_Source\PSoC4/CyLFClk.c ****             {
 606:Generated_Source\PSoC4/CyLFClk.c ****                 trimStep = CY_SYS_CLK_FOURBITS_MAX;
 984              		.loc 2 606 0
 985 00a8 0F23     		mov	r3, #15
 986 00aa FB61     		str	r3, [r7, #28]
 987              	.L66:
 607:Generated_Source\PSoC4/CyLFClk.c ****             }
 608:Generated_Source\PSoC4/CyLFClk.c ****             if(trimStep < 0)
 988              		.loc 2 608 0
 989 00ac FB69     		ldr	r3, [r7, #28]
 990 00ae 002B     		cmp	r3, #0
 991 00b0 01DA     		bge	.L67
 609:Generated_Source\PSoC4/CyLFClk.c ****             {
 610:Generated_Source\PSoC4/CyLFClk.c ****                 trimStep = 0;
 992              		.loc 2 610 0
 993 00b2 0023     		mov	r3, #0
 994 00b4 FB61     		str	r3, [r7, #28]
 995              	.L67:
 611:Generated_Source\PSoC4/CyLFClk.c ****             }
 612:Generated_Source\PSoC4/CyLFClk.c ****             CY_SYS_CLK_ILO_TRIM_REG = (CY_SYS_CLK_ILO_TRIM_REG & (uint32)(~CY_SYS_CLK_ILO_TRIM_MASK
 996              		.loc 2 612 0
 997 00b6 104B     		ldr	r3, .L71+16
 998 00b8 0F4A     		ldr	r2, .L71+16
 999 00ba 1268     		ldr	r2, [r2]
 1000 00bc 0F21     		mov	r1, #15
 1001 00be 8A43     		bic	r2, r1
 1002 00c0 111C     		mov	r1, r2
 613:Generated_Source\PSoC4/CyLFClk.c ****                                                                  ((uint32) trimStep);
 1003              		.loc 2 613 0
 1004 00c2 FA69     		ldr	r2, [r7, #28]
 612:Generated_Source\PSoC4/CyLFClk.c ****                                                                  ((uint32) trimStep);
 1005              		.loc 2 612 0
 1006 00c4 0A43     		orr	r2, r1
 1007 00c6 1A60     		str	r2, [r3]
ARM GAS  C:\Users\akita\AppData\Local\Temp\ccTFmJyh.s 			page 42


 614:Generated_Source\PSoC4/CyLFClk.c ****             errorRangeStatus = CYRET_STARTED;
 1008              		.loc 2 614 0
 1009 00c8 0723     		mov	r3, #7
 1010 00ca BB61     		str	r3, [r7, #24]
 1011 00cc 07E0     		b	.L69
 1012              	.L63:
 615:Generated_Source\PSoC4/CyLFClk.c ****         } /* Else return success because error is in +/- 10% range*/
 616:Generated_Source\PSoC4/CyLFClk.c ****         else
 617:Generated_Source\PSoC4/CyLFClk.c ****         {
 618:Generated_Source\PSoC4/CyLFClk.c ****             /* Write trimmed ILO accuracy through pointer. */
 619:Generated_Source\PSoC4/CyLFClk.c ****             *iloAccuracyInPPT = iloAccuracyValue;
 1013              		.loc 2 619 0
 1014 00ce 7B68     		ldr	r3, [r7, #4]
 1015 00d0 3A69     		ldr	r2, [r7, #16]
 1016 00d2 1A60     		str	r2, [r3]
 620:Generated_Source\PSoC4/CyLFClk.c ****             errorRangeStatus = CYRET_SUCCESS;
 1017              		.loc 2 620 0
 1018 00d4 0023     		mov	r3, #0
 1019 00d6 BB61     		str	r3, [r7, #24]
 1020 00d8 01E0     		b	.L69
 1021              	.L62:
 621:Generated_Source\PSoC4/CyLFClk.c ****         }
 622:Generated_Source\PSoC4/CyLFClk.c ****     }
 623:Generated_Source\PSoC4/CyLFClk.c ****     else
 624:Generated_Source\PSoC4/CyLFClk.c ****     {
 625:Generated_Source\PSoC4/CyLFClk.c ****         errorRangeStatus = CYRET_INVALID_STATE;
 1022              		.loc 2 625 0
 1023 00da 1123     		mov	r3, #17
 1024 00dc BB61     		str	r3, [r7, #24]
 1025              	.L69:
 626:Generated_Source\PSoC4/CyLFClk.c ****     }
 627:Generated_Source\PSoC4/CyLFClk.c **** return (errorRangeStatus);
 1026              		.loc 2 627 0
 1027 00de BB69     		ldr	r3, [r7, #24]
 628:Generated_Source\PSoC4/CyLFClk.c **** }
 1028              		.loc 2 628 0
 1029 00e0 181C     		mov	r0, r3
 1030 00e2 BD46     		mov	sp, r7
 1031 00e4 08B0     		add	sp, sp, #32
 1032              		@ sp needed
 1033 00e6 80BD     		pop	{r7, pc}
 1034              	.L72:
 1035              		.align	2
 1036              	.L71:
 1037 00e8 1C000340 		.word	1073938460
 1038 00ec 00000000 		.word	cydelayFreqHz
 1039 00f0 0083FFFF 		.word	-32000
 1040 00f4 E1020000 		.word	737
 1041 00f8 24FF0B40 		.word	1074528036
 1042              		.cfi_endproc
 1043              	.LFE9:
 1044              		.size	CySysClkIloUpdateTrimReg, .-CySysClkIloUpdateTrimReg
 1045              		.section	.text.CySysClkIloRestoreFactoryTrim,"ax",%progbits
 1046              		.align	2
 1047              		.global	CySysClkIloRestoreFactoryTrim
 1048              		.code	16
 1049              		.thumb_func
ARM GAS  C:\Users\akita\AppData\Local\Temp\ccTFmJyh.s 			page 43


 1050              		.type	CySysClkIloRestoreFactoryTrim, %function
 1051              	CySysClkIloRestoreFactoryTrim:
 1052              	.LFB10:
 629:Generated_Source\PSoC4/CyLFClk.c **** 
 630:Generated_Source\PSoC4/CyLFClk.c **** 
 631:Generated_Source\PSoC4/CyLFClk.c **** /*******************************************************************************
 632:Generated_Source\PSoC4/CyLFClk.c **** * Function Name: CySysClkIloRestoreFactoryTrim
 633:Generated_Source\PSoC4/CyLFClk.c **** ****************************************************************************//**
 634:Generated_Source\PSoC4/CyLFClk.c **** * \brief
 635:Generated_Source\PSoC4/CyLFClk.c **** * Restores the ILO Trim Register to factory value.
 636:Generated_Source\PSoC4/CyLFClk.c **** *
 637:Generated_Source\PSoC4/CyLFClk.c **** * The CySysClkIloStartMeasurement() API should be called prior to 
 638:Generated_Source\PSoC4/CyLFClk.c **** * calling this API. Otherwise CYRET_UNKNOWN will be returned.
 639:Generated_Source\PSoC4/CyLFClk.c **** *
 640:Generated_Source\PSoC4/CyLFClk.c **** * Available for all PSoC 4 devices except for PSoC 4000 / PSoC 4100 / PSoC 4200 
 641:Generated_Source\PSoC4/CyLFClk.c **** * / PSoC 4000S / PSoC 4100S / PSoC Analog Coprocessor devices.
 642:Generated_Source\PSoC4/CyLFClk.c **** *
 643:Generated_Source\PSoC4/CyLFClk.c **** * \return CYRET_SUCCESS - Operation was successful. 
 644:Generated_Source\PSoC4/CyLFClk.c **** * \return CYRET_UNKNOWN - CySysClkIloStartMeasurement() was not called 
 645:Generated_Source\PSoC4/CyLFClk.c **** * before this API. Hence the trim value cannot be updated.
 646:Generated_Source\PSoC4/CyLFClk.c **** *
 647:Generated_Source\PSoC4/CyLFClk.c **** ******************************************************************************/
 648:Generated_Source\PSoC4/CyLFClk.c **** cystatus CySysClkIloRestoreFactoryTrim(void)
 649:Generated_Source\PSoC4/CyLFClk.c **** {
 1053              		.loc 2 649 0
 1054              		.cfi_startproc
 1055 0000 80B5     		push	{r7, lr}
 1056              		.cfi_def_cfa_offset 8
 1057              		.cfi_offset 7, -8
 1058              		.cfi_offset 14, -4
 1059 0002 82B0     		sub	sp, sp, #8
 1060              		.cfi_def_cfa_offset 16
 1061 0004 00AF     		add	r7, sp, #0
 1062              		.cfi_def_cfa_register 7
 650:Generated_Source\PSoC4/CyLFClk.c ****     cystatus returnStatus = CYRET_SUCCESS;
 1063              		.loc 2 650 0
 1064 0006 0023     		mov	r3, #0
 1065 0008 7B60     		str	r3, [r7, #4]
 651:Generated_Source\PSoC4/CyLFClk.c **** 
 652:Generated_Source\PSoC4/CyLFClk.c ****     /* Check was defaultIloTrimRegValue modified in CySysClkIloStartMeasurement */
 653:Generated_Source\PSoC4/CyLFClk.c ****     if(CY_SYS_CLK_ILO_TRIM_DEFAULT_VALUE != defaultIloTrimRegValue)
 1066              		.loc 2 653 0
 1067 000a 0E4B     		ldr	r3, .L77
 1068 000c 1B88     		ldrh	r3, [r3]
 1069 000e 9BB2     		uxth	r3, r3
 1070 0010 F02B     		cmp	r3, #240
 1071 0012 0ED0     		beq	.L74
 654:Generated_Source\PSoC4/CyLFClk.c ****         {
 655:Generated_Source\PSoC4/CyLFClk.c ****             CY_SYS_CLK_ILO_TRIM_REG = ((CY_SYS_CLK_ILO_TRIM_REG & (uint32)(~CY_SYS_CLK_ILO_TRIM_MAS
 1072              		.loc 2 655 0
 1073 0014 0C4B     		ldr	r3, .L77+4
 1074 0016 0C4A     		ldr	r2, .L77+4
 1075 0018 1268     		ldr	r2, [r2]
 1076 001a 0F21     		mov	r1, #15
 1077 001c 8A43     		bic	r2, r1
 1078 001e 111C     		mov	r1, r2
 656:Generated_Source\PSoC4/CyLFClk.c ****                                        (defaultIloTrimRegValue & CY_SYS_CLK_ILO_TRIM_MASK));
ARM GAS  C:\Users\akita\AppData\Local\Temp\ccTFmJyh.s 			page 44


 1079              		.loc 2 656 0
 1080 0020 084A     		ldr	r2, .L77
 1081 0022 1288     		ldrh	r2, [r2]
 1082 0024 92B2     		uxth	r2, r2
 1083 0026 101C     		mov	r0, r2
 1084 0028 0F22     		mov	r2, #15
 1085 002a 0240     		and	r2, r0
 655:Generated_Source\PSoC4/CyLFClk.c ****                                        (defaultIloTrimRegValue & CY_SYS_CLK_ILO_TRIM_MASK));
 1086              		.loc 2 655 0
 1087 002c 0A43     		orr	r2, r1
 1088 002e 1A60     		str	r2, [r3]
 1089 0030 02E0     		b	.L75
 1090              	.L74:
 657:Generated_Source\PSoC4/CyLFClk.c ****         }
 658:Generated_Source\PSoC4/CyLFClk.c ****         else
 659:Generated_Source\PSoC4/CyLFClk.c ****         {
 660:Generated_Source\PSoC4/CyLFClk.c ****             returnStatus = CYRET_UNKNOWN;
 1091              		.loc 2 660 0
 1092 0032 0123     		mov	r3, #1
 1093 0034 5B42     		neg	r3, r3
 1094 0036 7B60     		str	r3, [r7, #4]
 1095              	.L75:
 661:Generated_Source\PSoC4/CyLFClk.c ****         }
 662:Generated_Source\PSoC4/CyLFClk.c **** 
 663:Generated_Source\PSoC4/CyLFClk.c ****         return (returnStatus);
 1096              		.loc 2 663 0
 1097 0038 7B68     		ldr	r3, [r7, #4]
 664:Generated_Source\PSoC4/CyLFClk.c **** }
 1098              		.loc 2 664 0
 1099 003a 181C     		mov	r0, r3
 1100 003c BD46     		mov	sp, r7
 1101 003e 02B0     		add	sp, sp, #8
 1102              		@ sp needed
 1103 0040 80BD     		pop	{r7, pc}
 1104              	.L78:
 1105 0042 C046     		.align	2
 1106              	.L77:
 1107 0044 00000000 		.word	defaultIloTrimRegValue
 1108 0048 24FF0B40 		.word	1074528036
 1109              		.cfi_endproc
 1110              	.LFE10:
 1111              		.size	CySysClkIloRestoreFactoryTrim, .-CySysClkIloRestoreFactoryTrim
 1112              		.section	.text.CySysClkGetLfclkSource,"ax",%progbits
 1113              		.align	2
 1114              		.code	16
 1115              		.thumb_func
 1116              		.type	CySysClkGetLfclkSource, %function
 1117              	CySysClkGetLfclkSource:
 1118              	.LFB11:
 665:Generated_Source\PSoC4/CyLFClk.c **** #endif /* (CY_IP_SRSSV2 && (!(CY_PSOC4_4100 || CY_PSOC4_4200))) */
 666:Generated_Source\PSoC4/CyLFClk.c **** 
 667:Generated_Source\PSoC4/CyLFClk.c **** 
 668:Generated_Source\PSoC4/CyLFClk.c **** #if (CY_IP_WCO && CY_IP_SRSSV2)
 669:Generated_Source\PSoC4/CyLFClk.c **** /*******************************************************************************
 670:Generated_Source\PSoC4/CyLFClk.c **** * Function Name: CySysClkGetLfclkSource
 671:Generated_Source\PSoC4/CyLFClk.c **** ********************************************************************************
 672:Generated_Source\PSoC4/CyLFClk.c **** *
ARM GAS  C:\Users\akita\AppData\Local\Temp\ccTFmJyh.s 			page 45


 673:Generated_Source\PSoC4/CyLFClk.c **** * \internal
 674:Generated_Source\PSoC4/CyLFClk.c **** *  Gets the clock source for the LFCLK clock.
 675:Generated_Source\PSoC4/CyLFClk.c **** *  The function is applicable only for PSoC 4100 BLE / PSoC 4200 BLE / PSoC 4100M /
 676:Generated_Source\PSoC4/CyLFClk.c **** *  PSoC 4200M / PSoC 4200L.
 677:Generated_Source\PSoC4/CyLFClk.c **** *
 678:Generated_Source\PSoC4/CyLFClk.c **** * \return The LFCLK source:
 679:Generated_Source\PSoC4/CyLFClk.c **** * CY_SYS_CLK_LFCLK_SRC_ILO Internal Low Frequency (32 kHz) Oscillator (ILO)
 680:Generated_Source\PSoC4/CyLFClk.c **** * CY_SYS_CLK_LFCLK_SRC_WCO Low Frequency Watch Crystal Oscillator (WCO)
 681:Generated_Source\PSoC4/CyLFClk.c **** *
 682:Generated_Source\PSoC4/CyLFClk.c **** * \endinternal
 683:Generated_Source\PSoC4/CyLFClk.c **** *
 684:Generated_Source\PSoC4/CyLFClk.c **** *******************************************************************************/
 685:Generated_Source\PSoC4/CyLFClk.c ****     static uint32 CySysClkGetLfclkSource(void)
 686:Generated_Source\PSoC4/CyLFClk.c ****     {
 1119              		.loc 2 686 0
 1120              		.cfi_startproc
 1121 0000 80B5     		push	{r7, lr}
 1122              		.cfi_def_cfa_offset 8
 1123              		.cfi_offset 7, -8
 1124              		.cfi_offset 14, -4
 1125 0002 82B0     		sub	sp, sp, #8
 1126              		.cfi_def_cfa_offset 16
 1127 0004 00AF     		add	r7, sp, #0
 1128              		.cfi_def_cfa_register 7
 687:Generated_Source\PSoC4/CyLFClk.c ****         uint32 lfclkSource;
 688:Generated_Source\PSoC4/CyLFClk.c ****         lfclkSource = CY_SYS_WDT_CONFIG_REG & CY_SYS_CLK_LFCLK_SEL_MASK;
 1129              		.loc 2 688 0
 1130 0006 054B     		ldr	r3, .L81
 1131 0008 1B68     		ldr	r3, [r3]
 1132 000a 9B0F     		lsr	r3, r3, #30
 1133 000c 9B07     		lsl	r3, r3, #30
 1134 000e 7B60     		str	r3, [r7, #4]
 689:Generated_Source\PSoC4/CyLFClk.c ****         return (lfclkSource);
 1135              		.loc 2 689 0
 1136 0010 7B68     		ldr	r3, [r7, #4]
 690:Generated_Source\PSoC4/CyLFClk.c ****     }
 1137              		.loc 2 690 0
 1138 0012 181C     		mov	r0, r3
 1139 0014 BD46     		mov	sp, r7
 1140 0016 02B0     		add	sp, sp, #8
 1141              		@ sp needed
 1142 0018 80BD     		pop	{r7, pc}
 1143              	.L82:
 1144 001a C046     		.align	2
 1145              	.L81:
 1146 001c 0C020B40 		.word	1074463244
 1147              		.cfi_endproc
 1148              	.LFE11:
 1149              		.size	CySysClkGetLfclkSource, .-CySysClkGetLfclkSource
 1150              		.section	.text.CySysClkSetLfclkSource,"ax",%progbits
 1151              		.align	2
 1152              		.global	CySysClkSetLfclkSource
 1153              		.code	16
 1154              		.thumb_func
 1155              		.type	CySysClkSetLfclkSource, %function
 1156              	CySysClkSetLfclkSource:
 1157              	.LFB12:
ARM GAS  C:\Users\akita\AppData\Local\Temp\ccTFmJyh.s 			page 46


 691:Generated_Source\PSoC4/CyLFClk.c **** 
 692:Generated_Source\PSoC4/CyLFClk.c ****     
 693:Generated_Source\PSoC4/CyLFClk.c **** /*******************************************************************************
 694:Generated_Source\PSoC4/CyLFClk.c **** * Function Name: CySysClkSetLfclkSource
 695:Generated_Source\PSoC4/CyLFClk.c **** ****************************************************************************//**
 696:Generated_Source\PSoC4/CyLFClk.c **** * \brief
 697:Generated_Source\PSoC4/CyLFClk.c **** *  Sets the clock source for the LFCLK clock.
 698:Generated_Source\PSoC4/CyLFClk.c **** *
 699:Generated_Source\PSoC4/CyLFClk.c **** * The switch between LFCLK sources must be done between the positive edges of
 700:Generated_Source\PSoC4/CyLFClk.c **** * LFCLK, because the glitch risk is around the LFCLK positive edge. To ensure
 701:Generated_Source\PSoC4/CyLFClk.c **** * that the switch can be done safely, the WDT counter value is read until it
 702:Generated_Source\PSoC4/CyLFClk.c **** * changes.
 703:Generated_Source\PSoC4/CyLFClk.c **** *
 704:Generated_Source\PSoC4/CyLFClk.c **** * That means that the positive edge just finished and the switch is performed.
 705:Generated_Source\PSoC4/CyLFClk.c **** * The enabled WDT counter is used for that purpose. If no counters are enabled,
 706:Generated_Source\PSoC4/CyLFClk.c **** * counter 0 is enabled. And after the LFCLK source is switched, counter 0
 707:Generated_Source\PSoC4/CyLFClk.c **** * configuration is restored.
 708:Generated_Source\PSoC4/CyLFClk.c **** *
 709:Generated_Source\PSoC4/CyLFClk.c **** *  The function is applicable only for devices with more than one source for 
 710:Generated_Source\PSoC4/CyLFClk.c **** * LFCLK - PSoC 4100 BLE / PSoC 4200 BLE / PRoC BLE / PSoC 4100M / PSoC 4200M / 
 711:Generated_Source\PSoC4/CyLFClk.c **** * PSoC 4200L.
 712:Generated_Source\PSoC4/CyLFClk.c **** *
 713:Generated_Source\PSoC4/CyLFClk.c **** * \note For PSoC 4000S / PSoC 4100S / PSoC Analog Coprocessor devices LFCLK can
 714:Generated_Source\PSoC4/CyLFClk.c **** * only be sourced from ILO even though WCO is available.
 715:Generated_Source\PSoC4/CyLFClk.c **** *
 716:Generated_Source\PSoC4/CyLFClk.c **** * \param
 717:Generated_Source\PSoC4/CyLFClk.c **** * source
 718:Generated_Source\PSoC4/CyLFClk.c **** * CY_SYS_CLK_LFCLK_SRC_ILO - Internal Low Frequency (32 kHz) 
 719:Generated_Source\PSoC4/CyLFClk.c **** * Oscillator (ILO).<br>
 720:Generated_Source\PSoC4/CyLFClk.c **** * CY_SYS_CLK_LFCLK_SRC_WCO - Low Frequency Watch Crystal Oscillator (WCO).
 721:Generated_Source\PSoC4/CyLFClk.c **** *
 722:Generated_Source\PSoC4/CyLFClk.c **** * \details
 723:Generated_Source\PSoC4/CyLFClk.c **** * This function has no effect if WDT is locked (CySysWdtLock() is called). 
 724:Generated_Source\PSoC4/CyLFClk.c **** * Call CySysWdtUnlock() to unlock WDT.
 725:Generated_Source\PSoC4/CyLFClk.c **** *
 726:Generated_Source\PSoC4/CyLFClk.c **** * Both the current source and the new source must be running and stable before
 727:Generated_Source\PSoC4/CyLFClk.c **** * calling this function.
 728:Generated_Source\PSoC4/CyLFClk.c **** *
 729:Generated_Source\PSoC4/CyLFClk.c **** * Changing the LFCLK clock source may change the LFCLK clock frequency and
 730:Generated_Source\PSoC4/CyLFClk.c **** * affect the functionality that uses this clock. For example, watchdog timer
 731:Generated_Source\PSoC4/CyLFClk.c **** * "uses this clock" or "this clock uses" (WDT) is clocked by LFCLK.
 732:Generated_Source\PSoC4/CyLFClk.c **** *
 733:Generated_Source\PSoC4/CyLFClk.c **** *******************************************************************************/
 734:Generated_Source\PSoC4/CyLFClk.c ****     void CySysClkSetLfclkSource(uint32 source)
 735:Generated_Source\PSoC4/CyLFClk.c ****     {
 1158              		.loc 2 735 0
 1159              		.cfi_startproc
 1160 0000 90B5     		push	{r4, r7, lr}
 1161              		.cfi_def_cfa_offset 12
 1162              		.cfi_offset 4, -12
 1163              		.cfi_offset 7, -8
 1164              		.cfi_offset 14, -4
 1165 0002 85B0     		sub	sp, sp, #20
 1166              		.cfi_def_cfa_offset 32
 1167 0004 00AF     		add	r7, sp, #0
 1168              		.cfi_def_cfa_register 7
 1169 0006 7860     		str	r0, [r7, #4]
ARM GAS  C:\Users\akita\AppData\Local\Temp\ccTFmJyh.s 			page 47


 736:Generated_Source\PSoC4/CyLFClk.c ****         uint8  interruptState;
 737:Generated_Source\PSoC4/CyLFClk.c **** 
 738:Generated_Source\PSoC4/CyLFClk.c ****         if (CySysClkGetLfclkSource() != source)
 1170              		.loc 2 738 0
 1171 0008 FFF7FEFF 		bl	CySysClkGetLfclkSource
 1172 000c 021E     		sub	r2, r0, #0
 1173 000e 7B68     		ldr	r3, [r7, #4]
 1174 0010 9A42     		cmp	r2, r3
 1175 0012 19D0     		beq	.L83
 739:Generated_Source\PSoC4/CyLFClk.c ****         {
 740:Generated_Source\PSoC4/CyLFClk.c ****             interruptState = CyEnterCriticalSection();
 1176              		.loc 2 740 0
 1177 0014 0F23     		mov	r3, #15
 1178 0016 FC18     		add	r4, r7, r3
 1179 0018 FFF7FEFF 		bl	CyEnterCriticalSection
 1180 001c 031C     		mov	r3, r0
 1181 001e 2370     		strb	r3, [r4]
 741:Generated_Source\PSoC4/CyLFClk.c ****             CySysClkLfclkPosedgeCatch();
 1182              		.loc 2 741 0
 1183 0020 FFF7FEFF 		bl	CySysClkLfclkPosedgeCatch
 742:Generated_Source\PSoC4/CyLFClk.c ****             CY_SYS_WDT_CONFIG_REG = (CY_SYS_WDT_CONFIG_REG & (uint32)(~CY_SYS_CLK_LFCLK_SEL_MASK)) 
 1184              		.loc 2 742 0
 1185 0024 0A4B     		ldr	r3, .L85
 1186 0026 0A4A     		ldr	r2, .L85
 1187 0028 1268     		ldr	r2, [r2]
 1188 002a 9200     		lsl	r2, r2, #2
 1189 002c 9108     		lsr	r1, r2, #2
 743:Generated_Source\PSoC4/CyLFClk.c ****                                     (source & CY_SYS_CLK_LFCLK_SEL_MASK);
 1190              		.loc 2 743 0
 1191 002e 7A68     		ldr	r2, [r7, #4]
 1192 0030 920F     		lsr	r2, r2, #30
 1193 0032 9207     		lsl	r2, r2, #30
 742:Generated_Source\PSoC4/CyLFClk.c ****             CY_SYS_WDT_CONFIG_REG = (CY_SYS_WDT_CONFIG_REG & (uint32)(~CY_SYS_CLK_LFCLK_SEL_MASK)) 
 1194              		.loc 2 742 0
 1195 0034 0A43     		orr	r2, r1
 1196 0036 1A60     		str	r2, [r3]
 744:Generated_Source\PSoC4/CyLFClk.c ****             CySysClkLfclkPosedgeRestore();
 1197              		.loc 2 744 0
 1198 0038 FFF7FEFF 		bl	CySysClkLfclkPosedgeRestore
 745:Generated_Source\PSoC4/CyLFClk.c ****             CyExitCriticalSection(interruptState);
 1199              		.loc 2 745 0
 1200 003c 0F23     		mov	r3, #15
 1201 003e FB18     		add	r3, r7, r3
 1202 0040 1B78     		ldrb	r3, [r3]
 1203 0042 181C     		mov	r0, r3
 1204 0044 FFF7FEFF 		bl	CyExitCriticalSection
 1205              	.L83:
 746:Generated_Source\PSoC4/CyLFClk.c ****         }
 747:Generated_Source\PSoC4/CyLFClk.c ****     }
 1206              		.loc 2 747 0
 1207 0048 BD46     		mov	sp, r7
 1208 004a 05B0     		add	sp, sp, #20
 1209              		@ sp needed
 1210 004c 90BD     		pop	{r4, r7, pc}
 1211              	.L86:
 1212 004e C046     		.align	2
 1213              	.L85:
ARM GAS  C:\Users\akita\AppData\Local\Temp\ccTFmJyh.s 			page 48


 1214 0050 0C020B40 		.word	1074463244
 1215              		.cfi_endproc
 1216              	.LFE12:
 1217              		.size	CySysClkSetLfclkSource, .-CySysClkSetLfclkSource
 1218              		.section	.text.CySysClkWcoStart,"ax",%progbits
 1219              		.align	2
 1220              		.global	CySysClkWcoStart
 1221              		.code	16
 1222              		.thumb_func
 1223              		.type	CySysClkWcoStart, %function
 1224              	CySysClkWcoStart:
 1225              	.LFB13:
 748:Generated_Source\PSoC4/CyLFClk.c **** #endif /* (CY_IP_WCO && CY_IP_SRSSV2) */
 749:Generated_Source\PSoC4/CyLFClk.c **** 
 750:Generated_Source\PSoC4/CyLFClk.c **** 
 751:Generated_Source\PSoC4/CyLFClk.c **** #if (CY_IP_WCO)
 752:Generated_Source\PSoC4/CyLFClk.c ****     /*******************************************************************************
 753:Generated_Source\PSoC4/CyLFClk.c ****     * Function Name: CySysClkWcoStart
 754:Generated_Source\PSoC4/CyLFClk.c ****     ****************************************************************************//**
 755:Generated_Source\PSoC4/CyLFClk.c ****     * \brief
 756:Generated_Source\PSoC4/CyLFClk.c ****     *  Enables Watch Crystal Oscillator (WCO).
 757:Generated_Source\PSoC4/CyLFClk.c ****     * 
 758:Generated_Source\PSoC4/CyLFClk.c ****     * This API enables WCO which is used as a source for LFCLK. Similar to ILO, 
 759:Generated_Source\PSoC4/CyLFClk.c ****     * WCO is also available in all modes except Hibernate and Stop modes.
 760:Generated_Source\PSoC4/CyLFClk.c ****     * \note In PSoC 4000S / PSoC 4100S / PSoC Analog Coprocessor devices
 761:Generated_Source\PSoC4/CyLFClk.c ****     * WCO cannot be a source for the LFCLK. 
 762:Generated_Source\PSoC4/CyLFClk.c ****     *
 763:Generated_Source\PSoC4/CyLFClk.c ****     *  WCO is always enabled in High Power Mode (HPM). Refer to the device
 764:Generated_Source\PSoC4/CyLFClk.c ****     *  datasheet for the  WCO startup time. Once WCO becomes stable it can be
 765:Generated_Source\PSoC4/CyLFClk.c ****     *  switched to Low Power Mode (LPM). Note that oscillator can be unstable
 766:Generated_Source\PSoC4/CyLFClk.c ****     *  during a switch and hence its output should not be used at that moment.
 767:Generated_Source\PSoC4/CyLFClk.c ****     *
 768:Generated_Source\PSoC4/CyLFClk.c ****     *  The CySysClkWcoSetPowerMode() function configures the WCO power mode.
 769:Generated_Source\PSoC4/CyLFClk.c ****     *
 770:Generated_Source\PSoC4/CyLFClk.c ****     *******************************************************************************/
 771:Generated_Source\PSoC4/CyLFClk.c ****     void CySysClkWcoStart(void)
 772:Generated_Source\PSoC4/CyLFClk.c ****     {
 1226              		.loc 2 772 0
 1227              		.cfi_startproc
 1228 0000 80B5     		push	{r7, lr}
 1229              		.cfi_def_cfa_offset 8
 1230              		.cfi_offset 7, -8
 1231              		.cfi_offset 14, -4
 1232 0002 00AF     		add	r7, sp, #0
 1233              		.cfi_def_cfa_register 7
 773:Generated_Source\PSoC4/CyLFClk.c ****         CySysClkWcoSetHighPowerMode();
 1234              		.loc 2 773 0
 1235 0004 FFF7FEFF 		bl	CySysClkWcoSetHighPowerMode
 774:Generated_Source\PSoC4/CyLFClk.c ****         CY_SYS_CLK_WCO_CONFIG_REG |= CY_SYS_CLK_WCO_CONFIG_LPM_ENABLE;
 1236              		.loc 2 774 0
 1237 0008 044B     		ldr	r3, .L88
 1238 000a 044A     		ldr	r2, .L88
 1239 000c 1268     		ldr	r2, [r2]
 1240 000e 8021     		mov	r1, #128
 1241 0010 0906     		lsl	r1, r1, #24
 1242 0012 0A43     		orr	r2, r1
 1243 0014 1A60     		str	r2, [r3]
ARM GAS  C:\Users\akita\AppData\Local\Temp\ccTFmJyh.s 			page 49


 775:Generated_Source\PSoC4/CyLFClk.c ****     }
 1244              		.loc 2 775 0
 1245 0016 BD46     		mov	sp, r7
 1246              		@ sp needed
 1247 0018 80BD     		pop	{r7, pc}
 1248              	.L89:
 1249 001a C046     		.align	2
 1250              	.L88:
 1251 001c 00F02E40 		.word	1076817920
 1252              		.cfi_endproc
 1253              	.LFE13:
 1254              		.size	CySysClkWcoStart, .-CySysClkWcoStart
 1255              		.section	.text.CySysClkWcoStop,"ax",%progbits
 1256              		.align	2
 1257              		.global	CySysClkWcoStop
 1258              		.code	16
 1259              		.thumb_func
 1260              		.type	CySysClkWcoStop, %function
 1261              	CySysClkWcoStop:
 1262              	.LFB14:
 776:Generated_Source\PSoC4/CyLFClk.c **** 
 777:Generated_Source\PSoC4/CyLFClk.c **** 
 778:Generated_Source\PSoC4/CyLFClk.c ****     /*******************************************************************************
 779:Generated_Source\PSoC4/CyLFClk.c ****     * Function Name: CySysClkWcoStop
 780:Generated_Source\PSoC4/CyLFClk.c ****     ****************************************************************************//**
 781:Generated_Source\PSoC4/CyLFClk.c ****     * \brief
 782:Generated_Source\PSoC4/CyLFClk.c ****     * Disables the 32 KHz Crystal Oscillator.
 783:Generated_Source\PSoC4/CyLFClk.c ****     *
 784:Generated_Source\PSoC4/CyLFClk.c ****     * API switch of WCO.
 785:Generated_Source\PSoC4/CyLFClk.c ****     * \note PSoC 4100S / PSoC Analog Coprocessor: WCO is required for DeepSleep 
 786:Generated_Source\PSoC4/CyLFClk.c ****     * Timer's operation.
 787:Generated_Source\PSoC4/CyLFClk.c ****     *
 788:Generated_Source\PSoC4/CyLFClk.c ****     *******************************************************************************/
 789:Generated_Source\PSoC4/CyLFClk.c ****     void  CySysClkWcoStop(void)
 790:Generated_Source\PSoC4/CyLFClk.c ****     {
 1263              		.loc 2 790 0
 1264              		.cfi_startproc
 1265 0000 90B5     		push	{r4, r7, lr}
 1266              		.cfi_def_cfa_offset 12
 1267              		.cfi_offset 4, -12
 1268              		.cfi_offset 7, -8
 1269              		.cfi_offset 14, -4
 1270 0002 83B0     		sub	sp, sp, #12
 1271              		.cfi_def_cfa_offset 24
 1272 0004 00AF     		add	r7, sp, #0
 1273              		.cfi_def_cfa_register 7
 791:Generated_Source\PSoC4/CyLFClk.c ****         #if (CY_IP_SRSSV2)
 792:Generated_Source\PSoC4/CyLFClk.c ****             uint8  interruptState;
 793:Generated_Source\PSoC4/CyLFClk.c ****         #endif /* (CY_IP_SRSSV2) */
 794:Generated_Source\PSoC4/CyLFClk.c **** 
 795:Generated_Source\PSoC4/CyLFClk.c ****         if (0u != CySysClkWcoEnabled())
 1274              		.loc 2 795 0
 1275 0006 FFF7FEFF 		bl	CySysClkWcoEnabled
 1276 000a 031E     		sub	r3, r0, #0
 1277 000c 21D0     		beq	.L90
 796:Generated_Source\PSoC4/CyLFClk.c ****         {
 797:Generated_Source\PSoC4/CyLFClk.c ****             #if (CY_IP_SRSSV2)
ARM GAS  C:\Users\akita\AppData\Local\Temp\ccTFmJyh.s 			page 50


 798:Generated_Source\PSoC4/CyLFClk.c ****                 if (CY_SYS_CLK_LFCLK_SRC_WCO == CySysClkGetLfclkSource())
 1278              		.loc 2 798 0
 1279 000e FFF7FEFF 		bl	CySysClkGetLfclkSource
 1280 0012 021C     		mov	r2, r0
 1281 0014 8023     		mov	r3, #128
 1282 0016 DB05     		lsl	r3, r3, #23
 1283 0018 9A42     		cmp	r2, r3
 1284 001a 14D1     		bne	.L92
 799:Generated_Source\PSoC4/CyLFClk.c ****                 {
 800:Generated_Source\PSoC4/CyLFClk.c ****                     interruptState = CyEnterCriticalSection();
 1285              		.loc 2 800 0
 1286 001c FC1D     		add	r4, r7, #7
 1287 001e FFF7FEFF 		bl	CyEnterCriticalSection
 1288 0022 031C     		mov	r3, r0
 1289 0024 2370     		strb	r3, [r4]
 801:Generated_Source\PSoC4/CyLFClk.c ****                     CySysClkLfclkPosedgeCatch();
 1290              		.loc 2 801 0
 1291 0026 FFF7FEFF 		bl	CySysClkLfclkPosedgeCatch
 802:Generated_Source\PSoC4/CyLFClk.c ****                     CY_SYS_CLK_WCO_CONFIG_REG &= (uint32) ~CY_SYS_CLK_WCO_CONFIG_LPM_ENABLE;
 1292              		.loc 2 802 0
 1293 002a 0B4B     		ldr	r3, .L93
 1294 002c 0A4A     		ldr	r2, .L93
 1295 002e 1268     		ldr	r2, [r2]
 1296 0030 5200     		lsl	r2, r2, #1
 1297 0032 5208     		lsr	r2, r2, #1
 1298 0034 1A60     		str	r2, [r3]
 803:Generated_Source\PSoC4/CyLFClk.c ****                     CySysClkLfclkPosedgeRestore();
 1299              		.loc 2 803 0
 1300 0036 FFF7FEFF 		bl	CySysClkLfclkPosedgeRestore
 804:Generated_Source\PSoC4/CyLFClk.c ****                     CyExitCriticalSection(interruptState);
 1301              		.loc 2 804 0
 1302 003a FB1D     		add	r3, r7, #7
 1303 003c 1B78     		ldrb	r3, [r3]
 1304 003e 181C     		mov	r0, r3
 1305 0040 FFF7FEFF 		bl	CyExitCriticalSection
 1306 0044 05E0     		b	.L90
 1307              	.L92:
 805:Generated_Source\PSoC4/CyLFClk.c ****                 }
 806:Generated_Source\PSoC4/CyLFClk.c ****                 else /* Safe to disable - shortened pulse does not impact peripheral */
 807:Generated_Source\PSoC4/CyLFClk.c ****             #endif /* (CY_IP_SRSSV2) */
 808:Generated_Source\PSoC4/CyLFClk.c ****             {
 809:Generated_Source\PSoC4/CyLFClk.c ****                 CY_SYS_CLK_WCO_CONFIG_REG &= (uint32) ~CY_SYS_CLK_WCO_CONFIG_LPM_ENABLE;
 1308              		.loc 2 809 0
 1309 0046 044B     		ldr	r3, .L93
 1310 0048 034A     		ldr	r2, .L93
 1311 004a 1268     		ldr	r2, [r2]
 1312 004c 5200     		lsl	r2, r2, #1
 1313 004e 5208     		lsr	r2, r2, #1
 1314 0050 1A60     		str	r2, [r3]
 1315              	.L90:
 810:Generated_Source\PSoC4/CyLFClk.c ****             }
 811:Generated_Source\PSoC4/CyLFClk.c ****         } /* Otherwise do nothing. WCO configuration cannot be changed. */
 812:Generated_Source\PSoC4/CyLFClk.c ****     }
 1316              		.loc 2 812 0
 1317 0052 BD46     		mov	sp, r7
 1318 0054 03B0     		add	sp, sp, #12
 1319              		@ sp needed
ARM GAS  C:\Users\akita\AppData\Local\Temp\ccTFmJyh.s 			page 51


 1320 0056 90BD     		pop	{r4, r7, pc}
 1321              	.L94:
 1322              		.align	2
 1323              	.L93:
 1324 0058 00F02E40 		.word	1076817920
 1325              		.cfi_endproc
 1326              	.LFE14:
 1327              		.size	CySysClkWcoStop, .-CySysClkWcoStop
 1328              		.section	.text.CySysClkWcoEnabled,"ax",%progbits
 1329              		.align	2
 1330              		.global	CySysClkWcoEnabled
 1331              		.code	16
 1332              		.thumb_func
 1333              		.type	CySysClkWcoEnabled, %function
 1334              	CySysClkWcoEnabled:
 1335              	.LFB15:
 813:Generated_Source\PSoC4/CyLFClk.c **** 
 814:Generated_Source\PSoC4/CyLFClk.c **** 
 815:Generated_Source\PSoC4/CyLFClk.c ****     /*******************************************************************************
 816:Generated_Source\PSoC4/CyLFClk.c ****     * Function Name: CySysClkWcoEnabled
 817:Generated_Source\PSoC4/CyLFClk.c ****     ****************************************************************************//**
 818:Generated_Source\PSoC4/CyLFClk.c ****     * \internal Reports the WCO enable state.
 819:Generated_Source\PSoC4/CyLFClk.c ****     *
 820:Generated_Source\PSoC4/CyLFClk.c ****     * \return 1 if WCO is enabled
 821:Generated_Source\PSoC4/CyLFClk.c ****     * \return 0 if WCO is disabled.
 822:Generated_Source\PSoC4/CyLFClk.c ****     * \endinternal
 823:Generated_Source\PSoC4/CyLFClk.c ****     *******************************************************************************/
 824:Generated_Source\PSoC4/CyLFClk.c ****     uint32 CySysClkWcoEnabled(void)
 825:Generated_Source\PSoC4/CyLFClk.c ****     {
 1336              		.loc 2 825 0
 1337              		.cfi_startproc
 1338 0000 80B5     		push	{r7, lr}
 1339              		.cfi_def_cfa_offset 8
 1340              		.cfi_offset 7, -8
 1341              		.cfi_offset 14, -4
 1342 0002 00AF     		add	r7, sp, #0
 1343              		.cfi_def_cfa_register 7
 826:Generated_Source\PSoC4/CyLFClk.c ****         return ((0u != (CY_SYS_CLK_WCO_CONFIG_REG & (uint32)(CY_SYS_CLK_WCO_CONFIG_LPM_ENABLE))) ?
 1344              		.loc 2 826 0
 1345 0004 044B     		ldr	r3, .L99
 1346 0006 1B68     		ldr	r3, [r3]
 827:Generated_Source\PSoC4/CyLFClk.c ****                 (uint32) 1u :
 1347              		.loc 2 827 0
 1348 0008 002B     		cmp	r3, #0
 1349 000a 01DA     		bge	.L96
 1350              		.loc 2 827 0 is_stmt 0 discriminator 1
 1351 000c 0123     		mov	r3, #1
 1352 000e 00E0     		b	.L97
 1353              	.L96:
 1354              		.loc 2 827 0 discriminator 2
 1355 0010 0023     		mov	r3, #0
 1356              	.L97:
 828:Generated_Source\PSoC4/CyLFClk.c ****                 (uint32) 0u);
 829:Generated_Source\PSoC4/CyLFClk.c ****     }
 1357              		.loc 2 829 0 is_stmt 1
 1358 0012 181C     		mov	r0, r3
 1359 0014 BD46     		mov	sp, r7
ARM GAS  C:\Users\akita\AppData\Local\Temp\ccTFmJyh.s 			page 52


 1360              		@ sp needed
 1361 0016 80BD     		pop	{r7, pc}
 1362              	.L100:
 1363              		.align	2
 1364              	.L99:
 1365 0018 00F02E40 		.word	1076817920
 1366              		.cfi_endproc
 1367              	.LFE15:
 1368              		.size	CySysClkWcoEnabled, .-CySysClkWcoEnabled
 1369              		.section	.text.CySysClkWcoSetPowerMode,"ax",%progbits
 1370              		.align	2
 1371              		.global	CySysClkWcoSetPowerMode
 1372              		.code	16
 1373              		.thumb_func
 1374              		.type	CySysClkWcoSetPowerMode, %function
 1375              	CySysClkWcoSetPowerMode:
 1376              	.LFB16:
 830:Generated_Source\PSoC4/CyLFClk.c **** 
 831:Generated_Source\PSoC4/CyLFClk.c **** 
 832:Generated_Source\PSoC4/CyLFClk.c ****     /*******************************************************************************
 833:Generated_Source\PSoC4/CyLFClk.c ****     * Function Name: CySysClkWcoSetPowerMode
 834:Generated_Source\PSoC4/CyLFClk.c ****     ****************************************************************************//**
 835:Generated_Source\PSoC4/CyLFClk.c ****     * \brief
 836:Generated_Source\PSoC4/CyLFClk.c ****     * Sets the power mode for the 32 KHz WCO.
 837:Generated_Source\PSoC4/CyLFClk.c ****     *
 838:Generated_Source\PSoC4/CyLFClk.c ****     * By default (if this function is not called), the WCO is in High power mode 
 839:Generated_Source\PSoC4/CyLFClk.c ****     * during Active and device's low power modes
 840:Generated_Source\PSoC4/CyLFClk.c ****     *
 841:Generated_Source\PSoC4/CyLFClk.c ****     * \param mode
 842:Generated_Source\PSoC4/CyLFClk.c ****     * CY_SYS_CLK_WCO_HPM - The High Power mode.<br>
 843:Generated_Source\PSoC4/CyLFClk.c ****     * CY_SYS_CLK_WCO_LPM - The Low Power mode.
 844:Generated_Source\PSoC4/CyLFClk.c ****     *
 845:Generated_Source\PSoC4/CyLFClk.c ****     * \return A previous power mode. The same as the parameters.
 846:Generated_Source\PSoC4/CyLFClk.c ****     *
 847:Generated_Source\PSoC4/CyLFClk.c ****     * \note
 848:Generated_Source\PSoC4/CyLFClk.c ****     * The WCO Low Power mode is applicable for PSoC 4100 BLE / PSoC 4200 BLE devices.
 849:Generated_Source\PSoC4/CyLFClk.c ****     *
 850:Generated_Source\PSoC4/CyLFClk.c ****     *******************************************************************************/
 851:Generated_Source\PSoC4/CyLFClk.c ****     uint32 CySysClkWcoSetPowerMode(uint32 mode)
 852:Generated_Source\PSoC4/CyLFClk.c ****     {
 1377              		.loc 2 852 0
 1378              		.cfi_startproc
 1379 0000 80B5     		push	{r7, lr}
 1380              		.cfi_def_cfa_offset 8
 1381              		.cfi_offset 7, -8
 1382              		.cfi_offset 14, -4
 1383 0002 84B0     		sub	sp, sp, #16
 1384              		.cfi_def_cfa_offset 24
 1385 0004 00AF     		add	r7, sp, #0
 1386              		.cfi_def_cfa_register 7
 1387 0006 7860     		str	r0, [r7, #4]
 853:Generated_Source\PSoC4/CyLFClk.c ****         uint32 powerModeStatus;
 854:Generated_Source\PSoC4/CyLFClk.c **** 
 855:Generated_Source\PSoC4/CyLFClk.c ****         powerModeStatus = CY_SYS_CLK_WCO_CONFIG_REG & CY_SYS_CLK_WCO_CONFIG_LPM_EN;
 1388              		.loc 2 855 0
 1389 0008 0C4B     		ldr	r3, .L108
 1390 000a 1B68     		ldr	r3, [r3]
ARM GAS  C:\Users\akita\AppData\Local\Temp\ccTFmJyh.s 			page 53


 1391 000c 0122     		mov	r2, #1
 1392 000e 1340     		and	r3, r2
 1393 0010 FB60     		str	r3, [r7, #12]
 856:Generated_Source\PSoC4/CyLFClk.c **** 
 857:Generated_Source\PSoC4/CyLFClk.c ****         switch(mode)
 1394              		.loc 2 857 0
 1395 0012 7B68     		ldr	r3, [r7, #4]
 1396 0014 002B     		cmp	r3, #0
 1397 0016 02D0     		beq	.L103
 1398 0018 012B     		cmp	r3, #1
 1399 001a 03D0     		beq	.L104
 1400 001c 05E0     		b	.L107
 1401              	.L103:
 858:Generated_Source\PSoC4/CyLFClk.c ****         {
 859:Generated_Source\PSoC4/CyLFClk.c ****         case CY_SYS_CLK_WCO_HPM:
 860:Generated_Source\PSoC4/CyLFClk.c ****                 CySysClkWcoSetHighPowerMode();
 1402              		.loc 2 860 0
 1403 001e FFF7FEFF 		bl	CySysClkWcoSetHighPowerMode
 861:Generated_Source\PSoC4/CyLFClk.c ****             break;
 1404              		.loc 2 861 0
 1405 0022 06E0     		b	.L105
 1406              	.L104:
 862:Generated_Source\PSoC4/CyLFClk.c **** 
 863:Generated_Source\PSoC4/CyLFClk.c ****         #if(CY_PSOC4_4100BL || CY_PSOC4_4200BL)
 864:Generated_Source\PSoC4/CyLFClk.c ****             case CY_SYS_CLK_WCO_LPM:
 865:Generated_Source\PSoC4/CyLFClk.c ****                     CySysClkWcoSetLowPowerMode();
 1407              		.loc 2 865 0
 1408 0024 FFF7FEFF 		bl	CySysClkWcoSetLowPowerMode
 866:Generated_Source\PSoC4/CyLFClk.c ****                 break;
 1409              		.loc 2 866 0
 1410 0028 03E0     		b	.L105
 1411              	.L107:
 867:Generated_Source\PSoC4/CyLFClk.c ****         #endif /* (CY_PSOC4_4100BL || CY_PSOC4_4200BL) */
 868:Generated_Source\PSoC4/CyLFClk.c **** 
 869:Generated_Source\PSoC4/CyLFClk.c ****         default:
 870:Generated_Source\PSoC4/CyLFClk.c ****             CYASSERT(0u != 0u);
 1412              		.loc 2 870 0
 1413 002a 0020     		mov	r0, #0
 1414 002c FFF7FEFF 		bl	CyHalt
 871:Generated_Source\PSoC4/CyLFClk.c ****             break;
 1415              		.loc 2 871 0
 1416 0030 C046     		mov	r8, r8
 1417              	.L105:
 872:Generated_Source\PSoC4/CyLFClk.c ****         }
 873:Generated_Source\PSoC4/CyLFClk.c **** 
 874:Generated_Source\PSoC4/CyLFClk.c ****         return (powerModeStatus);
 1418              		.loc 2 874 0
 1419 0032 FB68     		ldr	r3, [r7, #12]
 875:Generated_Source\PSoC4/CyLFClk.c ****     }
 1420              		.loc 2 875 0
 1421 0034 181C     		mov	r0, r3
 1422 0036 BD46     		mov	sp, r7
 1423 0038 04B0     		add	sp, sp, #16
 1424              		@ sp needed
 1425 003a 80BD     		pop	{r7, pc}
 1426              	.L109:
 1427              		.align	2
ARM GAS  C:\Users\akita\AppData\Local\Temp\ccTFmJyh.s 			page 54


 1428              	.L108:
 1429 003c 00F02E40 		.word	1076817920
 1430              		.cfi_endproc
 1431              	.LFE16:
 1432              		.size	CySysClkWcoSetPowerMode, .-CySysClkWcoSetPowerMode
 1433              		.section	.text.CySysClkWcoClockOutSelect,"ax",%progbits
 1434              		.align	2
 1435              		.global	CySysClkWcoClockOutSelect
 1436              		.code	16
 1437              		.thumb_func
 1438              		.type	CySysClkWcoClockOutSelect, %function
 1439              	CySysClkWcoClockOutSelect:
 1440              	.LFB17:
 876:Generated_Source\PSoC4/CyLFClk.c **** 
 877:Generated_Source\PSoC4/CyLFClk.c **** 
 878:Generated_Source\PSoC4/CyLFClk.c **** /*******************************************************************************
 879:Generated_Source\PSoC4/CyLFClk.c **** * Function Name: CySysClkWcoClockOutSelect
 880:Generated_Source\PSoC4/CyLFClk.c **** ****************************************************************************//**
 881:Generated_Source\PSoC4/CyLFClk.c **** * \brief
 882:Generated_Source\PSoC4/CyLFClk.c **** * Selects the WCO block output source.
 883:Generated_Source\PSoC4/CyLFClk.c **** *
 884:Generated_Source\PSoC4/CyLFClk.c **** * In addition to generating 32.768 kHz clock from external crystals, WCO 
 885:Generated_Source\PSoC4/CyLFClk.c **** * can be sourced by external clock source using wco_out pin. The API help to
 886:Generated_Source\PSoC4/CyLFClk.c **** * lets you select between the sources: External crystal or external pin.
 887:Generated_Source\PSoC4/CyLFClk.c **** *
 888:Generated_Source\PSoC4/CyLFClk.c **** * If you want to use external pin to drive WCO the next procedure is required:
 889:Generated_Source\PSoC4/CyLFClk.c **** * <br> 1) Disable the WCO.
 890:Generated_Source\PSoC4/CyLFClk.c **** * <br> 2) Drive the wco_out pin to an external signal source.
 891:Generated_Source\PSoC4/CyLFClk.c **** * <br> 3) Call CySysClkWcoClockOutSelect(CY_SYS_CLK_WCO_SEL_PIN).
 892:Generated_Source\PSoC4/CyLFClk.c **** * <br> 4) Enable the WCO and wait for 15 us before clocking the XO pad at the high 
 893:Generated_Source\PSoC4/CyLFClk.c **** * potential. Let's assume you are using the 1.6v clock amplitude, then the
 894:Generated_Source\PSoC4/CyLFClk.c **** * sequence would start at 1.6v, then 0v, then 1.6v etc at a chosen frequency.
 895:Generated_Source\PSoC4/CyLFClk.c **** *
 896:Generated_Source\PSoC4/CyLFClk.c **** * If you want to use WCO after using an external pin source:
 897:Generated_Source\PSoC4/CyLFClk.c **** * <br> 1) Disable the WCO.
 898:Generated_Source\PSoC4/CyLFClk.c **** * <br> 2) Drive off wco_out pin with external signal source.
 899:Generated_Source\PSoC4/CyLFClk.c **** * <br> 3) Call CySysClkWcoClockOutSelect(CY_SYS_CLK_WCO_SEL_CRYSTAL).
 900:Generated_Source\PSoC4/CyLFClk.c **** * <br> 4) Enable the WCO.
 901:Generated_Source\PSoC4/CyLFClk.c **** *
 902:Generated_Source\PSoC4/CyLFClk.c **** * \warning 
 903:Generated_Source\PSoC4/CyLFClk.c **** * Do not use the oscillator output clock prior to a 15uS delay in your system.
 904:Generated_Source\PSoC4/CyLFClk.c **** * There are no limitations on the external clock frequency.
 905:Generated_Source\PSoC4/CyLFClk.c **** * \warning 
 906:Generated_Source\PSoC4/CyLFClk.c **** * When external clock source was selected to drive WCO block the IMO can be 
 907:Generated_Source\PSoC4/CyLFClk.c **** * trimmed only when external clock source period is equal to WCO external
 908:Generated_Source\PSoC4/CyLFClk.c **** * crystal period. Also external clock source accuracy should be higher 
 909:Generated_Source\PSoC4/CyLFClk.c **** * or equal to WCO external crystal accuracy.
 910:Generated_Source\PSoC4/CyLFClk.c **** *
 911:Generated_Source\PSoC4/CyLFClk.c **** * \param clockSel
 912:Generated_Source\PSoC4/CyLFClk.c **** * CY_SYS_CLK_WCO_SEL_CRYSTAL - Selects External crystal as clock 
 913:Generated_Source\PSoC4/CyLFClk.c **** * source of WCO.<br>
 914:Generated_Source\PSoC4/CyLFClk.c **** * CY_SYS_CLK_WCO_SEL_PIN - Selects External clock input on wco_in pin as 
 915:Generated_Source\PSoC4/CyLFClk.c **** * clock source of WCO.
 916:Generated_Source\PSoC4/CyLFClk.c **** *
 917:Generated_Source\PSoC4/CyLFClk.c **** *******************************************************************************/
 918:Generated_Source\PSoC4/CyLFClk.c **** void CySysClkWcoClockOutSelect(uint32 clockSel)
 919:Generated_Source\PSoC4/CyLFClk.c ****     {
ARM GAS  C:\Users\akita\AppData\Local\Temp\ccTFmJyh.s 			page 55


 1441              		.loc 2 919 0
 1442              		.cfi_startproc
 1443 0000 80B5     		push	{r7, lr}
 1444              		.cfi_def_cfa_offset 8
 1445              		.cfi_offset 7, -8
 1446              		.cfi_offset 14, -4
 1447 0002 82B0     		sub	sp, sp, #8
 1448              		.cfi_def_cfa_offset 16
 1449 0004 00AF     		add	r7, sp, #0
 1450              		.cfi_def_cfa_register 7
 1451 0006 7860     		str	r0, [r7, #4]
 920:Generated_Source\PSoC4/CyLFClk.c ****         if (0u != CySysClkWcoEnabled())
 1452              		.loc 2 920 0
 1453 0008 FFF7FEFF 		bl	CySysClkWcoEnabled
 1454 000c 031E     		sub	r3, r0, #0
 1455 000e 10D0     		beq	.L110
 921:Generated_Source\PSoC4/CyLFClk.c ****         {
 922:Generated_Source\PSoC4/CyLFClk.c ****             if (1u >= clockSel)
 1456              		.loc 2 922 0
 1457 0010 7B68     		ldr	r3, [r7, #4]
 1458 0012 012B     		cmp	r3, #1
 1459 0014 0AD8     		bhi	.L112
 923:Generated_Source\PSoC4/CyLFClk.c ****             {
 924:Generated_Source\PSoC4/CyLFClk.c ****                 CY_SYS_CLK_WCO_CONFIG_REG = (CY_SYS_CLK_WCO_CONFIG_REG & (uint32)(~CY_SYS_CLK_WCO_S
 1460              		.loc 2 924 0
 1461 0016 084B     		ldr	r3, .L113
 1462 0018 074A     		ldr	r2, .L113
 1463 001a 1268     		ldr	r2, [r2]
 1464 001c 0421     		mov	r1, #4
 1465 001e 8A43     		bic	r2, r1
 1466 0020 111C     		mov	r1, r2
 925:Generated_Source\PSoC4/CyLFClk.c ****                                         (clockSel << CY_SYS_CLK_WCO_SELECT_PIN_OFFSET);
 1467              		.loc 2 925 0
 1468 0022 7A68     		ldr	r2, [r7, #4]
 1469 0024 9200     		lsl	r2, r2, #2
 924:Generated_Source\PSoC4/CyLFClk.c ****                                         (clockSel << CY_SYS_CLK_WCO_SELECT_PIN_OFFSET);
 1470              		.loc 2 924 0
 1471 0026 0A43     		orr	r2, r1
 1472 0028 1A60     		str	r2, [r3]
 1473 002a 02E0     		b	.L110
 1474              	.L112:
 926:Generated_Source\PSoC4/CyLFClk.c ****             }
 927:Generated_Source\PSoC4/CyLFClk.c ****             else
 928:Generated_Source\PSoC4/CyLFClk.c ****             {
 929:Generated_Source\PSoC4/CyLFClk.c ****                 CYASSERT(0u != 0u);
 1475              		.loc 2 929 0 discriminator 1
 1476 002c 0020     		mov	r0, #0
 1477 002e FFF7FEFF 		bl	CyHalt
 1478              	.L110:
 930:Generated_Source\PSoC4/CyLFClk.c ****             }
 931:Generated_Source\PSoC4/CyLFClk.c ****         }
 932:Generated_Source\PSoC4/CyLFClk.c ****     }
 1479              		.loc 2 932 0
 1480 0032 BD46     		mov	sp, r7
 1481 0034 02B0     		add	sp, sp, #8
 1482              		@ sp needed
 1483 0036 80BD     		pop	{r7, pc}
ARM GAS  C:\Users\akita\AppData\Local\Temp\ccTFmJyh.s 			page 56


 1484              	.L114:
 1485              		.align	2
 1486              	.L113:
 1487 0038 00F02E40 		.word	1076817920
 1488              		.cfi_endproc
 1489              	.LFE17:
 1490              		.size	CySysClkWcoClockOutSelect, .-CySysClkWcoClockOutSelect
 1491              		.section	.text.CySysWdtLock,"ax",%progbits
 1492              		.align	2
 1493              		.global	CySysWdtLock
 1494              		.code	16
 1495              		.thumb_func
 1496              		.type	CySysWdtLock, %function
 1497              	CySysWdtLock:
 1498              	.LFB18:
 933:Generated_Source\PSoC4/CyLFClk.c **** #endif  /* (CY_IP_WCO) */
 934:Generated_Source\PSoC4/CyLFClk.c **** 
 935:Generated_Source\PSoC4/CyLFClk.c **** 
 936:Generated_Source\PSoC4/CyLFClk.c **** #if(CY_IP_SRSSV2)
 937:Generated_Source\PSoC4/CyLFClk.c ****     /*******************************************************************************
 938:Generated_Source\PSoC4/CyLFClk.c ****     * Function Name: CySysWdtLock
 939:Generated_Source\PSoC4/CyLFClk.c ****     ****************************************************************************//**
 940:Generated_Source\PSoC4/CyLFClk.c ****     * \brief
 941:Generated_Source\PSoC4/CyLFClk.c ****     * Locks out configuration changes to the Watchdog timer registers and ILO
 942:Generated_Source\PSoC4/CyLFClk.c ****     * configuration register.
 943:Generated_Source\PSoC4/CyLFClk.c ****     *
 944:Generated_Source\PSoC4/CyLFClk.c ****     * After this function is called, ILO clock can't be disabled until
 945:Generated_Source\PSoC4/CyLFClk.c ****     * CySysWdtUnlock() is called.
 946:Generated_Source\PSoC4/CyLFClk.c ****     *
 947:Generated_Source\PSoC4/CyLFClk.c ****     *******************************************************************************/
 948:Generated_Source\PSoC4/CyLFClk.c ****     void CySysWdtLock(void)
 949:Generated_Source\PSoC4/CyLFClk.c ****     {
 1499              		.loc 2 949 0
 1500              		.cfi_startproc
 1501 0000 90B5     		push	{r4, r7, lr}
 1502              		.cfi_def_cfa_offset 12
 1503              		.cfi_offset 4, -12
 1504              		.cfi_offset 7, -8
 1505              		.cfi_offset 14, -4
 1506 0002 83B0     		sub	sp, sp, #12
 1507              		.cfi_def_cfa_offset 24
 1508 0004 00AF     		add	r7, sp, #0
 1509              		.cfi_def_cfa_register 7
 950:Generated_Source\PSoC4/CyLFClk.c ****         uint8 interruptState;
 951:Generated_Source\PSoC4/CyLFClk.c ****         interruptState = CyEnterCriticalSection();
 1510              		.loc 2 951 0
 1511 0006 FC1D     		add	r4, r7, #7
 1512 0008 FFF7FEFF 		bl	CyEnterCriticalSection
 1513 000c 031C     		mov	r3, r0
 1514 000e 2370     		strb	r3, [r4]
 952:Generated_Source\PSoC4/CyLFClk.c **** 
 953:Generated_Source\PSoC4/CyLFClk.c ****         CY_SYS_CLK_SELECT_REG = (CY_SYS_CLK_SELECT_REG & (uint32)(~CY_SYS_WDT_CLK_LOCK_BITS_MASK)) 
 1515              		.loc 2 953 0
 1516 0010 074B     		ldr	r3, .L116
 1517 0012 074A     		ldr	r2, .L116
 1518 0014 1268     		ldr	r2, [r2]
 1519 0016 C021     		mov	r1, #192
ARM GAS  C:\Users\akita\AppData\Local\Temp\ccTFmJyh.s 			page 57


 1520 0018 0902     		lsl	r1, r1, #8
 1521 001a 0A43     		orr	r2, r1
 1522 001c 1A60     		str	r2, [r3]
 954:Generated_Source\PSoC4/CyLFClk.c ****                  CY_SYS_WDT_CLK_LOCK_BITS_MASK;
 955:Generated_Source\PSoC4/CyLFClk.c **** 
 956:Generated_Source\PSoC4/CyLFClk.c ****         CyExitCriticalSection(interruptState);
 1523              		.loc 2 956 0
 1524 001e FB1D     		add	r3, r7, #7
 1525 0020 1B78     		ldrb	r3, [r3]
 1526 0022 181C     		mov	r0, r3
 1527 0024 FFF7FEFF 		bl	CyExitCriticalSection
 957:Generated_Source\PSoC4/CyLFClk.c ****     }
 1528              		.loc 2 957 0
 1529 0028 BD46     		mov	sp, r7
 1530 002a 03B0     		add	sp, sp, #12
 1531              		@ sp needed
 1532 002c 90BD     		pop	{r4, r7, pc}
 1533              	.L117:
 1534 002e C046     		.align	2
 1535              	.L116:
 1536 0030 00010B40 		.word	1074462976
 1537              		.cfi_endproc
 1538              	.LFE18:
 1539              		.size	CySysWdtLock, .-CySysWdtLock
 1540              		.section	.text.CySysWdtLocked,"ax",%progbits
 1541              		.align	2
 1542              		.code	16
 1543              		.thumb_func
 1544              		.type	CySysWdtLocked, %function
 1545              	CySysWdtLocked:
 1546              	.LFB19:
 958:Generated_Source\PSoC4/CyLFClk.c **** 
 959:Generated_Source\PSoC4/CyLFClk.c **** 
 960:Generated_Source\PSoC4/CyLFClk.c ****     /*******************************************************************************
 961:Generated_Source\PSoC4/CyLFClk.c ****     * Function Name: CySysWdtLocked
 962:Generated_Source\PSoC4/CyLFClk.c ****     ****************************************************************************//**
 963:Generated_Source\PSoC4/CyLFClk.c ****     * \internal
 964:Generated_Source\PSoC4/CyLFClk.c ****     * Reports the WDT lock state.
 965:Generated_Source\PSoC4/CyLFClk.c ****     *
 966:Generated_Source\PSoC4/CyLFClk.c ****     * \return 1 - WDT is locked, and 0 - WDT is unlocked.
 967:Generated_Source\PSoC4/CyLFClk.c ****     * \endinternal
 968:Generated_Source\PSoC4/CyLFClk.c ****     *******************************************************************************/
 969:Generated_Source\PSoC4/CyLFClk.c ****     static uint32 CySysWdtLocked(void)
 970:Generated_Source\PSoC4/CyLFClk.c ****     {
 1547              		.loc 2 970 0
 1548              		.cfi_startproc
 1549 0000 80B5     		push	{r7, lr}
 1550              		.cfi_def_cfa_offset 8
 1551              		.cfi_offset 7, -8
 1552              		.cfi_offset 14, -4
 1553 0002 00AF     		add	r7, sp, #0
 1554              		.cfi_def_cfa_register 7
 971:Generated_Source\PSoC4/CyLFClk.c ****         /* Prohibits writing to WDT registers and ILO/WCO registers when not equal 0 */
 972:Generated_Source\PSoC4/CyLFClk.c ****         return ((0u != (CY_SYS_CLK_SELECT_REG & (uint32)(CY_SYS_WDT_CLK_LOCK_BITS_MASK))) ? (uint32
 1555              		.loc 2 972 0
 1556 0004 054B     		ldr	r3, .L122
 1557 0006 1A68     		ldr	r2, [r3]
ARM GAS  C:\Users\akita\AppData\Local\Temp\ccTFmJyh.s 			page 58


 1558 0008 C023     		mov	r3, #192
 1559 000a 1B02     		lsl	r3, r3, #8
 1560 000c 1340     		and	r3, r2
 1561 000e 01D0     		beq	.L119
 1562              		.loc 2 972 0 is_stmt 0 discriminator 1
 1563 0010 0123     		mov	r3, #1
 1564 0012 00E0     		b	.L120
 1565              	.L119:
 1566              		.loc 2 972 0 discriminator 2
 1567 0014 0023     		mov	r3, #0
 1568              	.L120:
 973:Generated_Source\PSoC4/CyLFClk.c ****     }
 1569              		.loc 2 973 0 is_stmt 1 discriminator 4
 1570 0016 181C     		mov	r0, r3
 1571 0018 BD46     		mov	sp, r7
 1572              		@ sp needed
 1573 001a 80BD     		pop	{r7, pc}
 1574              	.L123:
 1575              		.align	2
 1576              	.L122:
 1577 001c 00010B40 		.word	1074462976
 1578              		.cfi_endproc
 1579              	.LFE19:
 1580              		.size	CySysWdtLocked, .-CySysWdtLocked
 1581              		.section	.text.CySysWdtUnlock,"ax",%progbits
 1582              		.align	2
 1583              		.global	CySysWdtUnlock
 1584              		.code	16
 1585              		.thumb_func
 1586              		.type	CySysWdtUnlock, %function
 1587              	CySysWdtUnlock:
 1588              	.LFB20:
 974:Generated_Source\PSoC4/CyLFClk.c **** 
 975:Generated_Source\PSoC4/CyLFClk.c **** 
 976:Generated_Source\PSoC4/CyLFClk.c ****     /*******************************************************************************
 977:Generated_Source\PSoC4/CyLFClk.c ****     * Function Name: CySysWdtUnlock
 978:Generated_Source\PSoC4/CyLFClk.c ****     ****************************************************************************//**
 979:Generated_Source\PSoC4/CyLFClk.c ****     * \brief
 980:Generated_Source\PSoC4/CyLFClk.c ****     *  Unlocks the Watchdog Timer configuration register.
 981:Generated_Source\PSoC4/CyLFClk.c ****     *
 982:Generated_Source\PSoC4/CyLFClk.c ****     *******************************************************************************/
 983:Generated_Source\PSoC4/CyLFClk.c ****     void CySysWdtUnlock(void)
 984:Generated_Source\PSoC4/CyLFClk.c ****     {
 1589              		.loc 2 984 0
 1590              		.cfi_startproc
 1591 0000 90B5     		push	{r4, r7, lr}
 1592              		.cfi_def_cfa_offset 12
 1593              		.cfi_offset 4, -12
 1594              		.cfi_offset 7, -8
 1595              		.cfi_offset 14, -4
 1596 0002 83B0     		sub	sp, sp, #12
 1597              		.cfi_def_cfa_offset 24
 1598 0004 00AF     		add	r7, sp, #0
 1599              		.cfi_def_cfa_register 7
 985:Generated_Source\PSoC4/CyLFClk.c ****         uint8 interruptState;
 986:Generated_Source\PSoC4/CyLFClk.c ****         interruptState = CyEnterCriticalSection();
 1600              		.loc 2 986 0
ARM GAS  C:\Users\akita\AppData\Local\Temp\ccTFmJyh.s 			page 59


 1601 0006 FC1D     		add	r4, r7, #7
 1602 0008 FFF7FEFF 		bl	CyEnterCriticalSection
 1603 000c 031C     		mov	r3, r0
 1604 000e 2370     		strb	r3, [r4]
 987:Generated_Source\PSoC4/CyLFClk.c **** 
 988:Generated_Source\PSoC4/CyLFClk.c ****         /* Removing WDT lock requires two writes */
 989:Generated_Source\PSoC4/CyLFClk.c ****         CY_SYS_CLK_SELECT_REG = ((CY_SYS_CLK_SELECT_REG & (uint32)(~CY_SYS_WDT_CLK_LOCK_BITS_MASK))
 1605              		.loc 2 989 0
 1606 0010 0C4B     		ldr	r3, .L125
 1607 0012 0C4A     		ldr	r2, .L125
 1608 0014 1268     		ldr	r2, [r2]
 1609 0016 0C49     		ldr	r1, .L125+4
 1610 0018 0A40     		and	r2, r1
 1611 001a 8021     		mov	r1, #128
 1612 001c C901     		lsl	r1, r1, #7
 1613 001e 0A43     		orr	r2, r1
 1614 0020 1A60     		str	r2, [r3]
 990:Generated_Source\PSoC4/CyLFClk.c ****                 CY_SYS_WDT_CLK_LOCK_BIT0);
 991:Generated_Source\PSoC4/CyLFClk.c **** 
 992:Generated_Source\PSoC4/CyLFClk.c ****         CY_SYS_CLK_SELECT_REG = ((CY_SYS_CLK_SELECT_REG & (uint32)(~CY_SYS_WDT_CLK_LOCK_BITS_MASK))
 1615              		.loc 2 992 0
 1616 0022 084B     		ldr	r3, .L125
 1617 0024 074A     		ldr	r2, .L125
 1618 0026 1268     		ldr	r2, [r2]
 1619 0028 0749     		ldr	r1, .L125+4
 1620 002a 0A40     		and	r2, r1
 1621 002c 8021     		mov	r1, #128
 1622 002e 0902     		lsl	r1, r1, #8
 1623 0030 0A43     		orr	r2, r1
 1624 0032 1A60     		str	r2, [r3]
 993:Generated_Source\PSoC4/CyLFClk.c ****                 CY_SYS_WDT_CLK_LOCK_BIT1);
 994:Generated_Source\PSoC4/CyLFClk.c **** 
 995:Generated_Source\PSoC4/CyLFClk.c ****         CyExitCriticalSection(interruptState);
 1625              		.loc 2 995 0
 1626 0034 FB1D     		add	r3, r7, #7
 1627 0036 1B78     		ldrb	r3, [r3]
 1628 0038 181C     		mov	r0, r3
 1629 003a FFF7FEFF 		bl	CyExitCriticalSection
 996:Generated_Source\PSoC4/CyLFClk.c ****     }
 1630              		.loc 2 996 0
 1631 003e BD46     		mov	sp, r7
 1632 0040 03B0     		add	sp, sp, #12
 1633              		@ sp needed
 1634 0042 90BD     		pop	{r4, r7, pc}
 1635              	.L126:
 1636              		.align	2
 1637              	.L125:
 1638 0044 00010B40 		.word	1074462976
 1639 0048 FF3FFFFF 		.word	-49153
 1640              		.cfi_endproc
 1641              	.LFE20:
 1642              		.size	CySysWdtUnlock, .-CySysWdtUnlock
 1643              		.section	.text.CySysWdtGetEnabledStatus,"ax",%progbits
 1644              		.align	2
 1645              		.global	CySysWdtGetEnabledStatus
 1646              		.code	16
 1647              		.thumb_func
ARM GAS  C:\Users\akita\AppData\Local\Temp\ccTFmJyh.s 			page 60


 1648              		.type	CySysWdtGetEnabledStatus, %function
 1649              	CySysWdtGetEnabledStatus:
 1650              	.LFB21:
 997:Generated_Source\PSoC4/CyLFClk.c **** 
 998:Generated_Source\PSoC4/CyLFClk.c **** 
 999:Generated_Source\PSoC4/CyLFClk.c ****     /*******************************************************************************
1000:Generated_Source\PSoC4/CyLFClk.c ****     * Function Name: CySysWdtGetEnabledStatus
1001:Generated_Source\PSoC4/CyLFClk.c ****     ****************************************************************************//**
1002:Generated_Source\PSoC4/CyLFClk.c ****     * \brief
1003:Generated_Source\PSoC4/CyLFClk.c ****     *  Reads the enabled status of one of the three WDT counters.
1004:Generated_Source\PSoC4/CyLFClk.c ****     *
1005:Generated_Source\PSoC4/CyLFClk.c ****     * \param counterNum: Valid range [0-2].  The number of the WDT counter.
1006:Generated_Source\PSoC4/CyLFClk.c ****     *
1007:Generated_Source\PSoC4/CyLFClk.c ****     * \return The status of the WDT counter:
1008:Generated_Source\PSoC4/CyLFClk.c ****     * \return 0 - If the counter is disabled.
1009:Generated_Source\PSoC4/CyLFClk.c ****     * \return 1 - If the counter is enabled.
1010:Generated_Source\PSoC4/CyLFClk.c ****     *
1011:Generated_Source\PSoC4/CyLFClk.c ****     * \details
1012:Generated_Source\PSoC4/CyLFClk.c ****     * This function returns an actual WDT counter status from the status register. It may
1013:Generated_Source\PSoC4/CyLFClk.c ****     * take up to 3 LFCLK cycles for the WDT status register to contain actual data
1014:Generated_Source\PSoC4/CyLFClk.c ****     * after the WDT counter is enabled.
1015:Generated_Source\PSoC4/CyLFClk.c ****     *
1016:Generated_Source\PSoC4/CyLFClk.c ****     *******************************************************************************/
1017:Generated_Source\PSoC4/CyLFClk.c ****     uint32 CySysWdtGetEnabledStatus(uint32 counterNum)
1018:Generated_Source\PSoC4/CyLFClk.c ****     {
 1651              		.loc 2 1018 0
 1652              		.cfi_startproc
 1653 0000 80B5     		push	{r7, lr}
 1654              		.cfi_def_cfa_offset 8
 1655              		.cfi_offset 7, -8
 1656              		.cfi_offset 14, -4
 1657 0002 82B0     		sub	sp, sp, #8
 1658              		.cfi_def_cfa_offset 16
 1659 0004 00AF     		add	r7, sp, #0
 1660              		.cfi_def_cfa_register 7
 1661 0006 7860     		str	r0, [r7, #4]
1019:Generated_Source\PSoC4/CyLFClk.c ****         CYASSERT(counterNum < CY_SYS_WDT_COUNTERS_MAX);
 1662              		.loc 2 1019 0
 1663 0008 7B68     		ldr	r3, [r7, #4]
 1664 000a 022B     		cmp	r3, #2
 1665 000c 02D9     		bls	.L128
 1666              		.loc 2 1019 0 is_stmt 0 discriminator 1
 1667 000e 0020     		mov	r0, #0
 1668 0010 FFF7FEFF 		bl	CyHalt
 1669              	.L128:
1020:Generated_Source\PSoC4/CyLFClk.c ****         return ((CY_SYS_WDT_CONTROL_REG >> ((CY_SYS_WDT_CNT_SHIFT * counterNum) + CY_SYS_WDT_CNT_ST
 1670              		.loc 2 1020 0 is_stmt 1
 1671 0014 054B     		ldr	r3, .L130
 1672 0016 1B68     		ldr	r3, [r3]
 1673 0018 7A68     		ldr	r2, [r7, #4]
 1674 001a D200     		lsl	r2, r2, #3
 1675 001c 0132     		add	r2, r2, #1
 1676 001e D340     		lsr	r3, r3, r2
 1677 0020 0122     		mov	r2, #1
 1678 0022 1340     		and	r3, r2
1021:Generated_Source\PSoC4/CyLFClk.c ****     }
 1679              		.loc 2 1021 0
ARM GAS  C:\Users\akita\AppData\Local\Temp\ccTFmJyh.s 			page 61


 1680 0024 181C     		mov	r0, r3
 1681 0026 BD46     		mov	sp, r7
 1682 0028 02B0     		add	sp, sp, #8
 1683              		@ sp needed
 1684 002a 80BD     		pop	{r7, pc}
 1685              	.L131:
 1686              		.align	2
 1687              	.L130:
 1688 002c 10020B40 		.word	1074463248
 1689              		.cfi_endproc
 1690              	.LFE21:
 1691              		.size	CySysWdtGetEnabledStatus, .-CySysWdtGetEnabledStatus
 1692              		.section	.text.CySysWdtSetMode,"ax",%progbits
 1693              		.align	2
 1694              		.global	CySysWdtSetMode
 1695              		.code	16
 1696              		.thumb_func
 1697              		.type	CySysWdtSetMode, %function
 1698              	CySysWdtSetMode:
 1699              	.LFB22:
1022:Generated_Source\PSoC4/CyLFClk.c **** 
1023:Generated_Source\PSoC4/CyLFClk.c **** 
1024:Generated_Source\PSoC4/CyLFClk.c ****     /*******************************************************************************
1025:Generated_Source\PSoC4/CyLFClk.c ****     * Function Name: CySysWdtSetMode
1026:Generated_Source\PSoC4/CyLFClk.c ****     ****************************************************************************//**
1027:Generated_Source\PSoC4/CyLFClk.c ****     * \brief
1028:Generated_Source\PSoC4/CyLFClk.c ****     * Writes the mode of one of the three WDT counters.
1029:Generated_Source\PSoC4/CyLFClk.c ****     *
1030:Generated_Source\PSoC4/CyLFClk.c ****     * \param counterNum: Valid range [0-2].  The number of the WDT counter.
1031:Generated_Source\PSoC4/CyLFClk.c ****     *
1032:Generated_Source\PSoC4/CyLFClk.c ****     * \param mode
1033:Generated_Source\PSoC4/CyLFClk.c ****     *  CY_SYS_WDT_MODE_NONE - Free running.<br>
1034:Generated_Source\PSoC4/CyLFClk.c ****     * CY_SYS_WDT_MODE_INT - The interrupt generated on match for counter 0
1035:Generated_Source\PSoC4/CyLFClk.c ****     * and 1, and on bit toggle for counter 2.<br>
1036:Generated_Source\PSoC4/CyLFClk.c ****     * CY_SYS_WDT_MODE_RESET - Reset on match (valid for counter 0 and 1 only).<br>
1037:Generated_Source\PSoC4/CyLFClk.c ****     * CY_SYS_WDT_MODE_INT_RESET - Generate an interrupt.  Generate a reset on
1038:Generated_Source\PSoC4/CyLFClk.c ****     * the 3rd non-handled interrupt (valid for counter 0 and counter 1 only).
1039:Generated_Source\PSoC4/CyLFClk.c ****     *
1040:Generated_Source\PSoC4/CyLFClk.c ****     * \details
1041:Generated_Source\PSoC4/CyLFClk.c ****     * WDT counter counterNum should be disabled to set a mode. Otherwise, this
1042:Generated_Source\PSoC4/CyLFClk.c ****     * function call has no effect. If the specified counter is enabled,
1043:Generated_Source\PSoC4/CyLFClk.c ****     * call the CySysWdtDisable() function with the corresponding parameter to
1044:Generated_Source\PSoC4/CyLFClk.c ****     * disable the specified counter and wait for it to stop.
1045:Generated_Source\PSoC4/CyLFClk.c ****     *
1046:Generated_Source\PSoC4/CyLFClk.c ****     *******************************************************************************/
1047:Generated_Source\PSoC4/CyLFClk.c ****     void CySysWdtSetMode(uint32 counterNum, uint32 mode)
1048:Generated_Source\PSoC4/CyLFClk.c ****     {
 1700              		.loc 2 1048 0
 1701              		.cfi_startproc
 1702 0000 80B5     		push	{r7, lr}
 1703              		.cfi_def_cfa_offset 8
 1704              		.cfi_offset 7, -8
 1705              		.cfi_offset 14, -4
 1706 0002 84B0     		sub	sp, sp, #16
 1707              		.cfi_def_cfa_offset 24
 1708 0004 00AF     		add	r7, sp, #0
 1709              		.cfi_def_cfa_register 7
ARM GAS  C:\Users\akita\AppData\Local\Temp\ccTFmJyh.s 			page 62


 1710 0006 7860     		str	r0, [r7, #4]
 1711 0008 3960     		str	r1, [r7]
1049:Generated_Source\PSoC4/CyLFClk.c ****         uint32 configRegValue;
1050:Generated_Source\PSoC4/CyLFClk.c **** 
1051:Generated_Source\PSoC4/CyLFClk.c ****         CYASSERT(counterNum < CY_SYS_WDT_COUNTERS_MAX);
 1712              		.loc 2 1051 0
 1713 000a 7B68     		ldr	r3, [r7, #4]
 1714 000c 022B     		cmp	r3, #2
 1715 000e 02D9     		bls	.L133
 1716              		.loc 2 1051 0 is_stmt 0 discriminator 1
 1717 0010 0020     		mov	r0, #0
 1718 0012 FFF7FEFF 		bl	CyHalt
 1719              	.L133:
1052:Generated_Source\PSoC4/CyLFClk.c **** 
1053:Generated_Source\PSoC4/CyLFClk.c ****         if(0u == CySysWdtGetEnabledStatus(counterNum))
 1720              		.loc 2 1053 0 is_stmt 1
 1721 0016 7B68     		ldr	r3, [r7, #4]
 1722 0018 181C     		mov	r0, r3
 1723 001a FFF7FEFF 		bl	CySysWdtGetEnabledStatus
 1724 001e 031E     		sub	r3, r0, #0
 1725 0020 15D1     		bne	.L132
1054:Generated_Source\PSoC4/CyLFClk.c ****         {
1055:Generated_Source\PSoC4/CyLFClk.c ****             configRegValue = CY_SYS_WDT_CONFIG_REG &
 1726              		.loc 2 1055 0
 1727 0022 0C4B     		ldr	r3, .L135
 1728 0024 1B68     		ldr	r3, [r3]
1056:Generated_Source\PSoC4/CyLFClk.c ****                                 (uint32)~((uint32)(CY_SYS_WDT_MODE_MASK << (counterNum * CY_SYS_WDT
 1729              		.loc 2 1056 0
 1730 0026 7A68     		ldr	r2, [r7, #4]
 1731 0028 D200     		lsl	r2, r2, #3
 1732 002a 111C     		mov	r1, r2
 1733 002c 0322     		mov	r2, #3
 1734 002e 8A40     		lsl	r2, r2, r1
 1735 0030 D243     		mvn	r2, r2
1055:Generated_Source\PSoC4/CyLFClk.c ****                                 (uint32)~((uint32)(CY_SYS_WDT_MODE_MASK << (counterNum * CY_SYS_WDT
 1736              		.loc 2 1055 0
 1737 0032 1340     		and	r3, r2
 1738 0034 FB60     		str	r3, [r7, #12]
1057:Generated_Source\PSoC4/CyLFClk.c ****             configRegValue |= (uint32)((mode & CY_SYS_WDT_MODE_MASK) << (counterNum * CY_SYS_WDT_CN
 1739              		.loc 2 1057 0
 1740 0036 3B68     		ldr	r3, [r7]
 1741 0038 0322     		mov	r2, #3
 1742 003a 1340     		and	r3, r2
 1743 003c 7A68     		ldr	r2, [r7, #4]
 1744 003e D200     		lsl	r2, r2, #3
 1745 0040 9340     		lsl	r3, r3, r2
 1746 0042 FA68     		ldr	r2, [r7, #12]
 1747 0044 1343     		orr	r3, r2
 1748 0046 FB60     		str	r3, [r7, #12]
1058:Generated_Source\PSoC4/CyLFClk.c ****             CY_SYS_WDT_CONFIG_REG = configRegValue;
 1749              		.loc 2 1058 0
 1750 0048 024B     		ldr	r3, .L135
 1751 004a FA68     		ldr	r2, [r7, #12]
 1752 004c 1A60     		str	r2, [r3]
 1753              	.L132:
1059:Generated_Source\PSoC4/CyLFClk.c ****         }
1060:Generated_Source\PSoC4/CyLFClk.c ****     }
ARM GAS  C:\Users\akita\AppData\Local\Temp\ccTFmJyh.s 			page 63


 1754              		.loc 2 1060 0
 1755 004e BD46     		mov	sp, r7
 1756 0050 04B0     		add	sp, sp, #16
 1757              		@ sp needed
 1758 0052 80BD     		pop	{r7, pc}
 1759              	.L136:
 1760              		.align	2
 1761              	.L135:
 1762 0054 0C020B40 		.word	1074463244
 1763              		.cfi_endproc
 1764              	.LFE22:
 1765              		.size	CySysWdtSetMode, .-CySysWdtSetMode
 1766              		.section	.text.CySysWdtGetMode,"ax",%progbits
 1767              		.align	2
 1768              		.global	CySysWdtGetMode
 1769              		.code	16
 1770              		.thumb_func
 1771              		.type	CySysWdtGetMode, %function
 1772              	CySysWdtGetMode:
 1773              	.LFB23:
1061:Generated_Source\PSoC4/CyLFClk.c **** 
1062:Generated_Source\PSoC4/CyLFClk.c **** 
1063:Generated_Source\PSoC4/CyLFClk.c ****     /*******************************************************************************
1064:Generated_Source\PSoC4/CyLFClk.c ****     * Function Name: CySysWdtGetMode
1065:Generated_Source\PSoC4/CyLFClk.c ****     ****************************************************************************//**
1066:Generated_Source\PSoC4/CyLFClk.c ****     * 
1067:Generated_Source\PSoC4/CyLFClk.c ****     * \brief Reads the mode of one of the three WDT counters.
1068:Generated_Source\PSoC4/CyLFClk.c ****     *
1069:Generated_Source\PSoC4/CyLFClk.c ****     * \param counterNum Valid range [0-2]. The number of the WDT counter.
1070:Generated_Source\PSoC4/CyLFClk.c ****     *
1071:Generated_Source\PSoC4/CyLFClk.c ****     * \return The mode of the counter. The same enumerated values as the mode 
1072:Generated_Source\PSoC4/CyLFClk.c ****     * parameter used in CySysWdtSetMode().
1073:Generated_Source\PSoC4/CyLFClk.c ****     *
1074:Generated_Source\PSoC4/CyLFClk.c ****     *******************************************************************************/
1075:Generated_Source\PSoC4/CyLFClk.c ****     uint32 CySysWdtGetMode(uint32 counterNum)
1076:Generated_Source\PSoC4/CyLFClk.c ****     {
 1774              		.loc 2 1076 0
 1775              		.cfi_startproc
 1776 0000 80B5     		push	{r7, lr}
 1777              		.cfi_def_cfa_offset 8
 1778              		.cfi_offset 7, -8
 1779              		.cfi_offset 14, -4
 1780 0002 82B0     		sub	sp, sp, #8
 1781              		.cfi_def_cfa_offset 16
 1782 0004 00AF     		add	r7, sp, #0
 1783              		.cfi_def_cfa_register 7
 1784 0006 7860     		str	r0, [r7, #4]
1077:Generated_Source\PSoC4/CyLFClk.c ****         return ((CY_SYS_WDT_CONFIG_REG >> (counterNum * CY_SYS_WDT_CNT_SHIFT)) & CY_SYS_WDT_MODE_MA
 1785              		.loc 2 1077 0
 1786 0008 054B     		ldr	r3, .L139
 1787 000a 1B68     		ldr	r3, [r3]
 1788 000c 7A68     		ldr	r2, [r7, #4]
 1789 000e D200     		lsl	r2, r2, #3
 1790 0010 D340     		lsr	r3, r3, r2
 1791 0012 0322     		mov	r2, #3
 1792 0014 1340     		and	r3, r2
1078:Generated_Source\PSoC4/CyLFClk.c ****     }
ARM GAS  C:\Users\akita\AppData\Local\Temp\ccTFmJyh.s 			page 64


 1793              		.loc 2 1078 0
 1794 0016 181C     		mov	r0, r3
 1795 0018 BD46     		mov	sp, r7
 1796 001a 02B0     		add	sp, sp, #8
 1797              		@ sp needed
 1798 001c 80BD     		pop	{r7, pc}
 1799              	.L140:
 1800 001e C046     		.align	2
 1801              	.L139:
 1802 0020 0C020B40 		.word	1074463244
 1803              		.cfi_endproc
 1804              	.LFE23:
 1805              		.size	CySysWdtGetMode, .-CySysWdtGetMode
 1806              		.section	.text.CySysWdtSetClearOnMatch,"ax",%progbits
 1807              		.align	2
 1808              		.global	CySysWdtSetClearOnMatch
 1809              		.code	16
 1810              		.thumb_func
 1811              		.type	CySysWdtSetClearOnMatch, %function
 1812              	CySysWdtSetClearOnMatch:
 1813              	.LFB24:
1079:Generated_Source\PSoC4/CyLFClk.c **** 
1080:Generated_Source\PSoC4/CyLFClk.c **** 
1081:Generated_Source\PSoC4/CyLFClk.c ****     /*******************************************************************************
1082:Generated_Source\PSoC4/CyLFClk.c ****     * Function Name: CySysWdtSetClearOnMatch
1083:Generated_Source\PSoC4/CyLFClk.c ****     ****************************************************************************//**
1084:Generated_Source\PSoC4/CyLFClk.c ****     * 
1085:Generated_Source\PSoC4/CyLFClk.c ****     * \brief Configures the WDT counter "clear on match" setting.
1086:Generated_Source\PSoC4/CyLFClk.c ****     *
1087:Generated_Source\PSoC4/CyLFClk.c ****     * If configured to "clear on match", the counter counts from 0 to MatchValue
1088:Generated_Source\PSoC4/CyLFClk.c ****     * giving it a period of (MatchValue + 1).
1089:Generated_Source\PSoC4/CyLFClk.c ****     *
1090:Generated_Source\PSoC4/CyLFClk.c ****     * \param counterNum
1091:Generated_Source\PSoC4/CyLFClk.c ****     * Valid range [0-1]. The number of the WDT counter. The match values are not
1092:Generated_Source\PSoC4/CyLFClk.c ****     * supported by counter 2.
1093:Generated_Source\PSoC4/CyLFClk.c ****     *
1094:Generated_Source\PSoC4/CyLFClk.c ****     * \param enable 0 to disable appropriate counter <br>
1095:Generated_Source\PSoC4/CyLFClk.c ****     *  1 to enable appropriate counter
1096:Generated_Source\PSoC4/CyLFClk.c ****     *
1097:Generated_Source\PSoC4/CyLFClk.c ****     * \details
1098:Generated_Source\PSoC4/CyLFClk.c ****     * WDT counter counterNum should be disabled. Otherwise this function call
1099:Generated_Source\PSoC4/CyLFClk.c ****     * has no effect. If the specified counter is enabled, call the CySysWdtDisable()
1100:Generated_Source\PSoC4/CyLFClk.c ****     * function with the corresponding parameter to disable the specified counter and
1101:Generated_Source\PSoC4/CyLFClk.c ****     * wait for it to stop. This may take up to three LFCLK cycles.
1102:Generated_Source\PSoC4/CyLFClk.c ****     *
1103:Generated_Source\PSoC4/CyLFClk.c ****     *******************************************************************************/
1104:Generated_Source\PSoC4/CyLFClk.c ****     void CySysWdtSetClearOnMatch(uint32 counterNum, uint32 enable)
1105:Generated_Source\PSoC4/CyLFClk.c ****     {
 1814              		.loc 2 1105 0
 1815              		.cfi_startproc
 1816 0000 80B5     		push	{r7, lr}
 1817              		.cfi_def_cfa_offset 8
 1818              		.cfi_offset 7, -8
 1819              		.cfi_offset 14, -4
 1820 0002 84B0     		sub	sp, sp, #16
 1821              		.cfi_def_cfa_offset 24
 1822 0004 00AF     		add	r7, sp, #0
ARM GAS  C:\Users\akita\AppData\Local\Temp\ccTFmJyh.s 			page 65


 1823              		.cfi_def_cfa_register 7
 1824 0006 7860     		str	r0, [r7, #4]
 1825 0008 3960     		str	r1, [r7]
1106:Generated_Source\PSoC4/CyLFClk.c ****         uint32 configRegValue;
1107:Generated_Source\PSoC4/CyLFClk.c **** 
1108:Generated_Source\PSoC4/CyLFClk.c ****         CYASSERT((counterNum == CY_SYS_WDT_COUNTER0) ||
 1826              		.loc 2 1108 0
 1827 000a 7B68     		ldr	r3, [r7, #4]
 1828 000c 002B     		cmp	r3, #0
 1829 000e 02D0     		beq	.L142
 1830              		.loc 2 1108 0 is_stmt 0 discriminator 2
 1831 0010 7B68     		ldr	r3, [r7, #4]
 1832 0012 012B     		cmp	r3, #1
 1833 0014 01D1     		bne	.L143
 1834              	.L142:
 1835              		.loc 2 1108 0 discriminator 3
 1836 0016 0123     		mov	r3, #1
 1837 0018 00E0     		b	.L144
 1838              	.L143:
 1839              		.loc 2 1108 0 discriminator 4
 1840 001a 0023     		mov	r3, #0
 1841              	.L144:
 1842              		.loc 2 1108 0 discriminator 6
 1843 001c 002B     		cmp	r3, #0
 1844 001e 02D1     		bne	.L145
 1845              		.loc 2 1108 0 discriminator 7
 1846 0020 0020     		mov	r0, #0
 1847 0022 FFF7FEFF 		bl	CyHalt
 1848              	.L145:
1109:Generated_Source\PSoC4/CyLFClk.c ****                  (counterNum == CY_SYS_WDT_COUNTER1));
1110:Generated_Source\PSoC4/CyLFClk.c **** 
1111:Generated_Source\PSoC4/CyLFClk.c ****         if(0u == CySysWdtGetEnabledStatus(counterNum))
 1849              		.loc 2 1111 0 is_stmt 1
 1850 0026 7B68     		ldr	r3, [r7, #4]
 1851 0028 181C     		mov	r0, r3
 1852 002a FFF7FEFF 		bl	CySysWdtGetEnabledStatus
 1853 002e 031E     		sub	r3, r0, #0
 1854 0030 16D1     		bne	.L141
1112:Generated_Source\PSoC4/CyLFClk.c ****         {
1113:Generated_Source\PSoC4/CyLFClk.c ****             configRegValue = CY_SYS_WDT_CONFIG_REG & (uint32)~((uint32)((uint32)1u << 
 1855              		.loc 2 1113 0
 1856 0032 0D4B     		ldr	r3, .L147
 1857 0034 1B68     		ldr	r3, [r3]
1114:Generated_Source\PSoC4/CyLFClk.c ****                                      ((counterNum * CY_SYS_WDT_CNT_SHIFT) + CY_SYS_WDT_CNT_MATCH_CL
 1858              		.loc 2 1114 0
 1859 0036 7A68     		ldr	r2, [r7, #4]
 1860 0038 D200     		lsl	r2, r2, #3
 1861 003a 0232     		add	r2, r2, #2
1113:Generated_Source\PSoC4/CyLFClk.c ****                                      ((counterNum * CY_SYS_WDT_CNT_SHIFT) + CY_SYS_WDT_CNT_MATCH_CL
 1862              		.loc 2 1113 0
 1863 003c 111C     		mov	r1, r2
 1864 003e 0122     		mov	r2, #1
 1865 0040 8A40     		lsl	r2, r2, r1
 1866 0042 D243     		mvn	r2, r2
 1867 0044 1340     		and	r3, r2
 1868 0046 FB60     		str	r3, [r7, #12]
1115:Generated_Source\PSoC4/CyLFClk.c **** 
ARM GAS  C:\Users\akita\AppData\Local\Temp\ccTFmJyh.s 			page 66


1116:Generated_Source\PSoC4/CyLFClk.c ****             configRegValue
1117:Generated_Source\PSoC4/CyLFClk.c ****                 |= (uint32)(enable << ((counterNum * CY_SYS_WDT_CNT_SHIFT) + CY_SYS_WDT_CNT_MATCH_C
 1869              		.loc 2 1117 0
 1870 0048 7B68     		ldr	r3, [r7, #4]
 1871 004a DB00     		lsl	r3, r3, #3
 1872 004c 0233     		add	r3, r3, #2
 1873 004e 1A1C     		mov	r2, r3
 1874 0050 3B68     		ldr	r3, [r7]
 1875 0052 9340     		lsl	r3, r3, r2
 1876 0054 FA68     		ldr	r2, [r7, #12]
 1877 0056 1343     		orr	r3, r2
 1878 0058 FB60     		str	r3, [r7, #12]
1118:Generated_Source\PSoC4/CyLFClk.c **** 
1119:Generated_Source\PSoC4/CyLFClk.c ****             CY_SYS_WDT_CONFIG_REG = configRegValue;
 1879              		.loc 2 1119 0
 1880 005a 034B     		ldr	r3, .L147
 1881 005c FA68     		ldr	r2, [r7, #12]
 1882 005e 1A60     		str	r2, [r3]
 1883              	.L141:
1120:Generated_Source\PSoC4/CyLFClk.c ****         }
1121:Generated_Source\PSoC4/CyLFClk.c ****     }
 1884              		.loc 2 1121 0
 1885 0060 BD46     		mov	sp, r7
 1886 0062 04B0     		add	sp, sp, #16
 1887              		@ sp needed
 1888 0064 80BD     		pop	{r7, pc}
 1889              	.L148:
 1890 0066 C046     		.align	2
 1891              	.L147:
 1892 0068 0C020B40 		.word	1074463244
 1893              		.cfi_endproc
 1894              	.LFE24:
 1895              		.size	CySysWdtSetClearOnMatch, .-CySysWdtSetClearOnMatch
 1896              		.section	.text.CySysWdtGetClearOnMatch,"ax",%progbits
 1897              		.align	2
 1898              		.global	CySysWdtGetClearOnMatch
 1899              		.code	16
 1900              		.thumb_func
 1901              		.type	CySysWdtGetClearOnMatch, %function
 1902              	CySysWdtGetClearOnMatch:
 1903              	.LFB25:
1122:Generated_Source\PSoC4/CyLFClk.c **** 
1123:Generated_Source\PSoC4/CyLFClk.c **** 
1124:Generated_Source\PSoC4/CyLFClk.c ****     /*******************************************************************************
1125:Generated_Source\PSoC4/CyLFClk.c ****     * Function Name: CySysWdtGetClearOnMatch
1126:Generated_Source\PSoC4/CyLFClk.c ****     ****************************************************************************//**
1127:Generated_Source\PSoC4/CyLFClk.c ****     * \brief
1128:Generated_Source\PSoC4/CyLFClk.c ****     * Reads the "clear on match" setting for the specified counter.
1129:Generated_Source\PSoC4/CyLFClk.c ****     *
1130:Generated_Source\PSoC4/CyLFClk.c ****     * \param
1131:Generated_Source\PSoC4/CyLFClk.c ****     * counterNum Valid range [0-1]. The number of the WDT counter. The match values
1132:Generated_Source\PSoC4/CyLFClk.c ****     * are not supported by counter 2.
1133:Generated_Source\PSoC4/CyLFClk.c ****     *
1134:Generated_Source\PSoC4/CyLFClk.c ****     * \return The "clear on match" status: <br>1 if enabled <br>0 if disabled
1135:Generated_Source\PSoC4/CyLFClk.c ****     *
1136:Generated_Source\PSoC4/CyLFClk.c ****     *******************************************************************************/
1137:Generated_Source\PSoC4/CyLFClk.c ****     uint32 CySysWdtGetClearOnMatch(uint32 counterNum)
ARM GAS  C:\Users\akita\AppData\Local\Temp\ccTFmJyh.s 			page 67


1138:Generated_Source\PSoC4/CyLFClk.c ****     {
 1904              		.loc 2 1138 0
 1905              		.cfi_startproc
 1906 0000 80B5     		push	{r7, lr}
 1907              		.cfi_def_cfa_offset 8
 1908              		.cfi_offset 7, -8
 1909              		.cfi_offset 14, -4
 1910 0002 82B0     		sub	sp, sp, #8
 1911              		.cfi_def_cfa_offset 16
 1912 0004 00AF     		add	r7, sp, #0
 1913              		.cfi_def_cfa_register 7
 1914 0006 7860     		str	r0, [r7, #4]
1139:Generated_Source\PSoC4/CyLFClk.c ****         CYASSERT((counterNum == CY_SYS_WDT_COUNTER0) ||
 1915              		.loc 2 1139 0
 1916 0008 7B68     		ldr	r3, [r7, #4]
 1917 000a 002B     		cmp	r3, #0
 1918 000c 02D0     		beq	.L150
 1919              		.loc 2 1139 0 is_stmt 0 discriminator 2
 1920 000e 7B68     		ldr	r3, [r7, #4]
 1921 0010 012B     		cmp	r3, #1
 1922 0012 01D1     		bne	.L151
 1923              	.L150:
 1924              		.loc 2 1139 0 discriminator 3
 1925 0014 0123     		mov	r3, #1
 1926 0016 00E0     		b	.L152
 1927              	.L151:
 1928              		.loc 2 1139 0 discriminator 4
 1929 0018 0023     		mov	r3, #0
 1930              	.L152:
 1931              		.loc 2 1139 0 discriminator 6
 1932 001a 002B     		cmp	r3, #0
 1933 001c 02D1     		bne	.L153
 1934              		.loc 2 1139 0 discriminator 7
 1935 001e 0020     		mov	r0, #0
 1936 0020 FFF7FEFF 		bl	CyHalt
 1937              	.L153:
1140:Generated_Source\PSoC4/CyLFClk.c ****                  (counterNum == CY_SYS_WDT_COUNTER1));
1141:Generated_Source\PSoC4/CyLFClk.c **** 
1142:Generated_Source\PSoC4/CyLFClk.c ****         return (uint32)((CY_SYS_WDT_CONFIG_REG >>
 1938              		.loc 2 1142 0 is_stmt 1
 1939 0024 054B     		ldr	r3, .L155
 1940 0026 1B68     		ldr	r3, [r3]
1143:Generated_Source\PSoC4/CyLFClk.c ****                         ((counterNum * CY_SYS_WDT_CNT_SHIFT) + CY_SYS_WDT_CNT_MATCH_CLR_SHIFT)) & 0
 1941              		.loc 2 1143 0
 1942 0028 7A68     		ldr	r2, [r7, #4]
 1943 002a D200     		lsl	r2, r2, #3
 1944 002c 0232     		add	r2, r2, #2
1142:Generated_Source\PSoC4/CyLFClk.c ****                         ((counterNum * CY_SYS_WDT_CNT_SHIFT) + CY_SYS_WDT_CNT_MATCH_CLR_SHIFT)) & 0
 1945              		.loc 2 1142 0
 1946 002e D340     		lsr	r3, r3, r2
 1947 0030 0122     		mov	r2, #1
 1948 0032 1340     		and	r3, r2
1144:Generated_Source\PSoC4/CyLFClk.c ****     }
 1949              		.loc 2 1144 0
 1950 0034 181C     		mov	r0, r3
 1951 0036 BD46     		mov	sp, r7
 1952 0038 02B0     		add	sp, sp, #8
ARM GAS  C:\Users\akita\AppData\Local\Temp\ccTFmJyh.s 			page 68


 1953              		@ sp needed
 1954 003a 80BD     		pop	{r7, pc}
 1955              	.L156:
 1956              		.align	2
 1957              	.L155:
 1958 003c 0C020B40 		.word	1074463244
 1959              		.cfi_endproc
 1960              	.LFE25:
 1961              		.size	CySysWdtGetClearOnMatch, .-CySysWdtGetClearOnMatch
 1962              		.section	.text.CySysWdtEnable,"ax",%progbits
 1963              		.align	2
 1964              		.global	CySysWdtEnable
 1965              		.code	16
 1966              		.thumb_func
 1967              		.type	CySysWdtEnable, %function
 1968              	CySysWdtEnable:
 1969              	.LFB26:
1145:Generated_Source\PSoC4/CyLFClk.c **** 
1146:Generated_Source\PSoC4/CyLFClk.c **** 
1147:Generated_Source\PSoC4/CyLFClk.c ****     /*******************************************************************************
1148:Generated_Source\PSoC4/CyLFClk.c ****     * Function Name: CySysWdtEnable
1149:Generated_Source\PSoC4/CyLFClk.c ****     ****************************************************************************//**
1150:Generated_Source\PSoC4/CyLFClk.c ****     *
1151:Generated_Source\PSoC4/CyLFClk.c ****     * \brief Enables the specified WDT counters.
1152:Generated_Source\PSoC4/CyLFClk.c ****     *
1153:Generated_Source\PSoC4/CyLFClk.c ****     * All the counters specified in the mask are enabled.
1154:Generated_Source\PSoC4/CyLFClk.c ****     *
1155:Generated_Source\PSoC4/CyLFClk.c ****     * \param counterMask
1156:Generated_Source\PSoC4/CyLFClk.c ****     *  CY_SYS_WDT_COUNTER0_MASK - The mask for counter 0 to enable.<br>
1157:Generated_Source\PSoC4/CyLFClk.c ****     * CY_SYS_WDT_COUNTER1_MASK - The mask for counter 1 to enable.<br>
1158:Generated_Source\PSoC4/CyLFClk.c ****     * CY_SYS_WDT_COUNTER2_MASK - The mask for counter 2 to enable.
1159:Generated_Source\PSoC4/CyLFClk.c ****     *
1160:Generated_Source\PSoC4/CyLFClk.c ****     * \details
1161:Generated_Source\PSoC4/CyLFClk.c ****     * Enabling or disabling WDT requires 3 LFCLK cycles to come into effect.
1162:Generated_Source\PSoC4/CyLFClk.c ****     * Therefore, the WDT enable state must not be changed more than once in
1163:Generated_Source\PSoC4/CyLFClk.c ****     * that period.
1164:Generated_Source\PSoC4/CyLFClk.c ****     *
1165:Generated_Source\PSoC4/CyLFClk.c ****     * After WDT is enabled, it is illegal to write WDT configuration (WDT_CONFIG)
1166:Generated_Source\PSoC4/CyLFClk.c ****     * and control (WDT_CONTROL) registers. This means that all WDT functions that
1167:Generated_Source\PSoC4/CyLFClk.c ****     * contain 'write' in the name (with the exception of CySysWdtSetMatch()
1168:Generated_Source\PSoC4/CyLFClk.c ****     * function) are illegal to call if WDT is enabled.
1169:Generated_Source\PSoC4/CyLFClk.c ****     *
1170:Generated_Source\PSoC4/CyLFClk.c ****     * PSoC 4100 / PSoC 4200: This function enables ILO.
1171:Generated_Source\PSoC4/CyLFClk.c ****     *
1172:Generated_Source\PSoC4/CyLFClk.c ****     * PSoC 4100 BLE / PSoC 4200 BLE / PSoC4200L / PSoC 4100M 
1173:Generated_Source\PSoC4/CyLFClk.c ****     * / PSoC 4200M:
1174:Generated_Source\PSoC4/CyLFClk.c ****     * LFLCK should be configured before calling this function. The desired
1175:Generated_Source\PSoC4/CyLFClk.c ****     * source should be enabled and configured to be the source for LFCLK.
1176:Generated_Source\PSoC4/CyLFClk.c ****     *
1177:Generated_Source\PSoC4/CyLFClk.c ****     *******************************************************************************/
1178:Generated_Source\PSoC4/CyLFClk.c ****     void CySysWdtEnable(uint32 counterMask)
1179:Generated_Source\PSoC4/CyLFClk.c ****     {
 1970              		.loc 2 1179 0
 1971              		.cfi_startproc
 1972 0000 80B5     		push	{r7, lr}
 1973              		.cfi_def_cfa_offset 8
 1974              		.cfi_offset 7, -8
ARM GAS  C:\Users\akita\AppData\Local\Temp\ccTFmJyh.s 			page 69


 1975              		.cfi_offset 14, -4
 1976 0002 82B0     		sub	sp, sp, #8
 1977              		.cfi_def_cfa_offset 16
 1978 0004 00AF     		add	r7, sp, #0
 1979              		.cfi_def_cfa_register 7
 1980 0006 7860     		str	r0, [r7, #4]
1180:Generated_Source\PSoC4/CyLFClk.c ****         #if (!CY_IP_WCO)
1181:Generated_Source\PSoC4/CyLFClk.c ****             CySysClkIloStart();
1182:Generated_Source\PSoC4/CyLFClk.c ****         #endif /* (!CY_IP_WCO) */
1183:Generated_Source\PSoC4/CyLFClk.c **** 
1184:Generated_Source\PSoC4/CyLFClk.c ****         CY_SYS_WDT_CONTROL_REG |= counterMask;
 1981              		.loc 2 1184 0
 1982 0008 144B     		ldr	r3, .L164
 1983 000a 144A     		ldr	r2, .L164
 1984 000c 1168     		ldr	r1, [r2]
 1985 000e 7A68     		ldr	r2, [r7, #4]
 1986 0010 0A43     		orr	r2, r1
 1987 0012 1A60     		str	r2, [r3]
1185:Generated_Source\PSoC4/CyLFClk.c **** 
1186:Generated_Source\PSoC4/CyLFClk.c ****         if(0u != (counterMask & CY_SYS_WDT_COUNTER0_MASK))
 1988              		.loc 2 1186 0
 1989 0014 7B68     		ldr	r3, [r7, #4]
 1990 0016 0122     		mov	r2, #1
 1991 0018 1340     		and	r3, r2
 1992 001a 05D0     		beq	.L158
1187:Generated_Source\PSoC4/CyLFClk.c ****         {
1188:Generated_Source\PSoC4/CyLFClk.c ****             while (0u == CySysWdtGetEnabledStatus(CY_SYS_WDT_COUNTER0))
 1993              		.loc 2 1188 0
 1994 001c C046     		mov	r8, r8
 1995              	.L159:
 1996              		.loc 2 1188 0 is_stmt 0 discriminator 1
 1997 001e 0020     		mov	r0, #0
 1998 0020 FFF7FEFF 		bl	CySysWdtGetEnabledStatus
 1999 0024 031E     		sub	r3, r0, #0
 2000 0026 FAD0     		beq	.L159
 2001              	.L158:
1189:Generated_Source\PSoC4/CyLFClk.c ****             {
1190:Generated_Source\PSoC4/CyLFClk.c ****                 /* Wait for changes to come into effect */
1191:Generated_Source\PSoC4/CyLFClk.c ****             }
1192:Generated_Source\PSoC4/CyLFClk.c ****         }
1193:Generated_Source\PSoC4/CyLFClk.c **** 
1194:Generated_Source\PSoC4/CyLFClk.c ****         if(0u != (counterMask & CY_SYS_WDT_COUNTER1_MASK))
 2002              		.loc 2 1194 0 is_stmt 1
 2003 0028 7A68     		ldr	r2, [r7, #4]
 2004 002a 8023     		mov	r3, #128
 2005 002c 5B00     		lsl	r3, r3, #1
 2006 002e 1340     		and	r3, r2
 2007 0030 05D0     		beq	.L160
1195:Generated_Source\PSoC4/CyLFClk.c ****         {
1196:Generated_Source\PSoC4/CyLFClk.c ****             while (0u == CySysWdtGetEnabledStatus(CY_SYS_WDT_COUNTER1))
 2008              		.loc 2 1196 0
 2009 0032 C046     		mov	r8, r8
 2010              	.L161:
 2011              		.loc 2 1196 0 is_stmt 0 discriminator 1
 2012 0034 0120     		mov	r0, #1
 2013 0036 FFF7FEFF 		bl	CySysWdtGetEnabledStatus
 2014 003a 031E     		sub	r3, r0, #0
ARM GAS  C:\Users\akita\AppData\Local\Temp\ccTFmJyh.s 			page 70


 2015 003c FAD0     		beq	.L161
 2016              	.L160:
1197:Generated_Source\PSoC4/CyLFClk.c ****             {
1198:Generated_Source\PSoC4/CyLFClk.c ****                 /* Wait for changes to come into effect */
1199:Generated_Source\PSoC4/CyLFClk.c ****             }
1200:Generated_Source\PSoC4/CyLFClk.c ****         }
1201:Generated_Source\PSoC4/CyLFClk.c **** 
1202:Generated_Source\PSoC4/CyLFClk.c ****         if(0u != (counterMask & CY_SYS_WDT_COUNTER2_MASK))
 2017              		.loc 2 1202 0 is_stmt 1
 2018 003e 7A68     		ldr	r2, [r7, #4]
 2019 0040 8023     		mov	r3, #128
 2020 0042 5B02     		lsl	r3, r3, #9
 2021 0044 1340     		and	r3, r2
 2022 0046 05D0     		beq	.L157
1203:Generated_Source\PSoC4/CyLFClk.c ****         {
1204:Generated_Source\PSoC4/CyLFClk.c ****             while (0u == CySysWdtGetEnabledStatus(CY_SYS_WDT_COUNTER2))
 2023              		.loc 2 1204 0
 2024 0048 C046     		mov	r8, r8
 2025              	.L163:
 2026              		.loc 2 1204 0 is_stmt 0 discriminator 1
 2027 004a 0220     		mov	r0, #2
 2028 004c FFF7FEFF 		bl	CySysWdtGetEnabledStatus
 2029 0050 031E     		sub	r3, r0, #0
 2030 0052 FAD0     		beq	.L163
 2031              	.L157:
1205:Generated_Source\PSoC4/CyLFClk.c ****             {
1206:Generated_Source\PSoC4/CyLFClk.c ****                 /* Wait for changes to come into effect */
1207:Generated_Source\PSoC4/CyLFClk.c ****             }
1208:Generated_Source\PSoC4/CyLFClk.c ****         }
1209:Generated_Source\PSoC4/CyLFClk.c ****     }
 2032              		.loc 2 1209 0 is_stmt 1
 2033 0054 BD46     		mov	sp, r7
 2034 0056 02B0     		add	sp, sp, #8
 2035              		@ sp needed
 2036 0058 80BD     		pop	{r7, pc}
 2037              	.L165:
 2038 005a C046     		.align	2
 2039              	.L164:
 2040 005c 10020B40 		.word	1074463248
 2041              		.cfi_endproc
 2042              	.LFE26:
 2043              		.size	CySysWdtEnable, .-CySysWdtEnable
 2044              		.section	.text.CySysWdtDisable,"ax",%progbits
 2045              		.align	2
 2046              		.global	CySysWdtDisable
 2047              		.code	16
 2048              		.thumb_func
 2049              		.type	CySysWdtDisable, %function
 2050              	CySysWdtDisable:
 2051              	.LFB27:
1210:Generated_Source\PSoC4/CyLFClk.c **** 
1211:Generated_Source\PSoC4/CyLFClk.c **** 
1212:Generated_Source\PSoC4/CyLFClk.c ****     /*******************************************************************************
1213:Generated_Source\PSoC4/CyLFClk.c ****     * Function Name: CySysWdtDisable
1214:Generated_Source\PSoC4/CyLFClk.c ****     ****************************************************************************//**
1215:Generated_Source\PSoC4/CyLFClk.c ****     *
1216:Generated_Source\PSoC4/CyLFClk.c ****     * \brief Disables the specified WDT counters.
ARM GAS  C:\Users\akita\AppData\Local\Temp\ccTFmJyh.s 			page 71


1217:Generated_Source\PSoC4/CyLFClk.c ****     * All the counters specified in the mask are disabled. The function waits for 
1218:Generated_Source\PSoC4/CyLFClk.c ****     * the changes to come into effect.
1219:Generated_Source\PSoC4/CyLFClk.c ****     *
1220:Generated_Source\PSoC4/CyLFClk.c ****     * \param counterMask
1221:Generated_Source\PSoC4/CyLFClk.c ****     * CY_SYS_WDT_COUNTER0_MASK - The mask for counter 0 to disable. <br>
1222:Generated_Source\PSoC4/CyLFClk.c ****     * CY_SYS_WDT_COUNTER1_MASK - The mask for counter 1 to disable. <br>
1223:Generated_Source\PSoC4/CyLFClk.c ****     * CY_SYS_WDT_COUNTER2_MASK - The mask for counter 2 to disable.
1224:Generated_Source\PSoC4/CyLFClk.c ****     *
1225:Generated_Source\PSoC4/CyLFClk.c ****     *******************************************************************************/
1226:Generated_Source\PSoC4/CyLFClk.c ****     void CySysWdtDisable(uint32 counterMask)
1227:Generated_Source\PSoC4/CyLFClk.c ****     {
 2052              		.loc 2 1227 0
 2053              		.cfi_startproc
 2054 0000 80B5     		push	{r7, lr}
 2055              		.cfi_def_cfa_offset 8
 2056              		.cfi_offset 7, -8
 2057              		.cfi_offset 14, -4
 2058 0002 82B0     		sub	sp, sp, #8
 2059              		.cfi_def_cfa_offset 16
 2060 0004 00AF     		add	r7, sp, #0
 2061              		.cfi_def_cfa_register 7
 2062 0006 7860     		str	r0, [r7, #4]
1228:Generated_Source\PSoC4/CyLFClk.c ****         if (0uL == CySysWdtLocked())
 2063              		.loc 2 1228 0
 2064 0008 FFF7FEFF 		bl	CySysWdtLocked
 2065 000c 031E     		sub	r3, r0, #0
 2066 000e 26D1     		bne	.L166
1229:Generated_Source\PSoC4/CyLFClk.c ****         {
1230:Generated_Source\PSoC4/CyLFClk.c ****             CY_SYS_WDT_CONTROL_REG &= ~counterMask;
 2067              		.loc 2 1230 0
 2068 0010 144B     		ldr	r3, .L173
 2069 0012 144A     		ldr	r2, .L173
 2070 0014 1268     		ldr	r2, [r2]
 2071 0016 7968     		ldr	r1, [r7, #4]
 2072 0018 C943     		mvn	r1, r1
 2073 001a 0A40     		and	r2, r1
 2074 001c 1A60     		str	r2, [r3]
1231:Generated_Source\PSoC4/CyLFClk.c **** 
1232:Generated_Source\PSoC4/CyLFClk.c ****             if(0u != (counterMask & CY_SYS_WDT_COUNTER0_MASK))
 2075              		.loc 2 1232 0
 2076 001e 7B68     		ldr	r3, [r7, #4]
 2077 0020 0122     		mov	r2, #1
 2078 0022 1340     		and	r3, r2
 2079 0024 05D0     		beq	.L168
1233:Generated_Source\PSoC4/CyLFClk.c ****             {
1234:Generated_Source\PSoC4/CyLFClk.c ****                 while (0u != CySysWdtGetEnabledStatus(CY_SYS_WDT_COUNTER0))
 2080              		.loc 2 1234 0
 2081 0026 C046     		mov	r8, r8
 2082              	.L169:
 2083              		.loc 2 1234 0 is_stmt 0 discriminator 1
 2084 0028 0020     		mov	r0, #0
 2085 002a FFF7FEFF 		bl	CySysWdtGetEnabledStatus
 2086 002e 031E     		sub	r3, r0, #0
 2087 0030 FAD1     		bne	.L169
 2088              	.L168:
1235:Generated_Source\PSoC4/CyLFClk.c ****                 {
1236:Generated_Source\PSoC4/CyLFClk.c ****                     /* Wait for changes to come into effect */
ARM GAS  C:\Users\akita\AppData\Local\Temp\ccTFmJyh.s 			page 72


1237:Generated_Source\PSoC4/CyLFClk.c ****                 }
1238:Generated_Source\PSoC4/CyLFClk.c ****             }
1239:Generated_Source\PSoC4/CyLFClk.c **** 
