ARM GAS  C:\Users\akita\AppData\Local\Temp\cc6eU00e.s 			page 1


   1              		.cpu cortex-m0
   2              		.fpu softvfp
   3              		.eabi_attribute 20, 1
   4              		.eabi_attribute 21, 1
   5              		.eabi_attribute 23, 3
   6              		.eabi_attribute 24, 1
   7              		.eabi_attribute 25, 1
   8              		.eabi_attribute 26, 1
   9              		.eabi_attribute 30, 6
  10              		.eabi_attribute 34, 0
  11              		.eabi_attribute 18, 4
  12              		.code	16
  13              		.file	"main.c"
  14              		.text
  15              	.Ltext0:
  16              		.cfi_sections	.debug_frame
  17              		.global	mainTimer
  18              		.bss
  19              		.align	2
  20              		.type	mainTimer, %object
  21              		.size	mainTimer, 4
  22              	mainTimer:
  23 0000 00000000 		.space	4
  24              		.section	.rodata
  25              		.align	2
  26              	.LC0:
  27 0000 53746172 		.ascii	"StartAdvertisement API Error: %d \015\012\000"
  27      74416476 
  27      65727469 
  27      73656D65 
  27      6E742041 
  28              		.align	2
  29              	.LC2:
  30 0024 426C7565 		.ascii	"Bluetooth On, StartAdvertisement with addr: \000"
  30      746F6F74 
  30      68204F6E 
  30      2C205374 
  30      61727441 
  31 0051 000000   		.align	2
  32              	.LC4:
  33 0054 25322E32 		.ascii	"%2.2x\000"
  33      7800
  34 005a 0000     		.align	2
  35              	.LC6:
  36 005c 0D00     		.ascii	"\015\000"
  37 005e 0000     		.align	2
  38              	.LC8:
  39 0060 4359424C 		.ascii	"CYBLE_EVT_HARDWARE_ERROR \015\000"
  39      455F4556 
  39      545F4841 
  39      52445741 
  39      52455F45 
  40 007b 00       		.align	2
  41              	.LC10:
  42 007c 4359424C 		.ascii	"CYBLE_EVT_STACK_BUSY_STATUS: %x\015\012\000"
  42      455F4556 
  42      545F5354 
ARM GAS  C:\Users\akita\AppData\Local\Temp\cc6eU00e.s 			page 2


  42      41434B5F 
  42      42555359 
  43 009e 0000     		.align	2
  44              	.LC12:
  45 00a0 4359424C 		.ascii	"CYBLE_EVT_HCI_STATUS: %x \015\012\000"
  45      455F4556 
  45      545F4843 
  45      495F5354 
  45      41545553 
  46              		.align	2
  47              	.LC14:
  48 00bc 4359424C 		.ascii	"CYBLE_EVT_AUTH_REQ: security=%x, bonding=%x, ekeySi"
  48      455F4556 
  48      545F4155 
  48      54485F52 
  48      45513A20 
  49 00ef 7A653D25 		.ascii	"ze=%x, err=%x \015\012\000"
  49      782C2065 
  49      72723D25 
  49      78200D0A 
  49      00
  50              		.align	2
  51              	.LC16:
  52 0100 4359424C 		.ascii	"CYBLE_EVT_PASSKEY_ENTRY_REQUEST press 'p' to enter "
  52      455F4556 
  52      545F5041 
  52      53534B45 
  52      595F454E 
  53 0133 70617373 		.ascii	"passkey \015\000"
  53      6B657920 
  53      0D00
  54 013d 000000   		.align	2
  55              	.LC18:
  56 0140 4359424C 		.ascii	"CYBLE_EVT_PASSKEY_DISPLAY_REQUEST %6.6ld \015\012\000"
  56      455F4556 
  56      545F5041 
  56      53534B45 
  56      595F4449 
  57              		.align	2
  58              	.LC20:
  59 016c 4359424C 		.ascii	"CYBLE_EVT_GAP_KEYINFO_EXCHNGE_CMPLT \015\000"
  59      455F4556 
  59      545F4741 
  59      505F4B45 
  59      59494E46 
  60 0192 0000     		.align	2
  61              	.LC22:
  62 0194 41555448 		.ascii	"AUTH_COMPLETE: security:%x, bonding:%x, ekeySize:%x"
  62      5F434F4D 
  62      504C4554 
  62      453A2073 
  62      65637572 
  63 01c7 2C206175 		.ascii	", authErr %x \015\012\000"
  63      74684572 
  63      72202578 
  63      200D0A00 
  64 01d7 00       		.align	2
ARM GAS  C:\Users\akita\AppData\Local\Temp\cc6eU00e.s 			page 3


  65              	.LC24:
  66 01d8 4359424C 		.ascii	"CYBLE_EVT_AUTH_FAILED: %x \015\012\000"
  66      455F4556 
  66      545F4155 
  66      54485F46 
  66      41494C45 
  67 01f5 000000   		.align	2
  68              	.LC27:
  69 01f8 4359424C 		.ascii	"CYBLE_EVT_ADVERTISING, state: %x \015\012\000"
  69      455F4556 
  69      545F4144 
  69      56455254 
  69      4953494E 
  70              		.align	2
  71              	.LC29:
  72 021c 48696265 		.ascii	"Hibernate \015\000"
  72      726E6174 
  72      65200D00 
  73              		.align	2
  74              	.LC31:
  75 0228 4359424C 		.ascii	"CYBLE_EVT_GAP_DEVICE_CONNECTED \015\000"
  75      455F4556 
  75      545F4741 
  75      505F4445 
  75      56494345 
  76 0249 000000   		.align	2
  77              	.LC33:
  78 024c 4359424C 		.ascii	"CYBLE_EVT_GAP_DEVICE_DISCONNECTED\015\000"
  78      455F4556 
  78      545F4741 
  78      505F4445 
  78      56494345 
  79 026f 00       		.align	2
  80              	.LC35:
  81 0270 4359424C 		.ascii	"CYBLE_EVT_GATTS_XCNHG_MTU_REQ, final mtu= %d \015\012"
  81      455F4556 
  81      545F4741 
  81      5454535F 
  81      58434E48 
  82 029f 00       		.ascii	"\000"
  83              		.align	2
  84              	.LC37:
  85 02a0 4359424C 		.ascii	"CYBLE_EVT_GATT_WRITE_REQ: %x = \000"
  85      455F4556 
  85      545F4741 
  85      54545F57 
  85      52495445 
  86              		.align	2
  87              	.LC39:
  88 02c0 4359424C 		.ascii	"CYBLE_EVT_GAP_ENCRYPT_CHANGE: %x \015\012\000"
  88      455F4556 
  88      545F4741 
  88      505F454E 
  88      43525950 
  89              		.align	2
  90              	.LC41:
  91 02e4 4359424C 		.ascii	"CYBLE_EVT_CONNECTION_UPDATE_COMPLETE: %x \015\012\000"
ARM GAS  C:\Users\akita\AppData\Local\Temp\cc6eU00e.s 			page 4


  91      455F4556 
  91      545F434F 
  91      4E4E4543 
  91      54494F4E 
  92              		.align	2
  93              	.LC44:
  94 0310 4359424C 		.ascii	"CYBLE_EVT_GATT_CONNECT_IND: %x, %x \015\012\000"
  94      455F4556 
  94      545F4741 
  94      54545F43 
  94      4F4E4E45 
  95 0336 0000     		.align	2
  96              	.LC46:
  97 0338 4359424C 		.ascii	"CYBLE_EVT_GATT_DISCONNECT_IND \015\000"
  97      455F4556 
  97      545F4741 
  97      54545F44 
  97      4953434F 
  98              		.align	2
  99              	.LC48:
 100 0358 4359424C 		.ascii	"CYBLE_EVT_GATTS_READ_CHAR_VAL_ACCESS_REQ: handle: %"
 100      455F4556 
 100      545F4741 
 100      5454535F 
 100      52454144 
 101 038b 78200D0A 		.ascii	"x \015\012\000"
 101      00
 102              		.align	2
 103              	.LC50:
 104 0390 4359424C 		.ascii	"CYBLE_EVT_PENDING_FLASH_WRITE\015\000"
 104      455F4556 
 104      545F5045 
 104      4E44494E 
 104      475F464C 
 105 03af 00       		.align	2
 106              	.LC52:
 107 03b0 4F544845 		.ascii	"OTHER event: %lx \015\012\000"
 107      52206576 
 107      656E743A 
 107      20256C78 
 107      200D0A00 
 108              		.section	.text.AppCallBack,"ax",%progbits
 109              		.align	2
 110              		.global	AppCallBack
 111              		.code	16
 112              		.thumb_func
 113              		.type	AppCallBack, %function
 114              	AppCallBack:
 115              	.LFB37:
 116              		.file 1 "main.c"
   1:main.c        **** /*******************************************************************************
   2:main.c        **** * File Name: main.c
   3:main.c        **** *
   4:main.c        **** * Version: 1.0
   5:main.c        **** *
   6:main.c        **** * Description:
   7:main.c        **** *  BLE HID keyboard example project that supports both input and output reports
ARM GAS  C:\Users\akita\AppData\Local\Temp\cc6eU00e.s 			page 5


   8:main.c        **** *  in boot and protocol mode. The example also demonstrates handling suspend 
   9:main.c        **** *  event from the central device and enters low power mode when suspended.
  10:main.c        **** *
  11:main.c        **** * References:
  12:main.c        **** *  BLUETOOTH SPECIFICATION Version 4.1
  13:main.c        **** *  HID Usage Tables spec ver 1.12
  14:main.c        **** *
  15:main.c        **** * Hardware Dependency:
  16:main.c        **** *  CY8CKIT-042 BLE
  17:main.c        **** *
  18:main.c        **** ********************************************************************************
  19:main.c        **** * Copyright 2015, Cypress Semiconductor Corporation.  All rights reserved.
  20:main.c        **** * You may use this file only in accordance with the license, terms, conditions,
  21:main.c        **** * disclaimers, and limitations in the end user license agreement accompanying
  22:main.c        **** * the software package with which this file was provided.
  23:main.c        **** *******************************************************************************/
  24:main.c        **** 
  25:main.c        **** #include "common.h"
  26:main.c        **** #include "hids.h"
  27:main.c        **** #include "bas.h"
  28:main.c        **** #include "scps.h"
  29:main.c        **** 
  30:main.c        **** volatile uint32 mainTimer = 0;
  31:main.c        **** 
  32:main.c        **** 
  33:main.c        **** /*******************************************************************************
  34:main.c        **** * Function Name: AppCallBack()
  35:main.c        **** ********************************************************************************
  36:main.c        **** *
  37:main.c        **** * Summary:
  38:main.c        **** *   This is an event callback function to receive events from the BLE Component.
  39:main.c        **** *
  40:main.c        **** *******************************************************************************/
  41:main.c        **** void AppCallBack(uint32 event, void* eventParam)
  42:main.c        **** {
 117              		.loc 1 42 0
 118              		.cfi_startproc
 119 0000 B0B5     		push	{r4, r5, r7, lr}
 120              		.cfi_def_cfa_offset 16
 121              		.cfi_offset 4, -16
 122              		.cfi_offset 5, -12
 123              		.cfi_offset 7, -8
 124              		.cfi_offset 14, -4
 125 0002 8AB0     		sub	sp, sp, #40
 126              		.cfi_def_cfa_offset 56
 127 0004 02AF     		add	r7, sp, #8
 128              		.cfi_def_cfa 7, 48
 129 0006 7860     		str	r0, [r7, #4]
 130 0008 3960     		str	r1, [r7]
  43:main.c        ****     CYBLE_API_RESULT_T apiResult;
  44:main.c        ****     CYBLE_GAP_BD_ADDR_T localAddr;
  45:main.c        ****     CYBLE_GAP_AUTH_INFO_T *authInfo;
  46:main.c        ****     uint8 i;
  47:main.c        ****     
  48:main.c        ****     switch (event)
 131              		.loc 1 48 0
 132 000a 7B68     		ldr	r3, [r7, #4]
ARM GAS  C:\Users\akita\AppData\Local\Temp\cc6eU00e.s 			page 6


 133 000c 262B     		cmp	r3, #38
 134 000e 00D1     		bne	.LCB18
 135 0010 ECE0     		b	.L3	@long jump
 136              	.LCB18:
 137 0012 23D8     		bhi	.L4
 138 0014 052B     		cmp	r3, #5
 139 0016 00D1     		bne	.LCB22
 140 0018 91E0     		b	.L5	@long jump
 141              	.LCB22:
 142 001a 0DD8     		bhi	.L6
 143 001c 022B     		cmp	r3, #2
 144 001e 00D1     		bne	.LCB26
 145 0020 93E1     		b	.L41	@long jump
 146              	.LCB26:
 147 0022 02D8     		bhi	.L8
 148 0024 012B     		cmp	r3, #1
 149 0026 41D0     		beq	.L9
 150 0028 87E1     		b	.L2
 151              	.L8:
 152 002a 032B     		cmp	r3, #3
 153 002c 00D1     		bne	.LCB36
 154 002e 81E0     		b	.L10	@long jump
 155              	.LCB36:
 156 0030 042B     		cmp	r3, #4
 157 0032 00D1     		bne	.LCB38
 158 0034 8CE0     		b	.L11	@long jump
 159              	.LCB38:
 160 0036 80E1     		b	.L2
 161              	.L6:
 162 0038 232B     		cmp	r3, #35
 163 003a 00D1     		bne	.LCB44
 164 003c AAE0     		b	.L12	@long jump
 165              	.LCB44:
 166 003e 06D8     		bhi	.L13
 167 0040 212B     		cmp	r3, #33
 168 0042 00D1     		bne	.LCB48
 169 0044 8DE0     		b	.L14	@long jump
 170              	.LCB48:
 171 0046 222B     		cmp	r3, #34
 172 0048 00D1     		bne	.LCB50
 173 004a 9EE0     		b	.L15	@long jump
 174              	.LCB50:
 175 004c 75E1     		b	.L2
 176              	.L13:
 177 004e 242B     		cmp	r3, #36
 178 0050 00D1     		bne	.LCB56
 179 0052 ACE0     		b	.L16	@long jump
 180              	.LCB56:
 181 0054 252B     		cmp	r3, #37
 182 0056 00D1     		bne	.LCB58
 183 0058 BFE0     		b	.L17	@long jump
 184              	.LCB58:
 185 005a 6EE1     		b	.L2
 186              	.L4:
 187 005c 412B     		cmp	r3, #65
 188 005e 00D1     		bne	.LCB64
 189 0060 47E1     		b	.L18	@long jump
ARM GAS  C:\Users\akita\AppData\Local\Temp\cc6eU00e.s 			page 7


 190              	.LCB64:
 191 0062 11D8     		bhi	.L19
 192 0064 292B     		cmp	r3, #41
 193 0066 00D1     		bne	.LCB68
 194 0068 31E1     		b	.L20	@long jump
 195              	.LCB68:
 196 006a 06D8     		bhi	.L21
 197 006c 272B     		cmp	r3, #39
 198 006e 00D1     		bne	.LCB72
 199 0070 EAE0     		b	.L22	@long jump
 200              	.LCB72:
 201 0072 282B     		cmp	r3, #40
 202 0074 00D1     		bne	.LCB74
 203 0076 EFE0     		b	.L23	@long jump
 204              	.LCB74:
 205 0078 5FE1     		b	.L2
 206              	.L21:
 207 007a 2A2B     		cmp	r3, #42
 208 007c 00D1     		bne	.LCB80
 209 007e 2FE1     		b	.L24	@long jump
 210              	.LCB80:
 211 0080 2C2B     		cmp	r3, #44
 212 0082 00D1     		bne	.LCB82
 213 0084 8EE0     		b	.L25	@long jump
 214              	.LCB82:
 215 0086 58E1     		b	.L2
 216              	.L19:
 217 0088 4C2B     		cmp	r3, #76
 218 008a 00D1     		bne	.LCB88
 219 008c 0DE1     		b	.L26	@long jump
 220              	.LCB88:
 221 008e 06D8     		bhi	.L27
 222 0090 422B     		cmp	r3, #66
 223 0092 00D1     		bne	.LCB92
 224 0094 3EE1     		b	.L28	@long jump
 225              	.LCB92:
 226 0096 432B     		cmp	r3, #67
 227 0098 00D1     		bne	.LCB94
 228 009a F7E0     		b	.L29	@long jump
 229              	.LCB94:
 230 009c 4DE1     		b	.L2
 231              	.L27:
 232 009e 572B     		cmp	r3, #87
 233 00a0 00D1     		bne	.LCB100
 234 00a2 3CE1     		b	.L30	@long jump
 235              	.LCB100:
 236 00a4 FA2B     		cmp	r3, #250
 237 00a6 00D1     		bne	.LCB102
 238 00a8 42E1     		b	.L31	@long jump
 239              	.LCB102:
 240 00aa 46E1     		b	.L2
 241              	.L9:
  49:main.c        **** 	{
  50:main.c        ****         /**********************************************************
  51:main.c        ****         *                       General Events
  52:main.c        ****         ***********************************************************/
  53:main.c        **** 		case CYBLE_EVT_STACK_ON: /* This event is received when the component is Started */
ARM GAS  C:\Users\akita\AppData\Local\Temp\cc6eU00e.s 			page 8


  54:main.c        ****             /* Enter into discoverable mode so that remote can search it. */
  55:main.c        ****             apiResult = CyBle_GappStartAdvertisement(CYBLE_ADVERTISING_FAST);
 242              		.loc 1 55 0
 243 00ac 1C23     		mov	r3, #28
 244 00ae FC18     		add	r4, r7, r3
 245 00b0 0020     		mov	r0, #0
 246 00b2 FFF7FEFF 		bl	CyBle_GappStartAdvertisement
 247 00b6 031C     		mov	r3, r0
 248 00b8 2380     		strh	r3, [r4]
  56:main.c        ****             if(apiResult != CYBLE_ERROR_OK)
 249              		.loc 1 56 0
 250 00ba 1C23     		mov	r3, #28
 251 00bc FB18     		add	r3, r7, r3
 252 00be 1B88     		ldrh	r3, [r3]
 253 00c0 002B     		cmp	r3, #0
 254 00c2 07D0     		beq	.L32
  57:main.c        ****             {
  58:main.c        ****                 DBG_PRINTF("StartAdvertisement API Error: %d \r\n", apiResult);
 255              		.loc 1 58 0
 256 00c4 1C23     		mov	r3, #28
 257 00c6 FB18     		add	r3, r7, r3
 258 00c8 1B88     		ldrh	r3, [r3]
 259 00ca A24A     		ldr	r2, .L42
 260 00cc 101C     		mov	r0, r2
 261 00ce 191C     		mov	r1, r3
 262 00d0 FFF7FEFF 		bl	printf
 263              	.L32:
  59:main.c        ****             }
  60:main.c        ****             DBG_PRINTF("Bluetooth On, StartAdvertisement with addr: ");
 264              		.loc 1 60 0
 265 00d4 A04B     		ldr	r3, .L42+4
 266 00d6 181C     		mov	r0, r3
 267 00d8 FFF7FEFF 		bl	printf
  61:main.c        ****             localAddr.type = 0u;
 268              		.loc 1 61 0
 269 00dc 1023     		mov	r3, #16
 270 00de FB18     		add	r3, r7, r3
 271 00e0 0022     		mov	r2, #0
 272 00e2 9A71     		strb	r2, [r3, #6]
  62:main.c        ****             CyBle_GetDeviceAddress(&localAddr);
 273              		.loc 1 62 0
 274 00e4 1023     		mov	r3, #16
 275 00e6 FB18     		add	r3, r7, r3
 276 00e8 181C     		mov	r0, r3
 277 00ea FFF7FEFF 		bl	CyBle_GetDeviceAddress
  63:main.c        ****             for(i = CYBLE_GAP_BD_ADDR_SIZE; i > 0u; i--)
 278              		.loc 1 63 0
 279 00ee 1F23     		mov	r3, #31
 280 00f0 FB18     		add	r3, r7, r3
 281 00f2 0622     		mov	r2, #6
 282 00f4 1A70     		strb	r2, [r3]
 283 00f6 13E0     		b	.L33
 284              	.L34:
  64:main.c        ****             {
  65:main.c        ****                 DBG_PRINTF("%2.2x", localAddr.bdAddr[i-1]);
 285              		.loc 1 65 0 discriminator 3
 286 00f8 1F23     		mov	r3, #31
ARM GAS  C:\Users\akita\AppData\Local\Temp\cc6eU00e.s 			page 9


 287 00fa FB18     		add	r3, r7, r3
 288 00fc 1B78     		ldrb	r3, [r3]
 289 00fe 013B     		sub	r3, r3, #1
 290 0100 1022     		mov	r2, #16
 291 0102 BA18     		add	r2, r7, r2
 292 0104 D35C     		ldrb	r3, [r2, r3]
 293 0106 1A1C     		mov	r2, r3
 294 0108 944B     		ldr	r3, .L42+8
 295 010a 181C     		mov	r0, r3
 296 010c 111C     		mov	r1, r2
 297 010e FFF7FEFF 		bl	printf
  63:main.c        ****             for(i = CYBLE_GAP_BD_ADDR_SIZE; i > 0u; i--)
 298              		.loc 1 63 0 discriminator 3
 299 0112 1F23     		mov	r3, #31
 300 0114 FB18     		add	r3, r7, r3
 301 0116 1A78     		ldrb	r2, [r3]
 302 0118 1F23     		mov	r3, #31
 303 011a FB18     		add	r3, r7, r3
 304 011c 013A     		sub	r2, r2, #1
 305 011e 1A70     		strb	r2, [r3]
 306              	.L33:
  63:main.c        ****             for(i = CYBLE_GAP_BD_ADDR_SIZE; i > 0u; i--)
 307              		.loc 1 63 0 is_stmt 0 discriminator 1
 308 0120 1F23     		mov	r3, #31
 309 0122 FB18     		add	r3, r7, r3
 310 0124 1B78     		ldrb	r3, [r3]
 311 0126 002B     		cmp	r3, #0
 312 0128 E6D1     		bne	.L34
  66:main.c        ****             }
  67:main.c        ****             DBG_PRINTF("\r\n");
 313              		.loc 1 67 0 is_stmt 1
 314 012a 8D4B     		ldr	r3, .L42+12
 315 012c 181C     		mov	r0, r3
 316 012e FFF7FEFF 		bl	puts
  68:main.c        ****             break;
 317              		.loc 1 68 0
 318 0132 0BE1     		b	.L1
 319              	.L10:
  69:main.c        **** 		case CYBLE_EVT_TIMEOUT: 
  70:main.c        ****             break;
  71:main.c        **** 		case CYBLE_EVT_HARDWARE_ERROR:    /* This event indicates that some internal HW error has occurre
  72:main.c        ****             DBG_PRINTF("CYBLE_EVT_HARDWARE_ERROR \r\n");
 320              		.loc 1 72 0
 321 0134 8B4B     		ldr	r3, .L42+16
 322 0136 181C     		mov	r0, r3
 323 0138 FFF7FEFF 		bl	puts
  73:main.c        **** 			break;
 324              		.loc 1 73 0
 325 013c 06E1     		b	.L1
 326              	.L5:
  74:main.c        ****             
  75:main.c        ****     	/* This event will be triggered by host stack if BLE stack is busy or not busy.
  76:main.c        ****     	 *  Parameter corresponding to this event will be the state of BLE stack.
  77:main.c        ****     	 *  BLE stack busy = CYBLE_STACK_STATE_BUSY,
  78:main.c        ****     	 *  BLE stack not busy = CYBLE_STACK_STATE_FREE 
  79:main.c        ****          */
  80:main.c        ****     	case CYBLE_EVT_STACK_BUSY_STATUS:
ARM GAS  C:\Users\akita\AppData\Local\Temp\cc6eU00e.s 			page 10


  81:main.c        ****             DBG_PRINTF("CYBLE_EVT_STACK_BUSY_STATUS: %x\r\n", *(uint8 *)eventParam);
 327              		.loc 1 81 0
 328 013e 3B68     		ldr	r3, [r7]
 329 0140 1B78     		ldrb	r3, [r3]
 330 0142 1A1C     		mov	r2, r3
 331 0144 884B     		ldr	r3, .L42+20
 332 0146 181C     		mov	r0, r3
 333 0148 111C     		mov	r1, r2
 334 014a FFF7FEFF 		bl	printf
  82:main.c        ****             break;
 335              		.loc 1 82 0
 336 014e FDE0     		b	.L1
 337              	.L11:
  83:main.c        ****         case CYBLE_EVT_HCI_STATUS:
  84:main.c        ****             DBG_PRINTF("CYBLE_EVT_HCI_STATUS: %x \r\n", *(uint8 *)eventParam);
 338              		.loc 1 84 0
 339 0150 3B68     		ldr	r3, [r7]
 340 0152 1B78     		ldrb	r3, [r3]
 341 0154 1A1C     		mov	r2, r3
 342 0156 854B     		ldr	r3, .L42+24
 343 0158 181C     		mov	r0, r3
 344 015a 111C     		mov	r1, r2
 345 015c FFF7FEFF 		bl	printf
  85:main.c        **** 			break;
 346              		.loc 1 85 0
 347 0160 F4E0     		b	.L1
 348              	.L14:
  86:main.c        ****             
  87:main.c        ****         /**********************************************************
  88:main.c        ****         *                       GAP Events
  89:main.c        ****         ***********************************************************/
  90:main.c        ****         case CYBLE_EVT_GAP_AUTH_REQ:
  91:main.c        ****             DBG_PRINTF("CYBLE_EVT_AUTH_REQ: security=%x, bonding=%x, ekeySize=%x, err=%x \r\n", 
 349              		.loc 1 91 0
 350 0162 3B68     		ldr	r3, [r7]
 351 0164 1B78     		ldrb	r3, [r3]
 352 0166 191C     		mov	r1, r3
 353 0168 3B68     		ldr	r3, [r7]
 354 016a 5B78     		ldrb	r3, [r3, #1]
 355 016c 1D1C     		mov	r5, r3
 356 016e 3B68     		ldr	r3, [r7]
 357 0170 9B78     		ldrb	r3, [r3, #2]
 358 0172 1C1C     		mov	r4, r3
 359 0174 3B68     		ldr	r3, [r7]
 360 0176 DB78     		ldrb	r3, [r3, #3]
 361 0178 1A1C     		mov	r2, r3
 362 017a 7D4B     		ldr	r3, .L42+28
 363 017c 0092     		str	r2, [sp]
 364 017e 181C     		mov	r0, r3
 365 0180 2A1C     		mov	r2, r5
 366 0182 231C     		mov	r3, r4
 367 0184 FFF7FEFF 		bl	printf
  92:main.c        ****                 (*(CYBLE_GAP_AUTH_INFO_T *)eventParam).security, 
  93:main.c        ****                 (*(CYBLE_GAP_AUTH_INFO_T *)eventParam).bonding, 
  94:main.c        ****                 (*(CYBLE_GAP_AUTH_INFO_T *)eventParam).ekeySize, 
  95:main.c        ****                 (*(CYBLE_GAP_AUTH_INFO_T *)eventParam).authErr);
  96:main.c        ****             break;
ARM GAS  C:\Users\akita\AppData\Local\Temp\cc6eU00e.s 			page 11


 368              		.loc 1 96 0
 369 0188 E0E0     		b	.L1
 370              	.L15:
  97:main.c        ****         case CYBLE_EVT_GAP_PASSKEY_ENTRY_REQUEST:
  98:main.c        ****             DBG_PRINTF("CYBLE_EVT_PASSKEY_ENTRY_REQUEST press 'p' to enter passkey \r\n");
 371              		.loc 1 98 0
 372 018a 7A4B     		ldr	r3, .L42+32
 373 018c 181C     		mov	r0, r3
 374 018e FFF7FEFF 		bl	puts
  99:main.c        ****             break;
 375              		.loc 1 99 0
 376 0192 DBE0     		b	.L1
 377              	.L12:
 100:main.c        ****         case CYBLE_EVT_GAP_PASSKEY_DISPLAY_REQUEST:
 101:main.c        ****             DBG_PRINTF("CYBLE_EVT_PASSKEY_DISPLAY_REQUEST %6.6ld \r\n", *(uint32 *)eventParam);
 378              		.loc 1 101 0
 379 0194 3B68     		ldr	r3, [r7]
 380 0196 1B68     		ldr	r3, [r3]
 381 0198 774A     		ldr	r2, .L42+36
 382 019a 101C     		mov	r0, r2
 383 019c 191C     		mov	r1, r3
 384 019e FFF7FEFF 		bl	printf
 102:main.c        ****             break;
 385              		.loc 1 102 0
 386 01a2 D3E0     		b	.L1
 387              	.L25:
 103:main.c        ****         case CYBLE_EVT_GAP_KEYINFO_EXCHNGE_CMPLT:
 104:main.c        ****             DBG_PRINTF("CYBLE_EVT_GAP_KEYINFO_EXCHNGE_CMPLT \r\n");
 388              		.loc 1 104 0
 389 01a4 754B     		ldr	r3, .L42+40
 390 01a6 181C     		mov	r0, r3
 391 01a8 FFF7FEFF 		bl	puts
 105:main.c        ****             break;
 392              		.loc 1 105 0
 393 01ac CEE0     		b	.L1
 394              	.L16:
 106:main.c        ****         case CYBLE_EVT_GAP_AUTH_COMPLETE:
 107:main.c        ****             authInfo = (CYBLE_GAP_AUTH_INFO_T *)eventParam;
 395              		.loc 1 107 0
 396 01ae 3B68     		ldr	r3, [r7]
 397 01b0 BB61     		str	r3, [r7, #24]
 108:main.c        ****             (void)authInfo;
 109:main.c        ****             DBG_PRINTF("AUTH_COMPLETE: security:%x, bonding:%x, ekeySize:%x, authErr %x \r\n", 
 398              		.loc 1 109 0
 399 01b2 BB69     		ldr	r3, [r7, #24]
 400 01b4 1B78     		ldrb	r3, [r3]
 401 01b6 191C     		mov	r1, r3
 402 01b8 BB69     		ldr	r3, [r7, #24]
 403 01ba 5B78     		ldrb	r3, [r3, #1]
 404 01bc 1D1C     		mov	r5, r3
 405 01be BB69     		ldr	r3, [r7, #24]
 406 01c0 9B78     		ldrb	r3, [r3, #2]
 407 01c2 1C1C     		mov	r4, r3
 408 01c4 BB69     		ldr	r3, [r7, #24]
 409 01c6 DB78     		ldrb	r3, [r3, #3]
 410 01c8 1A1C     		mov	r2, r3
 411 01ca 6D4B     		ldr	r3, .L42+44
ARM GAS  C:\Users\akita\AppData\Local\Temp\cc6eU00e.s 			page 12


 412 01cc 0092     		str	r2, [sp]
 413 01ce 181C     		mov	r0, r3
 414 01d0 2A1C     		mov	r2, r5
 415 01d2 231C     		mov	r3, r4
 416 01d4 FFF7FEFF 		bl	printf
 110:main.c        ****                                     authInfo->security, authInfo->bonding, authInfo->ekeySize, auth
 111:main.c        ****             break;
 417              		.loc 1 111 0
 418 01d8 B8E0     		b	.L1
 419              	.L17:
 112:main.c        ****         case CYBLE_EVT_GAP_AUTH_FAILED:
 113:main.c        ****             DBG_PRINTF("CYBLE_EVT_AUTH_FAILED: %x \r\n", *(uint8 *)eventParam);
 420              		.loc 1 113 0
 421 01da 3B68     		ldr	r3, [r7]
 422 01dc 1B78     		ldrb	r3, [r3]
 423 01de 1A1C     		mov	r2, r3
 424 01e0 684B     		ldr	r3, .L42+48
 425 01e2 181C     		mov	r0, r3
 426 01e4 111C     		mov	r1, r2
 427 01e6 FFF7FEFF 		bl	printf
 114:main.c        ****             break;
 428              		.loc 1 114 0
 429 01ea AFE0     		b	.L1
 430              	.L3:
 115:main.c        ****         case CYBLE_EVT_GAPP_ADVERTISEMENT_START_STOP:
 116:main.c        ****             DBG_PRINTF("CYBLE_EVT_ADVERTISING, state: %x \r\n", CyBle_GetState());
 431              		.loc 1 116 0
 432 01ec 664B     		ldr	r3, .L42+52
 433 01ee 1B78     		ldrb	r3, [r3]
 434 01f0 1A1C     		mov	r2, r3
 435 01f2 664B     		ldr	r3, .L42+56
 436 01f4 181C     		mov	r0, r3
 437 01f6 111C     		mov	r1, r2
 438 01f8 FFF7FEFF 		bl	printf
 117:main.c        ****             if(CYBLE_STATE_DISCONNECTED == CyBle_GetState())
 439              		.loc 1 117 0
 440 01fc 624B     		ldr	r3, .L42+52
 441 01fe 1B78     		ldrb	r3, [r3]
 442 0200 042B     		cmp	r3, #4
 443 0202 20D1     		bne	.L36
 118:main.c        ****             {   
 119:main.c        ****                 /* Fast and slow advertising period complete, go to low power  
 120:main.c        ****                  * mode (Hibernate mode) and wait for an external
 121:main.c        ****                  * user event to wake up the device again */
 122:main.c        ****                 DBG_PRINTF("Hibernate \r\n");
 444              		.loc 1 122 0
 445 0204 624B     		ldr	r3, .L42+60
 446 0206 181C     		mov	r0, r3
 447 0208 FFF7FEFF 		bl	puts
 123:main.c        ****                 Advertising_LED_Write(LED_OFF);
 448              		.loc 1 123 0
 449 020c 0120     		mov	r0, #1
 450 020e FFF7FEFF 		bl	Advertising_LED_Write
 124:main.c        **** //                Disconnect_LED_Write(LED_ON);
 125:main.c        ****                 CapsLock_LED_Write(LED_OFF);
 451              		.loc 1 125 0
 452 0212 0120     		mov	r0, #1
ARM GAS  C:\Users\akita\AppData\Local\Temp\cc6eU00e.s 			page 13


 453 0214 FFF7FEFF 		bl	CapsLock_LED_Write
 126:main.c        **** //                SW2_ClearInterrupt();
 127:main.c        ****                 Wakeup_Interrupt_ClearPending();
 454              		.loc 1 127 0
 455 0218 FFF7FEFF 		bl	Wakeup_Interrupt_ClearPending
 128:main.c        ****                 Wakeup_Interrupt_Start();
 456              		.loc 1 128 0
 457 021c FFF7FEFF 		bl	Wakeup_Interrupt_Start
 129:main.c        ****             #if (DEBUG_UART_ENABLED == ENABLED)
 130:main.c        ****                 /* Wait until debug info is sent */
 131:main.c        ****                 while((UART_DEB_SpiUartGetTxBufferSize() + UART_DEB_GET_TX_FIFO_SR_VALID) != 0);
 458              		.loc 1 131 0
 459 0220 C046     		mov	r8, r8
 460              	.L39:
 461              		.loc 1 131 0 is_stmt 0 discriminator 5
 462 0222 FFF7FEFF 		bl	UART_DEB_SpiUartGetTxBufferSize
 463 0226 011C     		mov	r1, r0
 464 0228 5A4B     		ldr	r3, .L42+64
 465 022a 1A68     		ldr	r2, [r3]
 466 022c 8023     		mov	r3, #128
 467 022e 1B02     		lsl	r3, r3, #8
 468 0230 1340     		and	r3, r2
 469 0232 01D0     		beq	.L37
 470              		.loc 1 131 0 discriminator 1
 471 0234 0123     		mov	r3, #1
 472 0236 00E0     		b	.L38
 473              	.L37:
 474              		.loc 1 131 0 discriminator 2
 475 0238 0023     		mov	r3, #0
 476              	.L38:
 477              		.loc 1 131 0 discriminator 4
 478 023a CB18     		add	r3, r1, r3
 479 023c 002B     		cmp	r3, #0
 480 023e F0D1     		bne	.L39
 132:main.c        ****             #endif /* (DEBUG_UART_ENABLED == ENABLED) */
 133:main.c        ****                 CySysPmHibernate();
 481              		.loc 1 133 0 is_stmt 1
 482 0240 FFF7FEFF 		bl	CySysPmHibernate
 134:main.c        ****             }
 135:main.c        ****             break;
 483              		.loc 1 135 0
 484 0244 82E0     		b	.L1
 485              	.L36:
 486              		.loc 1 135 0 is_stmt 0 discriminator 2
 487 0246 81E0     		b	.L1
 488              	.L22:
 136:main.c        ****         case CYBLE_EVT_GAP_DEVICE_CONNECTED:
 137:main.c        ****             DBG_PRINTF("CYBLE_EVT_GAP_DEVICE_CONNECTED \r\n");
 489              		.loc 1 137 0 is_stmt 1
 490 0248 534B     		ldr	r3, .L42+68
 491 024a 181C     		mov	r0, r3
 492 024c FFF7FEFF 		bl	puts
 138:main.c        ****             Advertising_LED_Write(LED_OFF);
 493              		.loc 1 138 0
 494 0250 0120     		mov	r0, #1
 495 0252 FFF7FEFF 		bl	Advertising_LED_Write
 139:main.c        ****             break;
ARM GAS  C:\Users\akita\AppData\Local\Temp\cc6eU00e.s 			page 14


 496              		.loc 1 139 0
 497 0256 79E0     		b	.L1
 498              	.L23:
 140:main.c        ****         case CYBLE_EVT_GAP_DEVICE_DISCONNECTED:
 141:main.c        ****             DBG_PRINTF("CYBLE_EVT_GAP_DEVICE_DISCONNECTED\r\n");
 499              		.loc 1 141 0
 500 0258 504B     		ldr	r3, .L42+72
 501 025a 181C     		mov	r0, r3
 502 025c FFF7FEFF 		bl	puts
 142:main.c        ****             apiResult = CyBle_GappStartAdvertisement(CYBLE_ADVERTISING_FAST);
 503              		.loc 1 142 0
 504 0260 1C23     		mov	r3, #28
 505 0262 FC18     		add	r4, r7, r3
 506 0264 0020     		mov	r0, #0
 507 0266 FFF7FEFF 		bl	CyBle_GappStartAdvertisement
 508 026a 031C     		mov	r3, r0
 509 026c 2380     		strh	r3, [r4]
 143:main.c        ****             if(apiResult != CYBLE_ERROR_OK)
 510              		.loc 1 143 0
 511 026e 1C23     		mov	r3, #28
 512 0270 FB18     		add	r3, r7, r3
 513 0272 1B88     		ldrh	r3, [r3]
 514 0274 002B     		cmp	r3, #0
 515 0276 08D0     		beq	.L40
 144:main.c        ****             {
 145:main.c        ****                 DBG_PRINTF("StartAdvertisement API Error: %d \r\n", apiResult);
 516              		.loc 1 145 0
 517 0278 1C23     		mov	r3, #28
 518 027a FB18     		add	r3, r7, r3
 519 027c 1B88     		ldrh	r3, [r3]
 520 027e 354A     		ldr	r2, .L42
 521 0280 101C     		mov	r0, r2
 522 0282 191C     		mov	r1, r3
 523 0284 FFF7FEFF 		bl	printf
 146:main.c        ****             }
 147:main.c        ****             break;
 524              		.loc 1 147 0
 525 0288 60E0     		b	.L1
 526              	.L40:
 527              		.loc 1 147 0 is_stmt 0 discriminator 3
 528 028a 5FE0     		b	.L1
 529              	.L29:
 530              	.LBB2:
 148:main.c        ****         case CYBLE_EVT_GATTS_XCNHG_MTU_REQ:
 149:main.c        ****             { 
 150:main.c        ****                 uint16 mtu;
 151:main.c        ****                 CyBle_GattGetMtuSize(&mtu);
 531              		.loc 1 151 0 is_stmt 1 discriminator 4
 532 028c 0E23     		mov	r3, #14
 533 028e FB18     		add	r3, r7, r3
 534 0290 181C     		mov	r0, r3
 535 0292 FFF7FEFF 		bl	CyBle_GattGetMtuSize
 152:main.c        ****                 DBG_PRINTF("CYBLE_EVT_GATTS_XCNHG_MTU_REQ, final mtu= %d \r\n", mtu);
 536              		.loc 1 152 0 discriminator 4
 537 0296 0E23     		mov	r3, #14
 538 0298 FB18     		add	r3, r7, r3
 539 029a 1B88     		ldrh	r3, [r3]
ARM GAS  C:\Users\akita\AppData\Local\Temp\cc6eU00e.s 			page 15


 540 029c 1A1C     		mov	r2, r3
 541 029e 404B     		ldr	r3, .L42+76
 542 02a0 181C     		mov	r0, r3
 543 02a2 111C     		mov	r1, r2
 544 02a4 FFF7FEFF 		bl	printf
 545              	.LBE2:
 153:main.c        ****             }
 154:main.c        ****             break;
 546              		.loc 1 154 0 discriminator 4
 547 02a8 50E0     		b	.L1
 548              	.L26:
 155:main.c        ****         case CYBLE_EVT_GATTS_WRITE_REQ:
 156:main.c        ****             DBG_PRINTF("CYBLE_EVT_GATT_WRITE_REQ: %x = ",((CYBLE_GATTS_WRITE_REQ_PARAM_T *)eventPar
 549              		.loc 1 156 0
 550 02aa 3B68     		ldr	r3, [r7]
 551 02ac 9B89     		ldrh	r3, [r3, #12]
 552 02ae 1A1C     		mov	r2, r3
 553 02b0 3C4B     		ldr	r3, .L42+80
 554 02b2 181C     		mov	r0, r3
 555 02b4 111C     		mov	r1, r2
 556 02b6 FFF7FEFF 		bl	printf
 157:main.c        ****             ShowValue(&((CYBLE_GATTS_WRITE_REQ_PARAM_T *)eventParam)->handleValPair.value);
 557              		.loc 1 157 0
 558 02ba 3B68     		ldr	r3, [r7]
 559 02bc 0433     		add	r3, r3, #4
 560 02be 181C     		mov	r0, r3
 561 02c0 FFF7FEFF 		bl	ShowValue
 158:main.c        ****             (void)CyBle_GattsWriteRsp(((CYBLE_GATTS_WRITE_REQ_PARAM_T *)eventParam)->connHandle);
 562              		.loc 1 158 0
 563 02c4 3B68     		ldr	r3, [r7]
 564 02c6 1868     		ldr	r0, [r3]
 565 02c8 FFF7FEFF 		bl	CyBle_GattsWriteRsp
 159:main.c        ****             break;
 566              		.loc 1 159 0
 567 02cc 3EE0     		b	.L1
 568              	.L20:
 160:main.c        ****         case CYBLE_EVT_GAP_ENCRYPT_CHANGE:
 161:main.c        ****             DBG_PRINTF("CYBLE_EVT_GAP_ENCRYPT_CHANGE: %x \r\n", *(uint8 *)eventParam);
 569              		.loc 1 161 0
 570 02ce 3B68     		ldr	r3, [r7]
 571 02d0 1B78     		ldrb	r3, [r3]
 572 02d2 1A1C     		mov	r2, r3
 573 02d4 344B     		ldr	r3, .L42+84
 574 02d6 181C     		mov	r0, r3
 575 02d8 111C     		mov	r1, r2
 576 02da FFF7FEFF 		bl	printf
 162:main.c        ****             break;
 577              		.loc 1 162 0
 578 02de 35E0     		b	.L1
 579              	.L24:
 163:main.c        ****         case CYBLE_EVT_GAPC_CONNECTION_UPDATE_COMPLETE:
 164:main.c        ****             DBG_PRINTF("CYBLE_EVT_CONNECTION_UPDATE_COMPLETE: %x \r\n", *(uint8 *)eventParam);
 580              		.loc 1 164 0
 581 02e0 3B68     		ldr	r3, [r7]
 582 02e2 1B78     		ldrb	r3, [r3]
 583 02e4 1A1C     		mov	r2, r3
 584 02e6 314B     		ldr	r3, .L42+88
ARM GAS  C:\Users\akita\AppData\Local\Temp\cc6eU00e.s 			page 16


 585 02e8 181C     		mov	r0, r3
 586 02ea 111C     		mov	r1, r2
 587 02ec FFF7FEFF 		bl	printf
 165:main.c        ****             break;
 588              		.loc 1 165 0
 589 02f0 2CE0     		b	.L1
 590              	.L18:
 166:main.c        ****             
 167:main.c        ****         /**********************************************************
 168:main.c        ****         *                       GATT Events
 169:main.c        ****         ***********************************************************/
 170:main.c        ****         case CYBLE_EVT_GATT_CONNECT_IND:
 171:main.c        ****             DBG_PRINTF("CYBLE_EVT_GATT_CONNECT_IND: %x, %x \r\n", cyBle_connHandle.attId, cyBle_con
 591              		.loc 1 171 0
 592 02f2 2F4B     		ldr	r3, .L42+92
 593 02f4 5B78     		ldrb	r3, [r3, #1]
 594 02f6 191C     		mov	r1, r3
 595 02f8 2D4B     		ldr	r3, .L42+92
 596 02fa 1B78     		ldrb	r3, [r3]
 597 02fc 1A1C     		mov	r2, r3
 598 02fe 2D4B     		ldr	r3, .L42+96
 599 0300 181C     		mov	r0, r3
 600 0302 FFF7FEFF 		bl	printf
 172:main.c        ****             /* Register service specific callback functions */
 173:main.c        ****             HidsInit();
 601              		.loc 1 173 0
 602 0306 FFF7FEFF 		bl	HidsInit
 174:main.c        ****             BasInit();
 603              		.loc 1 174 0
 604 030a FFF7FEFF 		bl	BasInit
 175:main.c        ****             ScpsInit();
 605              		.loc 1 175 0
 606 030e FFF7FEFF 		bl	ScpsInit
 176:main.c        ****             break;
 607              		.loc 1 176 0
 608 0312 1BE0     		b	.L1
 609              	.L28:
 177:main.c        ****         case CYBLE_EVT_GATT_DISCONNECT_IND:
 178:main.c        ****             DBG_PRINTF("CYBLE_EVT_GATT_DISCONNECT_IND \r\n");
 610              		.loc 1 178 0
 611 0314 284B     		ldr	r3, .L42+100
 612 0316 181C     		mov	r0, r3
 613 0318 FFF7FEFF 		bl	puts
 179:main.c        ****             break;
 614              		.loc 1 179 0
 615 031c 16E0     		b	.L1
 616              	.L30:
 180:main.c        ****         case CYBLE_EVT_GATTS_READ_CHAR_VAL_ACCESS_REQ:
 181:main.c        ****             /* Triggered on server side when client sends read request and when
 182:main.c        ****             * characteristic has CYBLE_GATT_DB_ATTR_CHAR_VAL_RD_EVENT property set.
 183:main.c        ****             * This event could be ignored by application unless it need to response
 184:main.c        ****             * by error response which needs to be set in gattErrorCode field of
 185:main.c        ****             * event parameter. */
 186:main.c        ****             DBG_PRINTF("CYBLE_EVT_GATTS_READ_CHAR_VAL_ACCESS_REQ: handle: %x \r\n", 
 617              		.loc 1 186 0
 618 031e 3B68     		ldr	r3, [r7]
 619 0320 5B88     		ldrh	r3, [r3, #2]
ARM GAS  C:\Users\akita\AppData\Local\Temp\cc6eU00e.s 			page 17


 620 0322 1A1C     		mov	r2, r3
 621 0324 254B     		ldr	r3, .L42+104
 622 0326 181C     		mov	r0, r3
 623 0328 111C     		mov	r1, r2
 624 032a FFF7FEFF 		bl	printf
 187:main.c        ****                 ((CYBLE_GATTS_CHAR_VAL_READ_REQ_T *)eventParam)->attrHandle);
 188:main.c        ****             break;
 625              		.loc 1 188 0
 626 032e 0DE0     		b	.L1
 627              	.L31:
 189:main.c        ****             
 190:main.c        ****         /**********************************************************
 191:main.c        ****         *                       Other Events
 192:main.c        ****         ***********************************************************/
 193:main.c        **** 		case CYBLE_EVT_PENDING_FLASH_WRITE:
 194:main.c        ****             /* Inform application that flash write is pending. Stack internal data 
 195:main.c        ****             * structures are modified and require to be stored in Flash using 
 196:main.c        ****             * CyBle_StoreBondingData() */
 197:main.c        ****             DBG_PRINTF("CYBLE_EVT_PENDING_FLASH_WRITE\r\n");
 628              		.loc 1 197 0
 629 0330 234B     		ldr	r3, .L42+108
 630 0332 181C     		mov	r0, r3
 631 0334 FFF7FEFF 		bl	puts
 198:main.c        ****             break;
 632              		.loc 1 198 0
 633 0338 08E0     		b	.L1
 634              	.L2:
 199:main.c        **** 
 200:main.c        ****         default:
 201:main.c        ****             DBG_PRINTF("OTHER event: %lx \r\n", event);
 635              		.loc 1 201 0
 636 033a 224A     		ldr	r2, .L42+112
 637 033c 7B68     		ldr	r3, [r7, #4]
 638 033e 101C     		mov	r0, r2
 639 0340 191C     		mov	r1, r3
 640 0342 FFF7FEFF 		bl	printf
 202:main.c        **** 			break;
 641              		.loc 1 202 0
 642 0346 C046     		mov	r8, r8
 643 0348 00E0     		b	.L1
 644              	.L41:
  70:main.c        **** 		case CYBLE_EVT_HARDWARE_ERROR:    /* This event indicates that some internal HW error has occurre
 645              		.loc 1 70 0
 646 034a C046     		mov	r8, r8
 647              	.L1:
 203:main.c        **** 	}
 204:main.c        **** 
 205:main.c        **** }
 648              		.loc 1 205 0
 649 034c BD46     		mov	sp, r7
 650 034e 08B0     		add	sp, sp, #32
 651              		@ sp needed
 652 0350 B0BD     		pop	{r4, r5, r7, pc}
 653              	.L43:
 654 0352 C046     		.align	2
 655              	.L42:
 656 0354 00000000 		.word	.LC0
ARM GAS  C:\Users\akita\AppData\Local\Temp\cc6eU00e.s 			page 18


 657 0358 24000000 		.word	.LC2
 658 035c 54000000 		.word	.LC4
 659 0360 5C000000 		.word	.LC6
 660 0364 60000000 		.word	.LC8
 661 0368 7C000000 		.word	.LC10
 662 036c A0000000 		.word	.LC12
 663 0370 BC000000 		.word	.LC14
 664 0374 00010000 		.word	.LC16
 665 0378 40010000 		.word	.LC18
 666 037c 6C010000 		.word	.LC20
 667 0380 94010000 		.word	.LC22
 668 0384 D8010000 		.word	.LC24
 669 0388 00000000 		.word	cyBle_state
 670 038c F8010000 		.word	.LC27
 671 0390 1C020000 		.word	.LC29
 672 0394 08022540 		.word	1076167176
 673 0398 28020000 		.word	.LC31
 674 039c 4C020000 		.word	.LC33
 675 03a0 70020000 		.word	.LC35
 676 03a4 A0020000 		.word	.LC37
 677 03a8 C0020000 		.word	.LC39
 678 03ac E4020000 		.word	.LC41
 679 03b0 00000000 		.word	cyBle_connHandle
 680 03b4 10030000 		.word	.LC44
 681 03b8 38030000 		.word	.LC46
 682 03bc 58030000 		.word	.LC48
 683 03c0 90030000 		.word	.LC50
 684 03c4 B0030000 		.word	.LC52
 685              		.cfi_endproc
 686              	.LFE37:
 687              		.size	AppCallBack, .-AppCallBack
 688              		.section	.text.Timer_Interrupt,"ax",%progbits
 689              		.align	2
 690              		.global	Timer_Interrupt
 691              		.code	16
 692              		.thumb_func
 693              		.type	Timer_Interrupt, %function
 694              	Timer_Interrupt:
 695              	.LFB38:
 206:main.c        **** 
 207:main.c        **** 
 208:main.c        **** /*******************************************************************************
 209:main.c        **** * Function Name: Timer_Interrupt
 210:main.c        **** ********************************************************************************
 211:main.c        **** *
 212:main.c        **** * Summary:
 213:main.c        **** *  Handles the Interrupt Service Routine for the WDT timer.
 214:main.c        **** *
 215:main.c        **** *******************************************************************************/
 216:main.c        **** CY_ISR(Timer_Interrupt)
 217:main.c        **** {
 696              		.loc 1 217 0
 697              		.cfi_startproc
 698 0000 80B5     		push	{r7, lr}
 699              		.cfi_def_cfa_offset 8
 700              		.cfi_offset 7, -8
 701              		.cfi_offset 14, -4
ARM GAS  C:\Users\akita\AppData\Local\Temp\cc6eU00e.s 			page 19


 702 0002 00AF     		add	r7, sp, #0
 703              		.cfi_def_cfa_register 7
 218:main.c        ****     if(CySysWdtGetInterruptSource() & WDT_INTERRUPT_SOURCE)
 704              		.loc 1 218 0
 705 0004 FFF7FEFF 		bl	CySysWdtGetInterruptSource
 706 0008 021C     		mov	r2, r0
 707 000a 8023     		mov	r3, #128
 708 000c DB00     		lsl	r3, r3, #3
 709 000e 1340     		and	r3, r2
 710 0010 25D0     		beq	.L44
 711              	.LBB3:
 219:main.c        ****     {
 220:main.c        ****         static uint8 led = LED_OFF;
 221:main.c        ****         static uint32 ledTimer = LED_TIMEOUT;
 222:main.c        ****     
 223:main.c        ****         /* Blink green LED to indicate that device advertises */
 224:main.c        ****         if(CyBle_GetState() == CYBLE_STATE_ADVERTISING)
 712              		.loc 1 224 0
 713 0012 144B     		ldr	r3, .L47
 714 0014 1B78     		ldrb	r3, [r3]
 715 0016 032B     		cmp	r3, #3
 716 0018 17D1     		bne	.L46
 225:main.c        ****         {
 226:main.c        ****             if(--ledTimer == 0u) 
 717              		.loc 1 226 0
 718 001a 134B     		ldr	r3, .L47+4
 719 001c 1B68     		ldr	r3, [r3]
 720 001e 5A1E     		sub	r2, r3, #1
 721 0020 114B     		ldr	r3, .L47+4
 722 0022 1A60     		str	r2, [r3]
 723 0024 104B     		ldr	r3, .L47+4
 724 0026 1B68     		ldr	r3, [r3]
 725 0028 002B     		cmp	r3, #0
 726 002a 0ED1     		bne	.L46
 227:main.c        ****             {
 228:main.c        ****                 ledTimer = LED_TIMEOUT;
 727              		.loc 1 228 0
 728 002c 0E4B     		ldr	r3, .L47+4
 729 002e 0A22     		mov	r2, #10
 730 0030 1A60     		str	r2, [r3]
 229:main.c        ****                 led ^= LED_OFF;
 731              		.loc 1 229 0
 732 0032 0E4B     		ldr	r3, .L47+8
 733 0034 1B78     		ldrb	r3, [r3]
 734 0036 0122     		mov	r2, #1
 735 0038 5340     		eor	r3, r2
 736 003a DAB2     		uxtb	r2, r3
 737 003c 0B4B     		ldr	r3, .L47+8
 738 003e 1A70     		strb	r2, [r3]
 230:main.c        ****                 Advertising_LED_Write(led);
 739              		.loc 1 230 0
 740 0040 0A4B     		ldr	r3, .L47+8
 741 0042 1B78     		ldrb	r3, [r3]
 742 0044 181C     		mov	r0, r3
 743 0046 FFF7FEFF 		bl	Advertising_LED_Write
 744              	.L46:
 231:main.c        ****             }
ARM GAS  C:\Users\akita\AppData\Local\Temp\cc6eU00e.s 			page 20


 232:main.c        ****         }
 233:main.c        ****         
 234:main.c        ****         /* Indicate that timer is raised to the main loop */
 235:main.c        ****         mainTimer++;
 745              		.loc 1 235 0
 746 004a 094B     		ldr	r3, .L47+12
 747 004c 1B68     		ldr	r3, [r3]
 748 004e 5A1C     		add	r2, r3, #1
 749 0050 074B     		ldr	r3, .L47+12
 750 0052 1A60     		str	r2, [r3]
 236:main.c        ****         
 237:main.c        ****         /* Clears interrupt request  */
 238:main.c        ****         CySysWdtClearInterrupt(WDT_INTERRUPT_SOURCE);
 751              		.loc 1 238 0
 752 0054 8023     		mov	r3, #128
 753 0056 DB00     		lsl	r3, r3, #3
 754 0058 181C     		mov	r0, r3
 755 005a FFF7FEFF 		bl	CySysWdtClearInterrupt
 756              	.L44:
 757              	.LBE3:
 239:main.c        ****     }
 240:main.c        **** }
 758              		.loc 1 240 0
 759 005e BD46     		mov	sp, r7
 760              		@ sp needed
 761 0060 80BD     		pop	{r7, pc}
 762              	.L48:
 763 0062 C046     		.align	2
 764              	.L47:
 765 0064 00000000 		.word	cyBle_state
 766 0068 00000000 		.word	ledTimer.8347
 767 006c 04000000 		.word	led.8346
 768 0070 00000000 		.word	mainTimer
 769              		.cfi_endproc
 770              	.LFE38:
 771              		.size	Timer_Interrupt, .-Timer_Interrupt
 772              		.section	.text.WDT_Start,"ax",%progbits
 773              		.align	2
 774              		.global	WDT_Start
 775              		.code	16
 776              		.thumb_func
 777              		.type	WDT_Start, %function
 778              	WDT_Start:
 779              	.LFB39:
 241:main.c        **** 
 242:main.c        **** /*******************************************************************************
 243:main.c        **** * Function Name: WDT_Start
 244:main.c        **** ********************************************************************************
 245:main.c        **** *
 246:main.c        **** * Summary:
 247:main.c        **** *  Configures WDT to trigger an interrupt.
 248:main.c        **** *
 249:main.c        **** *******************************************************************************/
 250:main.c        **** 
 251:main.c        **** void WDT_Start(void)
 252:main.c        **** {
 780              		.loc 1 252 0
ARM GAS  C:\Users\akita\AppData\Local\Temp\cc6eU00e.s 			page 21


 781              		.cfi_startproc
 782 0000 80B5     		push	{r7, lr}
 783              		.cfi_def_cfa_offset 8
 784              		.cfi_offset 7, -8
 785              		.cfi_offset 14, -4
 786 0002 00AF     		add	r7, sp, #0
 787              		.cfi_def_cfa_register 7
 253:main.c        ****     /* Unlock the WDT registers for modification */
 254:main.c        ****     CySysWdtUnlock(); 
 788              		.loc 1 254 0
 789 0004 FFF7FEFF 		bl	CySysWdtUnlock
 255:main.c        ****     /* Setup ISR */
 256:main.c        ****     WDT_Interrupt_StartEx(&Timer_Interrupt);
 790              		.loc 1 256 0
 791 0008 0E4B     		ldr	r3, .L50
 792 000a 181C     		mov	r0, r3
 793 000c FFF7FEFF 		bl	WDT_Interrupt_StartEx
 257:main.c        ****     /* Write the mode to generate interrupt on match */
 258:main.c        ****     CySysWdtWriteMode(WDT_COUNTER, CY_SYS_WDT_MODE_INT);
 794              		.loc 1 258 0
 795 0010 0120     		mov	r0, #1
 796 0012 0121     		mov	r1, #1
 797 0014 FFF7FEFF 		bl	CySysWdtSetMode
 259:main.c        ****     /* Configure the WDT counter clear on a match setting */
 260:main.c        ****     CySysWdtWriteClearOnMatch(WDT_COUNTER, WDT_COUNTER_ENABLE);
 798              		.loc 1 260 0
 799 0018 0120     		mov	r0, #1
 800 001a 0121     		mov	r1, #1
 801 001c FFF7FEFF 		bl	CySysWdtSetClearOnMatch
 261:main.c        ****     /* Configure the WDT counter match comparison value */
 262:main.c        ****     CySysWdtWriteMatch(WDT_COUNTER, WDT_TIMEOUT);
 802              		.loc 1 262 0
 803 0020 094B     		ldr	r3, .L50+4
 804 0022 0120     		mov	r0, #1
 805 0024 191C     		mov	r1, r3
 806 0026 FFF7FEFF 		bl	CySysWdtSetMatch
 263:main.c        ****     /* Reset WDT counter */
 264:main.c        ****     CySysWdtResetCounters(WDT_COUNTER);
 807              		.loc 1 264 0
 808 002a 0120     		mov	r0, #1
 809 002c FFF7FEFF 		bl	CySysWdtResetCounters
 265:main.c        ****     /* Enable the specified WDT counter */
 266:main.c        ****     CySysWdtEnable(WDT_COUNTER_MASK);
 810              		.loc 1 266 0
 811 0030 8023     		mov	r3, #128
 812 0032 5B00     		lsl	r3, r3, #1
 813 0034 181C     		mov	r0, r3
 814 0036 FFF7FEFF 		bl	CySysWdtEnable
 267:main.c        ****     /* Lock out configuration changes to the Watchdog timer registers */
 268:main.c        ****     CySysWdtLock();    
 815              		.loc 1 268 0
 816 003a FFF7FEFF 		bl	CySysWdtLock
 269:main.c        **** }
 817              		.loc 1 269 0
 818 003e BD46     		mov	sp, r7
 819              		@ sp needed
 820 0040 80BD     		pop	{r7, pc}
ARM GAS  C:\Users\akita\AppData\Local\Temp\cc6eU00e.s 			page 22


 821              	.L51:
 822 0042 C046     		.align	2
 823              	.L50:
 824 0044 00000000 		.word	Timer_Interrupt
 825 0048 CC0C0000 		.word	3276
 826              		.cfi_endproc
 827              	.LFE39:
 828              		.size	WDT_Start, .-WDT_Start
 829              		.section	.text.WDT_Stop,"ax",%progbits
 830              		.align	2
 831              		.global	WDT_Stop
 832              		.code	16
 833              		.thumb_func
 834              		.type	WDT_Stop, %function
 835              	WDT_Stop:
 836              	.LFB40:
 270:main.c        **** 
 271:main.c        **** 
 272:main.c        **** /*******************************************************************************
 273:main.c        **** * Function Name: WDT_Stop
 274:main.c        **** ********************************************************************************
 275:main.c        **** *
 276:main.c        **** * Summary:
 277:main.c        **** *  This API stops the WDT timer.
 278:main.c        **** *
 279:main.c        **** *******************************************************************************/
 280:main.c        **** void WDT_Stop(void)
 281:main.c        **** {
 837              		.loc 1 281 0
 838              		.cfi_startproc
 839 0000 80B5     		push	{r7, lr}
 840              		.cfi_def_cfa_offset 8
 841              		.cfi_offset 7, -8
 842              		.cfi_offset 14, -4
 843 0002 00AF     		add	r7, sp, #0
 844              		.cfi_def_cfa_register 7
 282:main.c        ****     /* Unlock the WDT registers for modification */
 283:main.c        ****     CySysWdtUnlock(); 
 845              		.loc 1 283 0
 846 0004 FFF7FEFF 		bl	CySysWdtUnlock
 284:main.c        ****     /* Disable the specified WDT counter */
 285:main.c        ****     CySysWdtDisable(WDT_COUNTER_MASK);
 847              		.loc 1 285 0
 848 0008 8023     		mov	r3, #128
 849 000a 5B00     		lsl	r3, r3, #1
 850 000c 181C     		mov	r0, r3
 851 000e FFF7FEFF 		bl	CySysWdtDisable
 286:main.c        ****     /* Locks out configuration changes to the Watchdog timer registers */
 287:main.c        ****     CySysWdtLock();    
 852              		.loc 1 287 0
 853 0012 FFF7FEFF 		bl	CySysWdtLock
 288:main.c        **** }
 854              		.loc 1 288 0
 855 0016 BD46     		mov	sp, r7
 856              		@ sp needed
 857 0018 80BD     		pop	{r7, pc}
 858              		.cfi_endproc
ARM GAS  C:\Users\akita\AppData\Local\Temp\cc6eU00e.s 			page 23


 859              	.LFE40:
 860              		.size	WDT_Stop, .-WDT_Stop
 861 001a C046     		.section	.text.LowPowerImplementation,"ax",%progbits
 862              		.align	2
 863              		.code	16
 864              		.thumb_func
 865              		.type	LowPowerImplementation, %function
 866              	LowPowerImplementation:
 867              	.LFB41:
 289:main.c        **** 
 290:main.c        **** /*******************************************************************************
 291:main.c        **** * Function Name: LowPowerImplementation()
 292:main.c        **** ********************************************************************************
 293:main.c        **** * Summary:
 294:main.c        **** * Implements low power in the project.
 295:main.c        **** *
 296:main.c        **** * Parameters:
 297:main.c        **** * None
 298:main.c        **** *
 299:main.c        **** * Return:
 300:main.c        **** * None
 301:main.c        **** *
 302:main.c        **** * Theory:
 303:main.c        **** * The function tries to enter deep sleep as much as possible - whenever the 
 304:main.c        **** * BLE is idle and the UART transmission/reception is not happening. At all other
 305:main.c        **** * times, the function tries to enter CPU sleep.
 306:main.c        **** *
 307:main.c        **** *******************************************************************************/
 308:main.c        **** static void LowPowerImplementation(void)
 309:main.c        **** {
 868              		.loc 1 309 0
 869              		.cfi_startproc
 870 0000 90B5     		push	{r4, r7, lr}
 871              		.cfi_def_cfa_offset 12
 872              		.cfi_offset 4, -12
 873              		.cfi_offset 7, -8
 874              		.cfi_offset 14, -4
 875 0002 83B0     		sub	sp, sp, #12
 876              		.cfi_def_cfa_offset 24
 877 0004 00AF     		add	r7, sp, #0
 878              		.cfi_def_cfa_register 7
 310:main.c        ****     CYBLE_LP_MODE_T bleMode;
 311:main.c        ****     uint8 interruptStatus;
 312:main.c        ****     
 313:main.c        ****     /* For advertising and connected states, implement deep sleep 
 314:main.c        ****      * functionality to achieve low power in the system. For more details
 315:main.c        ****      * on the low power implementation, refer to the Low Power Application 
 316:main.c        ****      * Note.
 317:main.c        ****      */
 318:main.c        ****     if((CyBle_GetState() == CYBLE_STATE_ADVERTISING) || 
 879              		.loc 1 318 0
 880 0006 224B     		ldr	r3, .L63
 881 0008 1B78     		ldrb	r3, [r3]
 882 000a 032B     		cmp	r3, #3
 883 000c 03D0     		beq	.L54
 319:main.c        ****        (CyBle_GetState() == CYBLE_STATE_CONNECTED))
 884              		.loc 1 319 0 discriminator 1
ARM GAS  C:\Users\akita\AppData\Local\Temp\cc6eU00e.s 			page 24


 885 000e 204B     		ldr	r3, .L63
 886 0010 1B78     		ldrb	r3, [r3]
 318:main.c        ****        (CyBle_GetState() == CYBLE_STATE_CONNECTED))
 887              		.loc 1 318 0 discriminator 1
 888 0012 022B     		cmp	r3, #2
 889 0014 39D1     		bne	.L53
 890              	.L54:
 320:main.c        ****     {
 321:main.c        ****         /* Request BLE subsystem to enter into Deep-Sleep mode between connection and advertising i
 322:main.c        ****         bleMode = CyBle_EnterLPM(CYBLE_BLESS_DEEPSLEEP);
 891              		.loc 1 322 0
 892 0016 FC1D     		add	r4, r7, #7
 893 0018 0320     		mov	r0, #3
 894 001a FFF7FEFF 		bl	CyBle_EnterLPM
 895 001e 031C     		mov	r3, r0
 896 0020 2370     		strb	r3, [r4]
 323:main.c        ****         /* Disable global interrupts */
 324:main.c        ****         interruptStatus = CyEnterCriticalSection();
 897              		.loc 1 324 0
 898 0022 BC1D     		add	r4, r7, #6
 899 0024 FFF7FEFF 		bl	CyEnterCriticalSection
 900 0028 031C     		mov	r3, r0
 901 002a 2370     		strb	r3, [r4]
 325:main.c        ****         /* When BLE subsystem has been put into Deep-Sleep mode */
 326:main.c        ****         if(bleMode == CYBLE_BLESS_DEEPSLEEP)
 902              		.loc 1 326 0
 903 002c FB1D     		add	r3, r7, #7
 904 002e 1B78     		ldrb	r3, [r3]
 905 0030 032B     		cmp	r3, #3
 906 0032 1ED1     		bne	.L56
 327:main.c        ****         {
 328:main.c        ****             /* And it is still there or ECO is on */
 329:main.c        ****             if((CyBle_GetBleSsState() == CYBLE_BLESS_STATE_ECO_ON) || 
 907              		.loc 1 329 0
 908 0034 FFF7FEFF 		bl	CyBle_GetBleSsState
 909 0038 031E     		sub	r3, r0, #0
 910 003a 042B     		cmp	r3, #4
 911 003c 04D0     		beq	.L57
 330:main.c        ****                (CyBle_GetBleSsState() == CYBLE_BLESS_STATE_DEEPSLEEP))
 912              		.loc 1 330 0 discriminator 1
 913 003e FFF7FEFF 		bl	CyBle_GetBleSsState
 914 0042 031E     		sub	r3, r0, #0
 329:main.c        ****                (CyBle_GetBleSsState() == CYBLE_BLESS_STATE_DEEPSLEEP))
 915              		.loc 1 329 0 discriminator 1
 916 0044 062B     		cmp	r3, #6
 917 0046 1BD1     		bne	.L62
 918              	.L57:
 331:main.c        ****             {
 332:main.c        ****             #if (DEBUG_UART_ENABLED == ENABLED)
 333:main.c        ****                 /* Put the CPU into the Deep-Sleep mode when all debug information has been sent */
 334:main.c        ****                 if((UART_DEB_SpiUartGetTxBufferSize() + UART_DEB_GET_TX_FIFO_SR_VALID) == 0u)
 919              		.loc 1 334 0
 920 0048 FFF7FEFF 		bl	UART_DEB_SpiUartGetTxBufferSize
 921 004c 011C     		mov	r1, r0
 922 004e 114B     		ldr	r3, .L63+4
 923 0050 1A68     		ldr	r2, [r3]
 924 0052 8023     		mov	r3, #128
ARM GAS  C:\Users\akita\AppData\Local\Temp\cc6eU00e.s 			page 25


 925 0054 1B02     		lsl	r3, r3, #8
 926 0056 1340     		and	r3, r2
 927 0058 01D0     		beq	.L59
 928              		.loc 1 334 0 is_stmt 0 discriminator 1
 929 005a 0123     		mov	r3, #1
 930 005c 00E0     		b	.L60
 931              	.L59:
 932              		.loc 1 334 0 discriminator 2
 933 005e 0023     		mov	r3, #0
 934              	.L60:
 935              		.loc 1 334 0 discriminator 4
 936 0060 CB18     		add	r3, r1, r3
 937 0062 002B     		cmp	r3, #0
 938 0064 02D1     		bne	.L61
 335:main.c        ****                 {
 336:main.c        ****                     CySysPmDeepSleep();
 939              		.loc 1 336 0 is_stmt 1
 940 0066 FFF7FEFF 		bl	CySysPmDeepSleep
 941 006a 09E0     		b	.L62
 942              	.L61:
 337:main.c        ****                 }
 338:main.c        ****                 else /* Put the CPU into Sleep mode and let SCB to continue sending debug data */
 339:main.c        ****                 {
 340:main.c        ****                     CySysPmSleep();
 943              		.loc 1 340 0
 944 006c FFF7FEFF 		bl	CySysPmSleep
 945 0070 06E0     		b	.L62
 946              	.L56:
 341:main.c        ****                 }
 342:main.c        ****             #else
 343:main.c        ****                 CySysPmDeepSleep();
 344:main.c        ****             #endif /* (DEBUG_UART_ENABLED == ENABLED) */
 345:main.c        ****             }
 346:main.c        ****         }
 347:main.c        ****         else /* When BLE subsystem has been put into Sleep mode or is active */
 348:main.c        ****         {
 349:main.c        ****             /* And hardware doesn't finish Tx/Rx opeation - put the CPU into Sleep mode */
 350:main.c        ****             if(CyBle_GetBleSsState() != CYBLE_BLESS_STATE_EVENT_CLOSE)
 947              		.loc 1 350 0
 948 0072 FFF7FEFF 		bl	CyBle_GetBleSsState
 949 0076 031E     		sub	r3, r0, #0
 950 0078 022B     		cmp	r3, #2
 951 007a 01D0     		beq	.L62
 351:main.c        ****             {
 352:main.c        ****                 CySysPmSleep();
 952              		.loc 1 352 0
 953 007c FFF7FEFF 		bl	CySysPmSleep
 954              	.L62:
 353:main.c        ****             }
 354:main.c        ****         }
 355:main.c        ****         /* Enable global interrupt */
 356:main.c        ****         CyExitCriticalSection(interruptStatus);
 955              		.loc 1 356 0
 956 0080 BB1D     		add	r3, r7, #6
 957 0082 1B78     		ldrb	r3, [r3]
 958 0084 181C     		mov	r0, r3
 959 0086 FFF7FEFF 		bl	CyExitCriticalSection
ARM GAS  C:\Users\akita\AppData\Local\Temp\cc6eU00e.s 			page 26


 960              	.L53:
 357:main.c        ****     }
 358:main.c        **** }
 961              		.loc 1 358 0
 962 008a BD46     		mov	sp, r7
 963 008c 03B0     		add	sp, sp, #12
 964              		@ sp needed
 965 008e 90BD     		pop	{r4, r7, pc}
 966              	.L64:
 967              		.align	2
 968              	.L63:
 969 0090 00000000 		.word	cyBle_state
 970 0094 08022540 		.word	1076167176
 971              		.cfi_endproc
 972              	.LFE41:
 973              		.size	LowPowerImplementation, .-LowPowerImplementation
 974              		.section	.rodata
 975              		.align	2
 976              	.LC60:
 977 03c4 424C4520 		.ascii	"BLE HID Keyboard Example Project \015\000"
 977      48494420 
 977      4B657962 
 977      6F617264 
 977      20457861 
 978 03e7 00       		.align	2
 979              	.LC68:
 980 03e8 53746F72 		.ascii	"Store bonding data, status: %x \015\012\000"
 980      6520626F 
 980      6E64696E 
 980      67206461 
 980      74612C20 
 981 040a 0000     		.section	.text.main,"ax",%progbits
 982              		.align	2
 983              		.global	main
 984              		.code	16
 985              		.thumb_func
 986              		.type	main, %function
 987              	main:
 988              	.LFB42:
 359:main.c        **** 
 360:main.c        **** 
 361:main.c        **** /*******************************************************************************
 362:main.c        **** * Function Name: main()
 363:main.c        **** ********************************************************************************
 364:main.c        **** * Summary:
 365:main.c        **** *  Main function for the project.
 366:main.c        **** *
 367:main.c        **** * Parameters:
 368:main.c        **** *  None
 369:main.c        **** *
 370:main.c        **** * Return:
 371:main.c        **** *  None
 372:main.c        **** *
 373:main.c        **** * Theory:
 374:main.c        **** *  The function starts BLE and UART components.
 375:main.c        **** *  This function process all BLE events and also implements the low power 
 376:main.c        **** *  functionality.
ARM GAS  C:\Users\akita\AppData\Local\Temp\cc6eU00e.s 			page 27


 377:main.c        **** *
 378:main.c        **** *******************************************************************************/int main()
 379:main.c        **** {
 989              		.loc 1 379 0
 990              		.cfi_startproc
 991 0000 90B5     		push	{r4, r7, lr}
 992              		.cfi_def_cfa_offset 12
 993              		.cfi_offset 4, -12
 994              		.cfi_offset 7, -8
 995              		.cfi_offset 14, -4
 996 0002 83B0     		sub	sp, sp, #12
 997              		.cfi_def_cfa_offset 24
 998 0004 00AF     		add	r7, sp, #0
 999              		.cfi_def_cfa_register 7
 380:main.c        ****     CyGlobalIntEnable;  
 1000              		.loc 1 380 0
 1001              	@ 380 "main.c" 1
 1002 0006 62B6     		CPSIE   i
 1003              	@ 0 "" 2
 381:main.c        **** 
 382:main.c        **** #if (DEBUG_UART_ENABLED == ENABLED)
 383:main.c        ****     UART_DEB_Start();
 1004              		.loc 1 383 0
 1005              		.code	16
 1006 0008 FFF7FEFF 		bl	UART_DEB_Start
 384:main.c        **** #endif /* (DEBUG_UART_ENABLED == ENABLED) */
 385:main.c        ****     DBG_PRINTF("BLE HID Keyboard Example Project \r\n");
 1007              		.loc 1 385 0
 1008 000c 284B     		ldr	r3, .L71
 1009 000e 181C     		mov	r0, r3
 1010 0010 FFF7FEFF 		bl	puts
 386:main.c        **** 
 387:main.c        ****     Disconnect_LED_Write(LED_OFF);
 1011              		.loc 1 387 0
 1012 0014 0120     		mov	r0, #1
 1013 0016 FFF7FEFF 		bl	Disconnect_LED_Write
 388:main.c        ****     Advertising_LED_Write(LED_OFF);
 1014              		.loc 1 388 0
 1015 001a 0120     		mov	r0, #1
 1016 001c FFF7FEFF 		bl	Advertising_LED_Write
 389:main.c        ****     CapsLock_LED_Write(LED_OFF);
 1017              		.loc 1 389 0
 1018 0020 0120     		mov	r0, #1
 1019 0022 FFF7FEFF 		bl	CapsLock_LED_Write
 390:main.c        **** 
 391:main.c        ****     /* Start CYBLE component and register generic event handler */
 392:main.c        ****     CyBle_Start(AppCallBack);
 1020              		.loc 1 392 0
 1021 0026 234B     		ldr	r3, .L71+4
 1022 0028 181C     		mov	r0, r3
 1023 002a FFF7FEFF 		bl	CyBle_Start
 393:main.c        ****     WDT_Start();
 1024              		.loc 1 393 0
 1025 002e FFF7FEFF 		bl	WDT_Start
 1026              	.L70:
 394:main.c        **** 
 395:main.c        **** #if (BAS_MEASURE_ENABLE != 0)
ARM GAS  C:\Users\akita\AppData\Local\Temp\cc6eU00e.s 			page 28


 396:main.c        ****     ADC_Start();
 397:main.c        **** #endif /* BAS_MEASURE_ENABLE != 0 */
 398:main.c        **** 
 399:main.c        ****     while(1) 
 400:main.c        ****     {           
 401:main.c        ****         /* CyBle_ProcessEvents() allows BLE stack to process pending events */
 402:main.c        ****         CyBle_ProcessEvents();
 1027              		.loc 1 402 0
 1028 0032 FFF7FEFF 		bl	CyBle_ProcessEvents
 403:main.c        **** 
 404:main.c        ****         /* To achieve low power in the device */
 405:main.c        ****         LowPowerImplementation();
 1029              		.loc 1 405 0
 1030 0036 FFF7FEFF 		bl	LowPowerImplementation
 406:main.c        **** 
 407:main.c        ****         if((CyBle_GetState() == CYBLE_STATE_CONNECTED) && (suspend != CYBLE_HIDS_CP_SUSPEND))
 1031              		.loc 1 407 0
 1032 003a 1F4B     		ldr	r3, .L71+8
 1033 003c 1B78     		ldrb	r3, [r3]
 1034 003e 022B     		cmp	r3, #2
 1035 0040 34D1     		bne	.L66
 1036              		.loc 1 407 0 is_stmt 0 discriminator 1
 1037 0042 1E4B     		ldr	r3, .L71+12
 1038 0044 1B78     		ldrb	r3, [r3]
 1039 0046 002B     		cmp	r3, #0
 1040 0048 30D0     		beq	.L66
 408:main.c        ****         {
 409:main.c        ****             if(mainTimer != 0u)
 1041              		.loc 1 409 0 is_stmt 1
 1042 004a 1D4B     		ldr	r3, .L71+16
 1043 004c 1B68     		ldr	r3, [r3]
 1044 004e 002B     		cmp	r3, #0
 1045 0050 0CD0     		beq	.L67
 410:main.c        ****             {
 411:main.c        ****                 mainTimer = 0u;                
 1046              		.loc 1 411 0
 1047 0052 1B4B     		ldr	r3, .L71+16
 1048 0054 0022     		mov	r2, #0
 1049 0056 1A60     		str	r2, [r3]
 412:main.c        ****             #if (BAS_SIMULATE_ENABLE != 0)
 413:main.c        ****                 SimulateBattery();
 1050              		.loc 1 413 0
 1051 0058 FFF7FEFF 		bl	SimulateBattery
 414:main.c        ****                 CyBle_ProcessEvents();
 1052              		.loc 1 414 0
 1053 005c FFF7FEFF 		bl	CyBle_ProcessEvents
 415:main.c        ****             #endif /* BAS_SIMULATE_ENABLE != 0 */    
 416:main.c        ****             #if (BAS_MEASURE_ENABLE != 0)
 417:main.c        ****                 MeasureBattery();
 418:main.c        ****                 CyBle_ProcessEvents();
 419:main.c        ****             #endif /* BAS_MEASURE_ENABLE != 0 */
 420:main.c        ****                 if(keyboardSimulation == ENABLED)
 1054              		.loc 1 420 0
 1055 0060 184B     		ldr	r3, .L71+20
 1056 0062 1B88     		ldrh	r3, [r3]
 1057 0064 012B     		cmp	r3, #1
 1058 0066 01D1     		bne	.L67
ARM GAS  C:\Users\akita\AppData\Local\Temp\cc6eU00e.s 			page 29


 421:main.c        ****                 {
 422:main.c        ****                     SimulateKeyboard();
 1059              		.loc 1 422 0
 1060 0068 FFF7FEFF 		bl	SimulateKeyboard
 1061              	.L67:
 423:main.c        ****                     
 424:main.c        ****                 }
 425:main.c        ****             }
 426:main.c        ****             /* Store bonding data to flash only when all debug information has been sent */
 427:main.c        ****         #if(CYBLE_BONDING_REQUIREMENT == CYBLE_BONDING_YES)
 428:main.c        ****         #if (DEBUG_UART_ENABLED == ENABLED)
 429:main.c        ****             if((cyBle_pendingFlashWrite != 0u) &&
 1062              		.loc 1 429 0
 1063 006c 164B     		ldr	r3, .L71+24
 1064 006e 1B78     		ldrb	r3, [r3]
 1065 0070 002B     		cmp	r3, #0
 1066 0072 1BD0     		beq	.L66
 430:main.c        ****                ((UART_DEB_SpiUartGetTxBufferSize() + UART_DEB_GET_TX_FIFO_SR_VALID) == 0u))
 1067              		.loc 1 430 0
 1068 0074 FFF7FEFF 		bl	UART_DEB_SpiUartGetTxBufferSize
 1069 0078 011C     		mov	r1, r0
 1070 007a 144B     		ldr	r3, .L71+28
 1071 007c 1A68     		ldr	r2, [r3]
 1072 007e 8023     		mov	r3, #128
 1073 0080 1B02     		lsl	r3, r3, #8
 1074 0082 1340     		and	r3, r2
 1075 0084 01D0     		beq	.L68
 1076              		.loc 1 430 0 is_stmt 0 discriminator 1
 1077 0086 0123     		mov	r3, #1
 1078 0088 00E0     		b	.L69
 1079              	.L68:
 1080              		.loc 1 430 0 discriminator 2
 1081 008a 0023     		mov	r3, #0
 1082              	.L69:
 1083              		.loc 1 430 0 discriminator 4
 1084 008c CB18     		add	r3, r1, r3
 429:main.c        ****                ((UART_DEB_SpiUartGetTxBufferSize() + UART_DEB_GET_TX_FIFO_SR_VALID) == 0u))
 1085              		.loc 1 429 0 is_stmt 1 discriminator 4
 1086 008e 002B     		cmp	r3, #0
 1087 0090 0CD1     		bne	.L66
 1088              	.LBB4:
 431:main.c        ****             
 432:main.c        ****         #else
 433:main.c        ****             if(cyBle_pendingFlashWrite != 0u)
 434:main.c        ****         #endif /* (DEBUG_UART_ENABLED == ENABLED) */
 435:main.c        ****             {
 436:main.c        ****                 CYBLE_API_RESULT_T apiResult;
 437:main.c        ****                 
 438:main.c        ****                 apiResult = CyBle_StoreBondingData(0u);
 1089              		.loc 1 438 0
 1090 0092 BC1D     		add	r4, r7, #6
 1091 0094 0020     		mov	r0, #0
 1092 0096 FFF7FEFF 		bl	CyBle_StoreBondingData
 1093 009a 031C     		mov	r3, r0
 1094 009c 2380     		strh	r3, [r4]
 439:main.c        ****                 (void)apiResult;
 440:main.c        ****                 DBG_PRINTF("Store bonding data, status: %x \r\n", apiResult);
ARM GAS  C:\Users\akita\AppData\Local\Temp\cc6eU00e.s 			page 30


 1095              		.loc 1 440 0
 1096 009e BB1D     		add	r3, r7, #6
 1097 00a0 1B88     		ldrh	r3, [r3]
 1098 00a2 0B4A     		ldr	r2, .L71+32
 1099 00a4 101C     		mov	r0, r2
 1100 00a6 191C     		mov	r1, r3
 1101 00a8 FFF7FEFF 		bl	printf
 1102              	.L66:
 1103              	.LBE4:
 441:main.c        ****             }
 442:main.c        ****         #endif /* CYBLE_BONDING_REQUIREMENT == CYBLE_BONDING_YES */    
 443:main.c        ****         }
 444:main.c        **** 	}   
 1104              		.loc 1 444 0
 1105 00ac C1E7     		b	.L70
 1106              	.L72:
 1107 00ae C046     		.align	2
 1108              	.L71:
 1109 00b0 C4030000 		.word	.LC60
 1110 00b4 00000000 		.word	AppCallBack
 1111 00b8 00000000 		.word	cyBle_state
 1112 00bc 00000000 		.word	suspend
 1113 00c0 00000000 		.word	mainTimer
 1114 00c4 00000000 		.word	keyboardSimulation
 1115 00c8 00000000 		.word	cyBle_pendingFlashWrite
 1116 00cc 08022540 		.word	1076167176
 1117 00d0 E8030000 		.word	.LC68
 1118              		.cfi_endproc
 1119              	.LFE42:
 1120              		.size	main, .-main
 1121              		.data
 1122              		.align	2
 1123              		.type	ledTimer.8347, %object
 1124              		.size	ledTimer.8347, 4
 1125              	ledTimer.8347:
 1126 0000 0A000000 		.word	10
 1127              		.type	led.8346, %object
 1128              		.size	led.8346, 1
 1129              	led.8346:
 1130 0004 01       		.byte	1
 1131 0005 000000   		.text
 1132              	.Letext0:
 1133              		.file 2 "Generated_Source\\PSoC4/cytypes.h"
 1134              		.file 3 "Generated_Source\\PSoC4/BLE_Stack.h"
 1135              		.file 4 "Generated_Source\\PSoC4/BLE_StackGap.h"
 1136              		.file 5 "Generated_Source\\PSoC4/BLE_StackGatt.h"
 1137              		.file 6 "Generated_Source\\PSoC4/BLE_StackGattServer.h"
 1138              		.file 7 "Generated_Source\\PSoC4/BLE_dis.h"
 1139              		.file 8 "Generated_Source\\PSoC4/BLE_eventHandler.h"
 1140              		.file 9 "Generated_Source\\PSoC4/BLE.h"
 1141              		.file 10 "hids.h"