ARM GAS  C:\Users\akita\AppData\Local\Temp\ccJVFU8d.s 			page 1


   1              		.cpu cortex-m0
   2              		.fpu softvfp
   3              		.eabi_attribute 20, 1
   4              		.eabi_attribute 21, 1
   5              		.eabi_attribute 23, 3
   6              		.eabi_attribute 24, 1
   7              		.eabi_attribute 25, 1
   8              		.eabi_attribute 26, 1
   9              		.eabi_attribute 30, 6
  10              		.eabi_attribute 34, 0
  11              		.eabi_attribute 18, 4
  12              		.code	16
  13              		.file	"scps.c"
  14              		.text
  15              	.Ltext0:
  16              		.cfi_sections	.debug_frame
  17              		.global	requestScanRefresh
  18              		.bss
  19              		.align	1
  20              		.type	requestScanRefresh, %object
  21              		.size	requestScanRefresh, 2
  22              	requestScanRefresh:
  23 0000 0000     		.space	2
  24              		.global	scanInterval
  25              		.align	1
  26              		.type	scanInterval, %object
  27              		.size	scanInterval, 2
  28              	scanInterval:
  29 0002 0000     		.space	2
  30              		.global	scanWindow
  31              		.align	1
  32              		.type	scanWindow, %object
  33              		.size	scanWindow, 2
  34              	scanWindow:
  35 0004 0000     		.space	2
  36              		.section	.rodata
  37              		.align	2
  38              	.LC0:
  39 0000 53435053 		.ascii	"SCPS event: %lx, \000"
  39      20657665 
  39      6E743A20 
  39      256C782C 
  39      2000
  40 0012 0000     		.align	2
  41              	.LC3:
  42 0014 4359424C 		.ascii	"CYBLE_EVT_SCPSS_NOTIFICATION_ENABLED \015\000"
  42      455F4556 
  42      545F5343 
  42      5053535F 
  42      4E4F5449 
  43 003b 00       		.align	2
  44              	.LC6:
  45 003c 4359424C 		.ascii	"CYBLE_EVT_SCPSS_NOTIFICATION_DISABLED \015\000"
  45      455F4556 
  45      545F5343 
  45      5053535F 
  45      4E4F5449 
ARM GAS  C:\Users\akita\AppData\Local\Temp\ccJVFU8d.s 			page 2


  46              		.align	2
  47              	.LC10:
  48 0064 4359424C 		.ascii	"CYBLE_EVT_SCPSS_SCAN_INT_WIN_CHAR_WRITE scanInterva"
  48      455F4556 
  48      545F5343 
  48      5053535F 
  48      5343414E 
  49 0097 6C3A2025 		.ascii	"l: %x, scanWindow: %x \015\012\000"
  49      782C2073 
  49      63616E57 
  49      696E646F 
  49      773A2025 
  50              		.align	2
  51              	.LC12:
  52 00b0 4E6F7420 		.ascii	"Not supported event\015\000"
  52      73757070 
  52      6F727465 
  52      64206576 
  52      656E740D 
  53              		.section	.text.ScpsCallBack,"ax",%progbits
  54              		.align	2
  55              		.global	ScpsCallBack
  56              		.code	16
  57              		.thumb_func
  58              		.type	ScpsCallBack, %function
  59              	ScpsCallBack:
  60              	.LFB37:
  61              		.file 1 "scps.c"
   1:scps.c        **** /*******************************************************************************
   2:scps.c        **** * File Name: scps.c
   3:scps.c        **** *
   4:scps.c        **** * Version: 1.0
   5:scps.c        **** *
   6:scps.c        **** * Description:
   7:scps.c        **** *  This file contains SCPS callback handler function.
   8:scps.c        **** *
   9:scps.c        **** * Hardware Dependency:
  10:scps.c        **** *  CY8CKIT-042 BLE
  11:scps.c        **** * 
  12:scps.c        **** ********************************************************************************
  13:scps.c        **** * Copyright 2015, Cypress Semiconductor Corporation.  All rights reserved.
  14:scps.c        **** * You may use this file only in accordance with the license, terms, conditions,
  15:scps.c        **** * disclaimers, and limitations in the end user license agreement accompanying
  16:scps.c        **** * the software package with which this file was provided.
  17:scps.c        **** *******************************************************************************/
  18:scps.c        **** 
  19:scps.c        **** #include "common.h"
  20:scps.c        **** #include "scps.h"
  21:scps.c        **** 
  22:scps.c        **** uint16 requestScanRefresh = 0u;
  23:scps.c        **** uint16 scanInterval = 0u;
  24:scps.c        **** uint16 scanWindow = 0u;
  25:scps.c        **** 
  26:scps.c        **** 
  27:scps.c        **** /*******************************************************************************
  28:scps.c        **** * Function Name: ScpsCallBack()
  29:scps.c        **** ********************************************************************************
ARM GAS  C:\Users\akita\AppData\Local\Temp\ccJVFU8d.s 			page 3


  30:scps.c        **** *
  31:scps.c        **** * Summary:
  32:scps.c        **** *   This is an event callback function to receive service specific events from 
  33:scps.c        **** *   SCPS Service.
  34:scps.c        **** *
  35:scps.c        **** * Parameters:
  36:scps.c        **** *  event - the event code
  37:scps.c        **** *  *eventParam - the event parameters
  38:scps.c        **** *
  39:scps.c        **** * Return:
  40:scps.c        **** *  None.
  41:scps.c        **** *
  42:scps.c        **** ********************************************************************************/
  43:scps.c        **** void ScpsCallBack (uint32 event, void *eventParam)
  44:scps.c        **** {
  62              		.loc 1 44 0
  63              		.cfi_startproc
  64 0000 80B5     		push	{r7, lr}
  65              		.cfi_def_cfa_offset 8
  66              		.cfi_offset 7, -8
  67              		.cfi_offset 14, -4
  68 0002 82B0     		sub	sp, sp, #8
  69              		.cfi_def_cfa_offset 16
  70 0004 00AF     		add	r7, sp, #0
  71              		.cfi_def_cfa_register 7
  72 0006 7860     		str	r0, [r7, #4]
  73 0008 3960     		str	r1, [r7]
  45:scps.c        ****     DBG_PRINTF("SCPS event: %lx, ", event);
  74              		.loc 1 45 0
  75 000a 254A     		ldr	r2, .L12
  76 000c 7B68     		ldr	r3, [r7, #4]
  77 000e 101C     		mov	r0, r2
  78 0010 191C     		mov	r1, r3
  79 0012 FFF7FEFF 		bl	printf
  46:scps.c        ****     switch(event)
  80              		.loc 1 46 0
  81 0016 7B68     		ldr	r3, [r7, #4]
  82 0018 E93B     		sub	r3, r3, #233
  83 001a FF3B     		sub	r3, r3, #255
  84 001c 052B     		cmp	r3, #5
  85 001e 34D8     		bhi	.L2
  86 0020 9A00     		lsl	r2, r3, #2
  87 0022 204B     		ldr	r3, .L12+4
  88 0024 D318     		add	r3, r2, r3
  89 0026 1B68     		ldr	r3, [r3]
  90 0028 9F46     		mov	pc, r3
  91              		.section	.rodata
  92 00c5 000000   		.align	2
  93              	.L4:
  94 00c8 2A000000 		.word	.L3
  95 00cc 3A000000 		.word	.L5
  96 00d0 4A000000 		.word	.L6
  97 00d4 96000000 		.word	.L11
  98 00d8 96000000 		.word	.L11
  99 00dc 96000000 		.word	.L11
 100              		.section	.text.ScpsCallBack
 101              	.L3:
ARM GAS  C:\Users\akita\AppData\Local\Temp\ccJVFU8d.s 			page 4


  47:scps.c        ****     {
  48:scps.c        ****         case CYBLE_EVT_SCPSS_NOTIFICATION_ENABLED:
  49:scps.c        ****             DBG_PRINTF("CYBLE_EVT_SCPSS_NOTIFICATION_ENABLED \r\n");
 102              		.loc 1 49 0
 103 002a 1F4B     		ldr	r3, .L12+8
 104 002c 181C     		mov	r0, r3
 105 002e FFF7FEFF 		bl	puts
  50:scps.c        ****             requestScanRefresh = ENABLED;
 106              		.loc 1 50 0
 107 0032 1E4B     		ldr	r3, .L12+12
 108 0034 0122     		mov	r2, #1
 109 0036 1A80     		strh	r2, [r3]
  51:scps.c        ****             break;
 110              		.loc 1 51 0
 111 0038 2EE0     		b	.L1
 112              	.L5:
  52:scps.c        ****         case CYBLE_EVT_SCPSS_NOTIFICATION_DISABLED:
  53:scps.c        ****             DBG_PRINTF("CYBLE_EVT_SCPSS_NOTIFICATION_DISABLED \r\n");
 113              		.loc 1 53 0
 114 003a 1D4B     		ldr	r3, .L12+16
 115 003c 181C     		mov	r0, r3
 116 003e FFF7FEFF 		bl	puts
  54:scps.c        ****             requestScanRefresh = DISABLED;
 117              		.loc 1 54 0
 118 0042 1A4B     		ldr	r3, .L12+12
 119 0044 0022     		mov	r2, #0
 120 0046 1A80     		strh	r2, [r3]
  55:scps.c        ****             break;
 121              		.loc 1 55 0
 122 0048 26E0     		b	.L1
 123              	.L6:
  56:scps.c        ****         case CYBLE_EVT_SCPSS_SCAN_INT_WIN_CHAR_WRITE:
  57:scps.c        ****             scanInterval = CyBle_Get16ByPtr(((CYBLE_SCPS_CHAR_VALUE_T *)eventParam)->value->val);
 124              		.loc 1 57 0
 125 004a 3B68     		ldr	r3, [r7]
 126 004c 5B68     		ldr	r3, [r3, #4]
 127 004e 1B68     		ldr	r3, [r3]
 128 0050 181C     		mov	r0, r3
 129 0052 FFF7FEFF 		bl	CyBle_Get16ByPtr
 130 0056 031C     		mov	r3, r0
 131 0058 1A1C     		mov	r2, r3
 132 005a 164B     		ldr	r3, .L12+20
 133 005c 1A80     		strh	r2, [r3]
  58:scps.c        ****             scanWindow = CyBle_Get16ByPtr(((CYBLE_SCPS_CHAR_VALUE_T *)eventParam)->value->val + siz
 134              		.loc 1 58 0
 135 005e 3B68     		ldr	r3, [r7]
 136 0060 5B68     		ldr	r3, [r3, #4]
 137 0062 1B68     		ldr	r3, [r3]
 138 0064 0233     		add	r3, r3, #2
 139 0066 181C     		mov	r0, r3
 140 0068 FFF7FEFF 		bl	CyBle_Get16ByPtr
 141 006c 031C     		mov	r3, r0
 142 006e 1A1C     		mov	r2, r3
 143 0070 114B     		ldr	r3, .L12+24
 144 0072 1A80     		strh	r2, [r3]
  59:scps.c        ****             DBG_PRINTF("CYBLE_EVT_SCPSS_SCAN_INT_WIN_CHAR_WRITE scanInterval: %x, scanWindow: %x \r
 145              		.loc 1 59 0
ARM GAS  C:\Users\akita\AppData\Local\Temp\ccJVFU8d.s 			page 5


 146 0074 0F4B     		ldr	r3, .L12+20
 147 0076 1B88     		ldrh	r3, [r3]
 148 0078 191C     		mov	r1, r3
 149 007a 0F4B     		ldr	r3, .L12+24
 150 007c 1B88     		ldrh	r3, [r3]
 151 007e 1A1C     		mov	r2, r3
 152 0080 0E4B     		ldr	r3, .L12+28
 153 0082 181C     		mov	r0, r3
 154 0084 FFF7FEFF 		bl	printf
  60:scps.c        ****             break;
 155              		.loc 1 60 0
 156 0088 06E0     		b	.L1
 157              	.L2:
  61:scps.c        ****         case CYBLE_EVT_SCPSC_NOTIFICATION:
  62:scps.c        ****             break;
  63:scps.c        ****         case CYBLE_EVT_SCPSC_READ_DESCR_RESPONSE:
  64:scps.c        ****             break;
  65:scps.c        ****         case CYBLE_EVT_SCPSC_WRITE_DESCR_RESPONSE:
  66:scps.c        ****             break;
  67:scps.c        ****         default:
  68:scps.c        ****             DBG_PRINTF("Not supported event\r\n");
 158              		.loc 1 68 0
 159 008a 0D4B     		ldr	r3, .L12+32
 160 008c 181C     		mov	r0, r3
 161 008e FFF7FEFF 		bl	puts
  69:scps.c        **** 			break;
 162              		.loc 1 69 0
 163 0092 C046     		mov	r8, r8
 164 0094 00E0     		b	.L1
 165              	.L11:
  66:scps.c        ****         default:
 166              		.loc 1 66 0
 167 0096 C046     		mov	r8, r8
 168              	.L1:
  70:scps.c        ****     }
  71:scps.c        **** }
 169              		.loc 1 71 0
 170 0098 BD46     		mov	sp, r7
 171 009a 02B0     		add	sp, sp, #8
 172              		@ sp needed
 173 009c 80BD     		pop	{r7, pc}
 174              	.L13:
 175 009e C046     		.align	2
 176              	.L12:
 177 00a0 00000000 		.word	.LC0
 178 00a4 C8000000 		.word	.L4
 179 00a8 14000000 		.word	.LC3
 180 00ac 00000000 		.word	requestScanRefresh
 181 00b0 3C000000 		.word	.LC6
 182 00b4 00000000 		.word	scanInterval
 183 00b8 00000000 		.word	scanWindow
 184 00bc 64000000 		.word	.LC10
 185 00c0 B0000000 		.word	.LC12
 186              		.cfi_endproc
 187              	.LFE37:
 188              		.size	ScpsCallBack, .-ScpsCallBack
 189              		.section	.text.ScpsInit,"ax",%progbits
ARM GAS  C:\Users\akita\AppData\Local\Temp\ccJVFU8d.s 			page 6


 190              		.align	2
 191              		.global	ScpsInit
 192              		.code	16
 193              		.thumb_func
 194              		.type	ScpsInit, %function
 195              	ScpsInit:
 196              	.LFB38:
  72:scps.c        **** 
  73:scps.c        **** 
  74:scps.c        **** /*******************************************************************************
  75:scps.c        **** * Function Name: ScpsInit()
  76:scps.c        **** ********************************************************************************
  77:scps.c        **** *
  78:scps.c        **** * Summary:
  79:scps.c        **** *   Initializes the SCPS Service.
  80:scps.c        **** *
  81:scps.c        **** *******************************************************************************/
  82:scps.c        **** void ScpsInit(void)
  83:scps.c        **** {
 197              		.loc 1 83 0
 198              		.cfi_startproc
 199 0000 90B5     		push	{r4, r7, lr}
 200              		.cfi_def_cfa_offset 12
 201              		.cfi_offset 4, -12
 202              		.cfi_offset 7, -8
 203              		.cfi_offset 14, -4
 204 0002 83B0     		sub	sp, sp, #12
 205              		.cfi_def_cfa_offset 24
 206 0004 00AF     		add	r7, sp, #0
 207              		.cfi_def_cfa_register 7
  84:scps.c        ****     CYBLE_API_RESULT_T apiResult;
  85:scps.c        ****     uint16 cccdValue;
  86:scps.c        ****     
  87:scps.c        ****     /* Register service specific callback function */
  88:scps.c        ****     CyBle_ScpsRegisterAttrCallback(ScpsCallBack);
 208              		.loc 1 88 0
 209 0006 0F4B     		ldr	r3, .L16
 210 0008 181C     		mov	r0, r3
 211 000a FFF7FEFF 		bl	CyBle_ScpsRegisterAttrCallback
  89:scps.c        **** 
  90:scps.c        ****     /* Read CCCD configurations from flash */
  91:scps.c        ****     apiResult = CyBle_ScpssGetCharacteristicDescriptor(CYBLE_SCPS_SCAN_REFRESH,
 212              		.loc 1 91 0
 213 000e BC1D     		add	r4, r7, #6
 214 0010 3B1D     		add	r3, r7, #4
 215 0012 0120     		mov	r0, #1
 216 0014 0021     		mov	r1, #0
 217 0016 0222     		mov	r2, #2
 218 0018 FFF7FEFF 		bl	CyBle_ScpssGetCharacteristicDescriptor
 219 001c 031C     		mov	r3, r0
 220 001e 2380     		strh	r3, [r4]
  92:scps.c        ****         CYBLE_SCPS_SCAN_REFRESH_CCCD, CYBLE_CCCD_LEN, (uint8 *)&cccdValue);
  93:scps.c        ****     if((apiResult == CYBLE_ERROR_OK) && (cccdValue != 0u))
 221              		.loc 1 93 0
 222 0020 BB1D     		add	r3, r7, #6
 223 0022 1B88     		ldrh	r3, [r3]
 224 0024 002B     		cmp	r3, #0
ARM GAS  C:\Users\akita\AppData\Local\Temp\ccJVFU8d.s 			page 7


 225 0026 0AD1     		bne	.L14
 226              		.loc 1 93 0 is_stmt 0 discriminator 1
 227 0028 3B1D     		add	r3, r7, #4
 228 002a 1B88     		ldrh	r3, [r3]
 229 002c 002B     		cmp	r3, #0
 230 002e 06D0     		beq	.L14
  94:scps.c        ****     {
  95:scps.c        ****         requestScanRefresh |= ENABLED;
 231              		.loc 1 95 0 is_stmt 1
 232 0030 054B     		ldr	r3, .L16+4
 233 0032 1B88     		ldrh	r3, [r3]
 234 0034 0122     		mov	r2, #1
 235 0036 1343     		orr	r3, r2
 236 0038 9AB2     		uxth	r2, r3
 237 003a 034B     		ldr	r3, .L16+4
 238 003c 1A80     		strh	r2, [r3]
 239              	.L14:
  96:scps.c        ****     }
  97:scps.c        **** }
 240              		.loc 1 97 0
 241 003e BD46     		mov	sp, r7
 242 0040 03B0     		add	sp, sp, #12
 243              		@ sp needed
 244 0042 90BD     		pop	{r4, r7, pc}
 245              	.L17:
 246              		.align	2
 247              	.L16:
 248 0044 00000000 		.word	ScpsCallBack
 249 0048 00000000 		.word	requestScanRefresh
 250              		.cfi_endproc
 251              	.LFE38:
 252              		.size	ScpsInit, .-ScpsInit
 253              		.text
 254              	.Letext0:
 255              		.file 2 "Generated_Source\\PSoC4/cytypes.h"
 256              		.file 3 "Generated_Source\\PSoC4/BLE_Stack.h"
 257              		.file 4 "Generated_Source\\PSoC4/BLE_StackGatt.h"
 258              		.file 5 "Generated_Source\\PSoC4/BLE_dis.h"
 259              		.file 6 "Generated_Source\\PSoC4/BLE_scps.h"
 260              		.file 7 "Generated_Source\\PSoC4/BLE_eventHandler.h"