ARM GAS  C:\Users\akita\AppData\Local\Temp\ccU9hFBZ.s 			page 1


   1              		.cpu cortex-m0
   2              		.fpu softvfp
   3              		.eabi_attribute 20, 1
   4              		.eabi_attribute 21, 1
   5              		.eabi_attribute 23, 3
   6              		.eabi_attribute 24, 1
   7              		.eabi_attribute 25, 1
   8              		.eabi_attribute 26, 1
   9              		.eabi_attribute 30, 6
  10              		.eabi_attribute 34, 0
  11              		.eabi_attribute 18, 4
  12              		.code	16
  13              		.file	"Wakeup_Interrupt.c"
  14              		.text
  15              	.Ltext0:
  16              		.cfi_sections	.debug_frame
  17              		.section	.text.Wakeup_Interrupt_Start,"ax",%progbits
  18              		.align	2
  19              		.global	Wakeup_Interrupt_Start
  20              		.code	16
  21              		.thumb_func
  22              		.type	Wakeup_Interrupt_Start, %function
  23              	Wakeup_Interrupt_Start:
  24              	.LFB2:
  25              		.file 1 "Generated_Source\\PSoC4\\Wakeup_Interrupt.c"
   1:Generated_Source\PSoC4/Wakeup_Interrupt.c **** /*******************************************************************************
   2:Generated_Source\PSoC4/Wakeup_Interrupt.c **** * File Name: Wakeup_Interrupt.c  
   3:Generated_Source\PSoC4/Wakeup_Interrupt.c **** * Version 1.70
   4:Generated_Source\PSoC4/Wakeup_Interrupt.c **** *
   5:Generated_Source\PSoC4/Wakeup_Interrupt.c **** *  Description:
   6:Generated_Source\PSoC4/Wakeup_Interrupt.c **** *   API for controlling the state of an interrupt.
   7:Generated_Source\PSoC4/Wakeup_Interrupt.c **** *
   8:Generated_Source\PSoC4/Wakeup_Interrupt.c **** *
   9:Generated_Source\PSoC4/Wakeup_Interrupt.c **** *  Note:
  10:Generated_Source\PSoC4/Wakeup_Interrupt.c **** *
  11:Generated_Source\PSoC4/Wakeup_Interrupt.c **** ********************************************************************************
  12:Generated_Source\PSoC4/Wakeup_Interrupt.c **** * Copyright 2008-2015, Cypress Semiconductor Corporation.  All rights reserved.
  13:Generated_Source\PSoC4/Wakeup_Interrupt.c **** * You may use this file only in accordance with the license, terms, conditions, 
  14:Generated_Source\PSoC4/Wakeup_Interrupt.c **** * disclaimers, and limitations in the end user license agreement accompanying 
  15:Generated_Source\PSoC4/Wakeup_Interrupt.c **** * the software package with which this file was provided.
  16:Generated_Source\PSoC4/Wakeup_Interrupt.c **** *******************************************************************************/
  17:Generated_Source\PSoC4/Wakeup_Interrupt.c **** 
  18:Generated_Source\PSoC4/Wakeup_Interrupt.c **** 
  19:Generated_Source\PSoC4/Wakeup_Interrupt.c **** #include <cydevice_trm.h>
  20:Generated_Source\PSoC4/Wakeup_Interrupt.c **** #include <CyLib.h>
  21:Generated_Source\PSoC4/Wakeup_Interrupt.c **** #include <Wakeup_Interrupt.h>
  22:Generated_Source\PSoC4/Wakeup_Interrupt.c **** #include "cyapicallbacks.h"
  23:Generated_Source\PSoC4/Wakeup_Interrupt.c **** 
  24:Generated_Source\PSoC4/Wakeup_Interrupt.c **** #if !defined(Wakeup_Interrupt__REMOVED) /* Check for removal by optimization */
  25:Generated_Source\PSoC4/Wakeup_Interrupt.c **** 
  26:Generated_Source\PSoC4/Wakeup_Interrupt.c **** /*******************************************************************************
  27:Generated_Source\PSoC4/Wakeup_Interrupt.c **** *  Place your includes, defines and code here 
  28:Generated_Source\PSoC4/Wakeup_Interrupt.c **** ********************************************************************************/
  29:Generated_Source\PSoC4/Wakeup_Interrupt.c **** /* `#START Wakeup_Interrupt_intc` */
  30:Generated_Source\PSoC4/Wakeup_Interrupt.c **** 
  31:Generated_Source\PSoC4/Wakeup_Interrupt.c **** /* `#END` */
  32:Generated_Source\PSoC4/Wakeup_Interrupt.c **** 
ARM GAS  C:\Users\akita\AppData\Local\Temp\ccU9hFBZ.s 			page 2


  33:Generated_Source\PSoC4/Wakeup_Interrupt.c **** extern cyisraddress CyRamVectors[CYINT_IRQ_BASE + CY_NUM_INTERRUPTS];
  34:Generated_Source\PSoC4/Wakeup_Interrupt.c **** 
  35:Generated_Source\PSoC4/Wakeup_Interrupt.c **** /* Declared in startup, used to set unused interrupts to. */
  36:Generated_Source\PSoC4/Wakeup_Interrupt.c **** CY_ISR_PROTO(IntDefaultHandler);
  37:Generated_Source\PSoC4/Wakeup_Interrupt.c **** 
  38:Generated_Source\PSoC4/Wakeup_Interrupt.c **** 
  39:Generated_Source\PSoC4/Wakeup_Interrupt.c **** /*******************************************************************************
  40:Generated_Source\PSoC4/Wakeup_Interrupt.c **** * Function Name: Wakeup_Interrupt_Start
  41:Generated_Source\PSoC4/Wakeup_Interrupt.c **** ********************************************************************************
  42:Generated_Source\PSoC4/Wakeup_Interrupt.c **** *
  43:Generated_Source\PSoC4/Wakeup_Interrupt.c **** * Summary:
  44:Generated_Source\PSoC4/Wakeup_Interrupt.c **** *  Set up the interrupt and enable it. This function disables the interrupt, 
  45:Generated_Source\PSoC4/Wakeup_Interrupt.c **** *  sets the default interrupt vector, sets the priority from the value in the
  46:Generated_Source\PSoC4/Wakeup_Interrupt.c **** *  Design Wide Resources Interrupt Editor, then enables the interrupt to the 
  47:Generated_Source\PSoC4/Wakeup_Interrupt.c **** *  interrupt controller.
  48:Generated_Source\PSoC4/Wakeup_Interrupt.c **** *
  49:Generated_Source\PSoC4/Wakeup_Interrupt.c **** * Parameters:  
  50:Generated_Source\PSoC4/Wakeup_Interrupt.c **** *   None
  51:Generated_Source\PSoC4/Wakeup_Interrupt.c **** *
  52:Generated_Source\PSoC4/Wakeup_Interrupt.c **** * Return:
  53:Generated_Source\PSoC4/Wakeup_Interrupt.c **** *   None
  54:Generated_Source\PSoC4/Wakeup_Interrupt.c **** *
  55:Generated_Source\PSoC4/Wakeup_Interrupt.c **** *******************************************************************************/
  56:Generated_Source\PSoC4/Wakeup_Interrupt.c **** void Wakeup_Interrupt_Start(void)
  57:Generated_Source\PSoC4/Wakeup_Interrupt.c **** {
  26              		.loc 1 57 0
  27              		.cfi_startproc
  28 0000 80B5     		push	{r7, lr}
  29              		.cfi_def_cfa_offset 8
  30              		.cfi_offset 7, -8
  31              		.cfi_offset 14, -4
  32 0002 00AF     		add	r7, sp, #0
  33              		.cfi_def_cfa_register 7
  58:Generated_Source\PSoC4/Wakeup_Interrupt.c ****     /* For all we know the interrupt is active. */
  59:Generated_Source\PSoC4/Wakeup_Interrupt.c ****     Wakeup_Interrupt_Disable();
  34              		.loc 1 59 0
  35 0004 FFF7FEFF 		bl	Wakeup_Interrupt_Disable
  60:Generated_Source\PSoC4/Wakeup_Interrupt.c **** 
  61:Generated_Source\PSoC4/Wakeup_Interrupt.c ****     /* Set the ISR to point to the Wakeup_Interrupt Interrupt. */
  62:Generated_Source\PSoC4/Wakeup_Interrupt.c ****     Wakeup_Interrupt_SetVector(&Wakeup_Interrupt_Interrupt);
  36              		.loc 1 62 0
  37 0008 054B     		ldr	r3, .L2
  38 000a 181C     		mov	r0, r3
  39 000c FFF7FEFF 		bl	Wakeup_Interrupt_SetVector
  63:Generated_Source\PSoC4/Wakeup_Interrupt.c **** 
  64:Generated_Source\PSoC4/Wakeup_Interrupt.c ****     /* Set the priority. */
  65:Generated_Source\PSoC4/Wakeup_Interrupt.c ****     Wakeup_Interrupt_SetPriority((uint8)Wakeup_Interrupt_INTC_PRIOR_NUMBER);
  40              		.loc 1 65 0
  41 0010 0320     		mov	r0, #3
  42 0012 FFF7FEFF 		bl	Wakeup_Interrupt_SetPriority
  66:Generated_Source\PSoC4/Wakeup_Interrupt.c **** 
  67:Generated_Source\PSoC4/Wakeup_Interrupt.c ****     /* Enable it. */
  68:Generated_Source\PSoC4/Wakeup_Interrupt.c ****     Wakeup_Interrupt_Enable();
  43              		.loc 1 68 0
  44 0016 FFF7FEFF 		bl	Wakeup_Interrupt_Enable
  69:Generated_Source\PSoC4/Wakeup_Interrupt.c **** }
  45              		.loc 1 69 0
ARM GAS  C:\Users\akita\AppData\Local\Temp\ccU9hFBZ.s 			page 3


  46 001a BD46     		mov	sp, r7
  47              		@ sp needed
  48 001c 80BD     		pop	{r7, pc}
  49              	.L3:
  50 001e C046     		.align	2
  51              	.L2:
  52 0020 00000000 		.word	Wakeup_Interrupt_Interrupt
  53              		.cfi_endproc
  54              	.LFE2:
  55              		.size	Wakeup_Interrupt_Start, .-Wakeup_Interrupt_Start
  56              		.section	.text.Wakeup_Interrupt_StartEx,"ax",%progbits
  57              		.align	2
  58              		.global	Wakeup_Interrupt_StartEx
  59              		.code	16
  60              		.thumb_func
  61              		.type	Wakeup_Interrupt_StartEx, %function
  62              	Wakeup_Interrupt_StartEx:
  63              	.LFB3:
  70:Generated_Source\PSoC4/Wakeup_Interrupt.c **** 
  71:Generated_Source\PSoC4/Wakeup_Interrupt.c **** 
  72:Generated_Source\PSoC4/Wakeup_Interrupt.c **** /*******************************************************************************
  73:Generated_Source\PSoC4/Wakeup_Interrupt.c **** * Function Name: Wakeup_Interrupt_StartEx
  74:Generated_Source\PSoC4/Wakeup_Interrupt.c **** ********************************************************************************
  75:Generated_Source\PSoC4/Wakeup_Interrupt.c **** *
  76:Generated_Source\PSoC4/Wakeup_Interrupt.c **** * Summary:
  77:Generated_Source\PSoC4/Wakeup_Interrupt.c **** *  Sets up the interrupt and enables it. This function disables the interrupt,
  78:Generated_Source\PSoC4/Wakeup_Interrupt.c **** *  sets the interrupt vector based on the address passed in, sets the priority 
  79:Generated_Source\PSoC4/Wakeup_Interrupt.c **** *  from the value in the Design Wide Resources Interrupt Editor, then enables 
  80:Generated_Source\PSoC4/Wakeup_Interrupt.c **** *  the interrupt to the interrupt controller.
  81:Generated_Source\PSoC4/Wakeup_Interrupt.c **** *  
  82:Generated_Source\PSoC4/Wakeup_Interrupt.c **** *  When defining ISR functions, the CY_ISR and CY_ISR_PROTO macros should be 
  83:Generated_Source\PSoC4/Wakeup_Interrupt.c **** *  used to provide consistent definition across compilers:
  84:Generated_Source\PSoC4/Wakeup_Interrupt.c **** *  
  85:Generated_Source\PSoC4/Wakeup_Interrupt.c **** *  Function definition example:
  86:Generated_Source\PSoC4/Wakeup_Interrupt.c **** *   CY_ISR(MyISR)
  87:Generated_Source\PSoC4/Wakeup_Interrupt.c **** *   {
  88:Generated_Source\PSoC4/Wakeup_Interrupt.c **** *   }
  89:Generated_Source\PSoC4/Wakeup_Interrupt.c **** *   Function prototype example:
  90:Generated_Source\PSoC4/Wakeup_Interrupt.c **** *   CY_ISR_PROTO(MyISR);
  91:Generated_Source\PSoC4/Wakeup_Interrupt.c **** *
  92:Generated_Source\PSoC4/Wakeup_Interrupt.c **** * Parameters:  
  93:Generated_Source\PSoC4/Wakeup_Interrupt.c **** *   address: Address of the ISR to set in the interrupt vector table.
  94:Generated_Source\PSoC4/Wakeup_Interrupt.c **** *
  95:Generated_Source\PSoC4/Wakeup_Interrupt.c **** * Return:
  96:Generated_Source\PSoC4/Wakeup_Interrupt.c **** *   None
  97:Generated_Source\PSoC4/Wakeup_Interrupt.c **** *
  98:Generated_Source\PSoC4/Wakeup_Interrupt.c **** *******************************************************************************/
  99:Generated_Source\PSoC4/Wakeup_Interrupt.c **** void Wakeup_Interrupt_StartEx(cyisraddress address)
 100:Generated_Source\PSoC4/Wakeup_Interrupt.c **** {
  64              		.loc 1 100 0
  65              		.cfi_startproc
  66 0000 80B5     		push	{r7, lr}
  67              		.cfi_def_cfa_offset 8
  68              		.cfi_offset 7, -8
  69              		.cfi_offset 14, -4
  70 0002 82B0     		sub	sp, sp, #8
  71              		.cfi_def_cfa_offset 16
ARM GAS  C:\Users\akita\AppData\Local\Temp\ccU9hFBZ.s 			page 4


  72 0004 00AF     		add	r7, sp, #0
  73              		.cfi_def_cfa_register 7
  74 0006 7860     		str	r0, [r7, #4]
 101:Generated_Source\PSoC4/Wakeup_Interrupt.c ****     /* For all we know the interrupt is active. */
 102:Generated_Source\PSoC4/Wakeup_Interrupt.c ****     Wakeup_Interrupt_Disable();
  75              		.loc 1 102 0
  76 0008 FFF7FEFF 		bl	Wakeup_Interrupt_Disable
 103:Generated_Source\PSoC4/Wakeup_Interrupt.c **** 
 104:Generated_Source\PSoC4/Wakeup_Interrupt.c ****     /* Set the ISR to point to the Wakeup_Interrupt Interrupt. */
 105:Generated_Source\PSoC4/Wakeup_Interrupt.c ****     Wakeup_Interrupt_SetVector(address);
  77              		.loc 1 105 0
  78 000c 7B68     		ldr	r3, [r7, #4]
  79 000e 181C     		mov	r0, r3
  80 0010 FFF7FEFF 		bl	Wakeup_Interrupt_SetVector
 106:Generated_Source\PSoC4/Wakeup_Interrupt.c **** 
 107:Generated_Source\PSoC4/Wakeup_Interrupt.c ****     /* Set the priority. */
 108:Generated_Source\PSoC4/Wakeup_Interrupt.c ****     Wakeup_Interrupt_SetPriority((uint8)Wakeup_Interrupt_INTC_PRIOR_NUMBER);
  81              		.loc 1 108 0
  82 0014 0320     		mov	r0, #3
  83 0016 FFF7FEFF 		bl	Wakeup_Interrupt_SetPriority
 109:Generated_Source\PSoC4/Wakeup_Interrupt.c **** 
 110:Generated_Source\PSoC4/Wakeup_Interrupt.c ****     /* Enable it. */
 111:Generated_Source\PSoC4/Wakeup_Interrupt.c ****     Wakeup_Interrupt_Enable();
  84              		.loc 1 111 0
  85 001a FFF7FEFF 		bl	Wakeup_Interrupt_Enable
 112:Generated_Source\PSoC4/Wakeup_Interrupt.c **** }
  86              		.loc 1 112 0
  87 001e BD46     		mov	sp, r7
  88 0020 02B0     		add	sp, sp, #8
  89              		@ sp needed
  90 0022 80BD     		pop	{r7, pc}
  91              		.cfi_endproc
  92              	.LFE3:
  93              		.size	Wakeup_Interrupt_StartEx, .-Wakeup_Interrupt_StartEx
  94              		.section	.text.Wakeup_Interrupt_Stop,"ax",%progbits
  95              		.align	2
  96              		.global	Wakeup_Interrupt_Stop
  97              		.code	16
  98              		.thumb_func
  99              		.type	Wakeup_Interrupt_Stop, %function
 100              	Wakeup_Interrupt_Stop:
 101              	.LFB4:
 113:Generated_Source\PSoC4/Wakeup_Interrupt.c **** 
 114:Generated_Source\PSoC4/Wakeup_Interrupt.c **** 
 115:Generated_Source\PSoC4/Wakeup_Interrupt.c **** /*******************************************************************************
 116:Generated_Source\PSoC4/Wakeup_Interrupt.c **** * Function Name: Wakeup_Interrupt_Stop
 117:Generated_Source\PSoC4/Wakeup_Interrupt.c **** ********************************************************************************
 118:Generated_Source\PSoC4/Wakeup_Interrupt.c **** *
 119:Generated_Source\PSoC4/Wakeup_Interrupt.c **** * Summary:
 120:Generated_Source\PSoC4/Wakeup_Interrupt.c **** *   Disables and removes the interrupt.
 121:Generated_Source\PSoC4/Wakeup_Interrupt.c **** *
 122:Generated_Source\PSoC4/Wakeup_Interrupt.c **** * Parameters:  
 123:Generated_Source\PSoC4/Wakeup_Interrupt.c **** *   None
 124:Generated_Source\PSoC4/Wakeup_Interrupt.c **** *
 125:Generated_Source\PSoC4/Wakeup_Interrupt.c **** * Return:
 126:Generated_Source\PSoC4/Wakeup_Interrupt.c **** *   None
 127:Generated_Source\PSoC4/Wakeup_Interrupt.c **** *
ARM GAS  C:\Users\akita\AppData\Local\Temp\ccU9hFBZ.s 			page 5


 128:Generated_Source\PSoC4/Wakeup_Interrupt.c **** *******************************************************************************/
 129:Generated_Source\PSoC4/Wakeup_Interrupt.c **** void Wakeup_Interrupt_Stop(void)
 130:Generated_Source\PSoC4/Wakeup_Interrupt.c **** {
 102              		.loc 1 130 0
 103              		.cfi_startproc
 104 0000 80B5     		push	{r7, lr}
 105              		.cfi_def_cfa_offset 8
 106              		.cfi_offset 7, -8
 107              		.cfi_offset 14, -4
 108 0002 00AF     		add	r7, sp, #0
 109              		.cfi_def_cfa_register 7
 131:Generated_Source\PSoC4/Wakeup_Interrupt.c ****     /* Disable this interrupt. */
 132:Generated_Source\PSoC4/Wakeup_Interrupt.c ****     Wakeup_Interrupt_Disable();
 110              		.loc 1 132 0
 111 0004 FFF7FEFF 		bl	Wakeup_Interrupt_Disable
 133:Generated_Source\PSoC4/Wakeup_Interrupt.c **** 
 134:Generated_Source\PSoC4/Wakeup_Interrupt.c ****     /* Set the ISR to point to the passive one. */
 135:Generated_Source\PSoC4/Wakeup_Interrupt.c ****     Wakeup_Interrupt_SetVector(&IntDefaultHandler);
 112              		.loc 1 135 0
 113 0008 024B     		ldr	r3, .L6
 114 000a 181C     		mov	r0, r3
 115 000c FFF7FEFF 		bl	Wakeup_Interrupt_SetVector
 136:Generated_Source\PSoC4/Wakeup_Interrupt.c **** }
 116              		.loc 1 136 0
 117 0010 BD46     		mov	sp, r7
 118              		@ sp needed
 119 0012 80BD     		pop	{r7, pc}
 120              	.L7:
 121              		.align	2
 122              	.L6:
 123 0014 00000000 		.word	IntDefaultHandler
 124              		.cfi_endproc
 125              	.LFE4:
 126              		.size	Wakeup_Interrupt_Stop, .-Wakeup_Interrupt_Stop
 127              		.section	.text.Wakeup_Interrupt_Interrupt,"ax",%progbits
 128              		.align	2
 129              		.global	Wakeup_Interrupt_Interrupt
 130              		.code	16
 131              		.thumb_func
 132              		.type	Wakeup_Interrupt_Interrupt, %function
 133              	Wakeup_Interrupt_Interrupt:
 134              	.LFB5:
 137:Generated_Source\PSoC4/Wakeup_Interrupt.c **** 
 138:Generated_Source\PSoC4/Wakeup_Interrupt.c **** 
 139:Generated_Source\PSoC4/Wakeup_Interrupt.c **** /*******************************************************************************
 140:Generated_Source\PSoC4/Wakeup_Interrupt.c **** * Function Name: Wakeup_Interrupt_Interrupt
 141:Generated_Source\PSoC4/Wakeup_Interrupt.c **** ********************************************************************************
 142:Generated_Source\PSoC4/Wakeup_Interrupt.c **** *
 143:Generated_Source\PSoC4/Wakeup_Interrupt.c **** * Summary:
 144:Generated_Source\PSoC4/Wakeup_Interrupt.c **** *   The default Interrupt Service Routine for Wakeup_Interrupt.
 145:Generated_Source\PSoC4/Wakeup_Interrupt.c **** *
 146:Generated_Source\PSoC4/Wakeup_Interrupt.c **** *   Add custom code between the START and END comments to keep the next version
 147:Generated_Source\PSoC4/Wakeup_Interrupt.c **** *   of this file from over-writing your code.
 148:Generated_Source\PSoC4/Wakeup_Interrupt.c **** *
 149:Generated_Source\PSoC4/Wakeup_Interrupt.c **** *   Note You may use either the default ISR by using this API, or you may define
 150:Generated_Source\PSoC4/Wakeup_Interrupt.c **** *   your own separate ISR through ISR_StartEx().
 151:Generated_Source\PSoC4/Wakeup_Interrupt.c **** *
ARM GAS  C:\Users\akita\AppData\Local\Temp\ccU9hFBZ.s 			page 6


 152:Generated_Source\PSoC4/Wakeup_Interrupt.c **** * Parameters:  
 153:Generated_Source\PSoC4/Wakeup_Interrupt.c **** *   None
 154:Generated_Source\PSoC4/Wakeup_Interrupt.c **** *
 155:Generated_Source\PSoC4/Wakeup_Interrupt.c **** * Return:
 156:Generated_Source\PSoC4/Wakeup_Interrupt.c **** *   None
 157:Generated_Source\PSoC4/Wakeup_Interrupt.c **** *
 158:Generated_Source\PSoC4/Wakeup_Interrupt.c **** *******************************************************************************/
 159:Generated_Source\PSoC4/Wakeup_Interrupt.c **** CY_ISR(Wakeup_Interrupt_Interrupt)
 160:Generated_Source\PSoC4/Wakeup_Interrupt.c **** {
 135              		.loc 1 160 0
 136              		.cfi_startproc
 137 0000 80B5     		push	{r7, lr}
 138              		.cfi_def_cfa_offset 8
 139              		.cfi_offset 7, -8
 140              		.cfi_offset 14, -4
 141 0002 00AF     		add	r7, sp, #0
 142              		.cfi_def_cfa_register 7
 161:Generated_Source\PSoC4/Wakeup_Interrupt.c ****     #ifdef Wakeup_Interrupt_INTERRUPT_INTERRUPT_CALLBACK
 162:Generated_Source\PSoC4/Wakeup_Interrupt.c ****         Wakeup_Interrupt_Interrupt_InterruptCallback();
 163:Generated_Source\PSoC4/Wakeup_Interrupt.c ****     #endif /* Wakeup_Interrupt_INTERRUPT_INTERRUPT_CALLBACK */ 
 164:Generated_Source\PSoC4/Wakeup_Interrupt.c **** 
 165:Generated_Source\PSoC4/Wakeup_Interrupt.c ****     /*  Place your Interrupt code here. */
 166:Generated_Source\PSoC4/Wakeup_Interrupt.c ****     /* `#START Wakeup_Interrupt_Interrupt` */
 167:Generated_Source\PSoC4/Wakeup_Interrupt.c **** 
 168:Generated_Source\PSoC4/Wakeup_Interrupt.c ****     /* `#END` */
 169:Generated_Source\PSoC4/Wakeup_Interrupt.c **** }
 143              		.loc 1 169 0
 144 0004 BD46     		mov	sp, r7
 145              		@ sp needed
 146 0006 80BD     		pop	{r7, pc}
 147              		.cfi_endproc
 148              	.LFE5:
 149              		.size	Wakeup_Interrupt_Interrupt, .-Wakeup_Interrupt_Interrupt
 150              		.section	.text.Wakeup_Interrupt_SetVector,"ax",%progbits
 151              		.align	2
 152              		.global	Wakeup_Interrupt_SetVector
 153              		.code	16
 154              		.thumb_func
 155              		.type	Wakeup_Interrupt_SetVector, %function
 156              	Wakeup_Interrupt_SetVector:
 157              	.LFB6:
 170:Generated_Source\PSoC4/Wakeup_Interrupt.c **** 
 171:Generated_Source\PSoC4/Wakeup_Interrupt.c **** 
 172:Generated_Source\PSoC4/Wakeup_Interrupt.c **** /*******************************************************************************
 173:Generated_Source\PSoC4/Wakeup_Interrupt.c **** * Function Name: Wakeup_Interrupt_SetVector
 174:Generated_Source\PSoC4/Wakeup_Interrupt.c **** ********************************************************************************
 175:Generated_Source\PSoC4/Wakeup_Interrupt.c **** *
 176:Generated_Source\PSoC4/Wakeup_Interrupt.c **** * Summary:
 177:Generated_Source\PSoC4/Wakeup_Interrupt.c **** *   Change the ISR vector for the Interrupt. Note calling Wakeup_Interrupt_Start
 178:Generated_Source\PSoC4/Wakeup_Interrupt.c **** *   will override any effect this method would have had. To set the vector 
 179:Generated_Source\PSoC4/Wakeup_Interrupt.c **** *   before the component has been started use Wakeup_Interrupt_StartEx instead.
 180:Generated_Source\PSoC4/Wakeup_Interrupt.c **** * 
 181:Generated_Source\PSoC4/Wakeup_Interrupt.c **** *   When defining ISR functions, the CY_ISR and CY_ISR_PROTO macros should be 
 182:Generated_Source\PSoC4/Wakeup_Interrupt.c **** *   used to provide consistent definition across compilers:
 183:Generated_Source\PSoC4/Wakeup_Interrupt.c **** *
 184:Generated_Source\PSoC4/Wakeup_Interrupt.c **** *   Function definition example:
 185:Generated_Source\PSoC4/Wakeup_Interrupt.c **** *   CY_ISR(MyISR)
ARM GAS  C:\Users\akita\AppData\Local\Temp\ccU9hFBZ.s 			page 7


 186:Generated_Source\PSoC4/Wakeup_Interrupt.c **** *   {
 187:Generated_Source\PSoC4/Wakeup_Interrupt.c **** *   }
 188:Generated_Source\PSoC4/Wakeup_Interrupt.c **** *
 189:Generated_Source\PSoC4/Wakeup_Interrupt.c **** *   Function prototype example:
 190:Generated_Source\PSoC4/Wakeup_Interrupt.c **** *     CY_ISR_PROTO(MyISR);
 191:Generated_Source\PSoC4/Wakeup_Interrupt.c **** *
 192:Generated_Source\PSoC4/Wakeup_Interrupt.c **** * Parameters:
 193:Generated_Source\PSoC4/Wakeup_Interrupt.c **** *   address: Address of the ISR to set in the interrupt vector table.
 194:Generated_Source\PSoC4/Wakeup_Interrupt.c **** *
 195:Generated_Source\PSoC4/Wakeup_Interrupt.c **** * Return:
 196:Generated_Source\PSoC4/Wakeup_Interrupt.c **** *   None
 197:Generated_Source\PSoC4/Wakeup_Interrupt.c **** *
 198:Generated_Source\PSoC4/Wakeup_Interrupt.c **** *******************************************************************************/
 199:Generated_Source\PSoC4/Wakeup_Interrupt.c **** void Wakeup_Interrupt_SetVector(cyisraddress address)
 200:Generated_Source\PSoC4/Wakeup_Interrupt.c **** {
 158              		.loc 1 200 0
 159              		.cfi_startproc
 160 0000 80B5     		push	{r7, lr}
 161              		.cfi_def_cfa_offset 8
 162              		.cfi_offset 7, -8
 163              		.cfi_offset 14, -4
 164 0002 82B0     		sub	sp, sp, #8
 165              		.cfi_def_cfa_offset 16
 166 0004 00AF     		add	r7, sp, #0
 167              		.cfi_def_cfa_register 7
 168 0006 7860     		str	r0, [r7, #4]
 201:Generated_Source\PSoC4/Wakeup_Interrupt.c ****     CyRamVectors[CYINT_IRQ_BASE + Wakeup_Interrupt__INTC_NUMBER] = address;
 169              		.loc 1 201 0
 170 0008 024B     		ldr	r3, .L10
 171 000a 7A68     		ldr	r2, [r7, #4]
 172 000c 1A64     		str	r2, [r3, #64]
 202:Generated_Source\PSoC4/Wakeup_Interrupt.c **** }
 173              		.loc 1 202 0
 174 000e BD46     		mov	sp, r7
 175 0010 02B0     		add	sp, sp, #8
 176              		@ sp needed
 177 0012 80BD     		pop	{r7, pc}
 178              	.L11:
 179              		.align	2
 180              	.L10:
 181 0014 00000000 		.word	CyRamVectors
 182              		.cfi_endproc
 183              	.LFE6:
 184              		.size	Wakeup_Interrupt_SetVector, .-Wakeup_Interrupt_SetVector
 185              		.section	.text.Wakeup_Interrupt_GetVector,"ax",%progbits
 186              		.align	2
 187              		.global	Wakeup_Interrupt_GetVector
 188              		.code	16
 189              		.thumb_func
 190              		.type	Wakeup_Interrupt_GetVector, %function
 191              	Wakeup_Interrupt_GetVector:
 192              	.LFB7:
 203:Generated_Source\PSoC4/Wakeup_Interrupt.c **** 
 204:Generated_Source\PSoC4/Wakeup_Interrupt.c **** 
 205:Generated_Source\PSoC4/Wakeup_Interrupt.c **** /*******************************************************************************
 206:Generated_Source\PSoC4/Wakeup_Interrupt.c **** * Function Name: Wakeup_Interrupt_GetVector
 207:Generated_Source\PSoC4/Wakeup_Interrupt.c **** ********************************************************************************
ARM GAS  C:\Users\akita\AppData\Local\Temp\ccU9hFBZ.s 			page 8


 208:Generated_Source\PSoC4/Wakeup_Interrupt.c **** *
 209:Generated_Source\PSoC4/Wakeup_Interrupt.c **** * Summary:
 210:Generated_Source\PSoC4/Wakeup_Interrupt.c **** *   Gets the "address" of the current ISR vector for the Interrupt.
 211:Generated_Source\PSoC4/Wakeup_Interrupt.c **** *
 212:Generated_Source\PSoC4/Wakeup_Interrupt.c **** * Parameters:
 213:Generated_Source\PSoC4/Wakeup_Interrupt.c **** *   None
 214:Generated_Source\PSoC4/Wakeup_Interrupt.c **** *
 215:Generated_Source\PSoC4/Wakeup_Interrupt.c **** * Return:
 216:Generated_Source\PSoC4/Wakeup_Interrupt.c **** *   Address of the ISR in the interrupt vector table.
 217:Generated_Source\PSoC4/Wakeup_Interrupt.c **** *
 218:Generated_Source\PSoC4/Wakeup_Interrupt.c **** *******************************************************************************/
 219:Generated_Source\PSoC4/Wakeup_Interrupt.c **** cyisraddress Wakeup_Interrupt_GetVector(void)
 220:Generated_Source\PSoC4/Wakeup_Interrupt.c **** {
 193              		.loc 1 220 0
 194              		.cfi_startproc
 195 0000 80B5     		push	{r7, lr}
 196              		.cfi_def_cfa_offset 8
 197              		.cfi_offset 7, -8
 198              		.cfi_offset 14, -4
 199 0002 00AF     		add	r7, sp, #0
 200              		.cfi_def_cfa_register 7
 221:Generated_Source\PSoC4/Wakeup_Interrupt.c ****     return CyRamVectors[CYINT_IRQ_BASE + Wakeup_Interrupt__INTC_NUMBER];
 201              		.loc 1 221 0
 202 0004 024B     		ldr	r3, .L14
 203 0006 1B6C     		ldr	r3, [r3, #64]
 222:Generated_Source\PSoC4/Wakeup_Interrupt.c **** }
 204              		.loc 1 222 0
 205 0008 181C     		mov	r0, r3
 206 000a BD46     		mov	sp, r7
 207              		@ sp needed
 208 000c 80BD     		pop	{r7, pc}
 209              	.L15:
 210 000e C046     		.align	2
 211              	.L14:
 212 0010 00000000 		.word	CyRamVectors
 213              		.cfi_endproc
 214              	.LFE7:
 215              		.size	Wakeup_Interrupt_GetVector, .-Wakeup_Interrupt_GetVector
 216              		.section	.text.Wakeup_Interrupt_SetPriority,"ax",%progbits
 217              		.align	2
 218              		.global	Wakeup_Interrupt_SetPriority
 219              		.code	16
 220              		.thumb_func
 221              		.type	Wakeup_Interrupt_SetPriority, %function
 222              	Wakeup_Interrupt_SetPriority:
 223              	.LFB8:
 223:Generated_Source\PSoC4/Wakeup_Interrupt.c **** 
 224:Generated_Source\PSoC4/Wakeup_Interrupt.c **** 
 225:Generated_Source\PSoC4/Wakeup_Interrupt.c **** /*******************************************************************************
 226:Generated_Source\PSoC4/Wakeup_Interrupt.c **** * Function Name: Wakeup_Interrupt_SetPriority
 227:Generated_Source\PSoC4/Wakeup_Interrupt.c **** ********************************************************************************
 228:Generated_Source\PSoC4/Wakeup_Interrupt.c **** *
 229:Generated_Source\PSoC4/Wakeup_Interrupt.c **** * Summary:
 230:Generated_Source\PSoC4/Wakeup_Interrupt.c **** *   Sets the Priority of the Interrupt. 
 231:Generated_Source\PSoC4/Wakeup_Interrupt.c **** *
 232:Generated_Source\PSoC4/Wakeup_Interrupt.c **** *   Note calling Wakeup_Interrupt_Start or Wakeup_Interrupt_StartEx will 
 233:Generated_Source\PSoC4/Wakeup_Interrupt.c **** *   override any effect this API would have had. This API should only be called
ARM GAS  C:\Users\akita\AppData\Local\Temp\ccU9hFBZ.s 			page 9


 234:Generated_Source\PSoC4/Wakeup_Interrupt.c **** *   after Wakeup_Interrupt_Start or Wakeup_Interrupt_StartEx has been called. 
 235:Generated_Source\PSoC4/Wakeup_Interrupt.c **** *   To set the initial priority for the component, use the Design-Wide Resources
 236:Generated_Source\PSoC4/Wakeup_Interrupt.c **** *   Interrupt Editor.
 237:Generated_Source\PSoC4/Wakeup_Interrupt.c **** *
 238:Generated_Source\PSoC4/Wakeup_Interrupt.c **** *   Note This API has no effect on Non-maskable interrupt NMI).
 239:Generated_Source\PSoC4/Wakeup_Interrupt.c **** *
 240:Generated_Source\PSoC4/Wakeup_Interrupt.c **** * Parameters:
 241:Generated_Source\PSoC4/Wakeup_Interrupt.c **** *   priority: Priority of the interrupt, 0 being the highest priority
 242:Generated_Source\PSoC4/Wakeup_Interrupt.c **** *             PSoC 3 and PSoC 5LP: Priority is from 0 to 7.
 243:Generated_Source\PSoC4/Wakeup_Interrupt.c **** *             PSoC 4: Priority is from 0 to 3.
 244:Generated_Source\PSoC4/Wakeup_Interrupt.c **** *
 245:Generated_Source\PSoC4/Wakeup_Interrupt.c **** * Return:
 246:Generated_Source\PSoC4/Wakeup_Interrupt.c **** *   None
 247:Generated_Source\PSoC4/Wakeup_Interrupt.c **** *
 248:Generated_Source\PSoC4/Wakeup_Interrupt.c **** *******************************************************************************/
 249:Generated_Source\PSoC4/Wakeup_Interrupt.c **** void Wakeup_Interrupt_SetPriority(uint8 priority)
 250:Generated_Source\PSoC4/Wakeup_Interrupt.c **** {
 224              		.loc 1 250 0
 225              		.cfi_startproc
 226 0000 90B5     		push	{r4, r7, lr}
 227              		.cfi_def_cfa_offset 12
 228              		.cfi_offset 4, -12
 229              		.cfi_offset 7, -8
 230              		.cfi_offset 14, -4
 231 0002 85B0     		sub	sp, sp, #20
 232              		.cfi_def_cfa_offset 32
 233 0004 00AF     		add	r7, sp, #0
 234              		.cfi_def_cfa_register 7
 235 0006 021C     		mov	r2, r0
 236 0008 FB1D     		add	r3, r7, #7
 237 000a 1A70     		strb	r2, [r3]
 251:Generated_Source\PSoC4/Wakeup_Interrupt.c **** 	uint8 interruptState;
 252:Generated_Source\PSoC4/Wakeup_Interrupt.c ****     uint32 priorityOffset = ((Wakeup_Interrupt__INTC_NUMBER % 4u) * 8u) + 6u;
 238              		.loc 1 252 0
 239 000c 0623     		mov	r3, #6
 240 000e FB60     		str	r3, [r7, #12]
 253:Generated_Source\PSoC4/Wakeup_Interrupt.c ****     
 254:Generated_Source\PSoC4/Wakeup_Interrupt.c **** 	interruptState = CyEnterCriticalSection();
 241              		.loc 1 254 0
 242 0010 0B23     		mov	r3, #11
 243 0012 FC18     		add	r4, r7, r3
 244 0014 FFF7FEFF 		bl	CyEnterCriticalSection
 245 0018 031C     		mov	r3, r0
 246 001a 2370     		strb	r3, [r4]
 255:Generated_Source\PSoC4/Wakeup_Interrupt.c ****     *Wakeup_Interrupt_INTC_PRIOR = (*Wakeup_Interrupt_INTC_PRIOR & (uint32)(~Wakeup_Interrupt__INTC
 247              		.loc 1 255 0
 248 001c 0A4B     		ldr	r3, .L17
 249 001e 0A4A     		ldr	r2, .L17
 250 0020 1268     		ldr	r2, [r2]
 251 0022 C021     		mov	r1, #192
 252 0024 8A43     		bic	r2, r1
 253 0026 111C     		mov	r1, r2
 256:Generated_Source\PSoC4/Wakeup_Interrupt.c ****                                     ((uint32)priority << priorityOffset);
 254              		.loc 1 256 0
 255 0028 FA1D     		add	r2, r7, #7
 256 002a 1078     		ldrb	r0, [r2]
 257 002c FA68     		ldr	r2, [r7, #12]
ARM GAS  C:\Users\akita\AppData\Local\Temp\ccU9hFBZ.s 			page 10


 258 002e 9040     		lsl	r0, r0, r2
 259 0030 021C     		mov	r2, r0
 255:Generated_Source\PSoC4/Wakeup_Interrupt.c ****     *Wakeup_Interrupt_INTC_PRIOR = (*Wakeup_Interrupt_INTC_PRIOR & (uint32)(~Wakeup_Interrupt__INTC
 260              		.loc 1 255 0
 261 0032 0A43     		orr	r2, r1
 262 0034 1A60     		str	r2, [r3]
 257:Generated_Source\PSoC4/Wakeup_Interrupt.c **** 	CyExitCriticalSection(interruptState);
 263              		.loc 1 257 0
 264 0036 0B23     		mov	r3, #11
 265 0038 FB18     		add	r3, r7, r3
 266 003a 1B78     		ldrb	r3, [r3]
 267 003c 181C     		mov	r0, r3
 268 003e FFF7FEFF 		bl	CyExitCriticalSection
 258:Generated_Source\PSoC4/Wakeup_Interrupt.c **** }
 269              		.loc 1 258 0
 270 0042 BD46     		mov	sp, r7
 271 0044 05B0     		add	sp, sp, #20
 272              		@ sp needed
 273 0046 90BD     		pop	{r4, r7, pc}
 274              	.L18:
 275              		.align	2
 276              	.L17:
 277 0048 00E400E0 		.word	-536812544
 278              		.cfi_endproc
 279              	.LFE8:
 280              		.size	Wakeup_Interrupt_SetPriority, .-Wakeup_Interrupt_SetPriority
 281              		.section	.text.Wakeup_Interrupt_GetPriority,"ax",%progbits
 282              		.align	2
 283              		.global	Wakeup_Interrupt_GetPriority
 284              		.code	16
 285              		.thumb_func
 286              		.type	Wakeup_Interrupt_GetPriority, %function
 287              	Wakeup_Interrupt_GetPriority:
 288              	.LFB9:
 259:Generated_Source\PSoC4/Wakeup_Interrupt.c **** 
 260:Generated_Source\PSoC4/Wakeup_Interrupt.c **** 
 261:Generated_Source\PSoC4/Wakeup_Interrupt.c **** /*******************************************************************************
 262:Generated_Source\PSoC4/Wakeup_Interrupt.c **** * Function Name: Wakeup_Interrupt_GetPriority
 263:Generated_Source\PSoC4/Wakeup_Interrupt.c **** ********************************************************************************
 264:Generated_Source\PSoC4/Wakeup_Interrupt.c **** *
 265:Generated_Source\PSoC4/Wakeup_Interrupt.c **** * Summary:
 266:Generated_Source\PSoC4/Wakeup_Interrupt.c **** *   Gets the Priority of the Interrupt.
 267:Generated_Source\PSoC4/Wakeup_Interrupt.c **** *
 268:Generated_Source\PSoC4/Wakeup_Interrupt.c **** * Parameters:
 269:Generated_Source\PSoC4/Wakeup_Interrupt.c **** *   None
 270:Generated_Source\PSoC4/Wakeup_Interrupt.c **** *
 271:Generated_Source\PSoC4/Wakeup_Interrupt.c **** * Return:
 272:Generated_Source\PSoC4/Wakeup_Interrupt.c **** *   Priority of the interrupt, 0 being the highest priority
 273:Generated_Source\PSoC4/Wakeup_Interrupt.c **** *    PSoC 3 and PSoC 5LP: Priority is from 0 to 7.
 274:Generated_Source\PSoC4/Wakeup_Interrupt.c **** *    PSoC 4: Priority is from 0 to 3.
 275:Generated_Source\PSoC4/Wakeup_Interrupt.c **** *
 276:Generated_Source\PSoC4/Wakeup_Interrupt.c **** *******************************************************************************/
 277:Generated_Source\PSoC4/Wakeup_Interrupt.c **** uint8 Wakeup_Interrupt_GetPriority(void)
 278:Generated_Source\PSoC4/Wakeup_Interrupt.c **** {
 289              		.loc 1 278 0
 290              		.cfi_startproc
 291 0000 80B5     		push	{r7, lr}
ARM GAS  C:\Users\akita\AppData\Local\Temp\ccU9hFBZ.s 			page 11


 292              		.cfi_def_cfa_offset 8
 293              		.cfi_offset 7, -8
 294              		.cfi_offset 14, -4
 295 0002 82B0     		sub	sp, sp, #8
 296              		.cfi_def_cfa_offset 16
 297 0004 00AF     		add	r7, sp, #0
 298              		.cfi_def_cfa_register 7
 279:Generated_Source\PSoC4/Wakeup_Interrupt.c ****     uint32 priority;
 280:Generated_Source\PSoC4/Wakeup_Interrupt.c **** 	uint32 priorityOffset = ((Wakeup_Interrupt__INTC_NUMBER % 4u) * 8u) + 6u;
 299              		.loc 1 280 0
 300 0006 0623     		mov	r3, #6
 301 0008 7B60     		str	r3, [r7, #4]
 281:Generated_Source\PSoC4/Wakeup_Interrupt.c **** 
 282:Generated_Source\PSoC4/Wakeup_Interrupt.c ****     priority = (*Wakeup_Interrupt_INTC_PRIOR & Wakeup_Interrupt__INTC_PRIOR_MASK) >> priorityOffset
 302              		.loc 1 282 0
 303 000a 074B     		ldr	r3, .L21
 304 000c 1B68     		ldr	r3, [r3]
 305 000e C022     		mov	r2, #192
 306 0010 1A40     		and	r2, r3
 307 0012 7B68     		ldr	r3, [r7, #4]
 308 0014 DA40     		lsr	r2, r2, r3
 309 0016 131C     		mov	r3, r2
 310 0018 3B60     		str	r3, [r7]
 283:Generated_Source\PSoC4/Wakeup_Interrupt.c **** 
 284:Generated_Source\PSoC4/Wakeup_Interrupt.c ****     return (uint8)priority;
 311              		.loc 1 284 0
 312 001a 3B68     		ldr	r3, [r7]
 313 001c DBB2     		uxtb	r3, r3
 285:Generated_Source\PSoC4/Wakeup_Interrupt.c **** }
 314              		.loc 1 285 0
 315 001e 181C     		mov	r0, r3
 316 0020 BD46     		mov	sp, r7
 317 0022 02B0     		add	sp, sp, #8
 318              		@ sp needed
 319 0024 80BD     		pop	{r7, pc}
 320              	.L22:
 321 0026 C046     		.align	2
 322              	.L21:
 323 0028 00E400E0 		.word	-536812544
 324              		.cfi_endproc
 325              	.LFE9:
 326              		.size	Wakeup_Interrupt_GetPriority, .-Wakeup_Interrupt_GetPriority
 327              		.section	.text.Wakeup_Interrupt_Enable,"ax",%progbits
 328              		.align	2
 329              		.global	Wakeup_Interrupt_Enable
 330              		.code	16
 331              		.thumb_func
 332              		.type	Wakeup_Interrupt_Enable, %function
 333              	Wakeup_Interrupt_Enable:
 334              	.LFB10:
 286:Generated_Source\PSoC4/Wakeup_Interrupt.c **** 
 287:Generated_Source\PSoC4/Wakeup_Interrupt.c **** 
 288:Generated_Source\PSoC4/Wakeup_Interrupt.c **** /*******************************************************************************
 289:Generated_Source\PSoC4/Wakeup_Interrupt.c **** * Function Name: Wakeup_Interrupt_Enable
 290:Generated_Source\PSoC4/Wakeup_Interrupt.c **** ********************************************************************************
 291:Generated_Source\PSoC4/Wakeup_Interrupt.c **** *
 292:Generated_Source\PSoC4/Wakeup_Interrupt.c **** * Summary:
ARM GAS  C:\Users\akita\AppData\Local\Temp\ccU9hFBZ.s 			page 12


 293:Generated_Source\PSoC4/Wakeup_Interrupt.c **** *   Enables the interrupt to the interrupt controller. Do not call this function
 294:Generated_Source\PSoC4/Wakeup_Interrupt.c **** *   unless ISR_Start() has been called or the functionality of the ISR_Start() 
 295:Generated_Source\PSoC4/Wakeup_Interrupt.c **** *   function, which sets the vector and the priority, has been called.
 296:Generated_Source\PSoC4/Wakeup_Interrupt.c **** *
 297:Generated_Source\PSoC4/Wakeup_Interrupt.c **** * Parameters:
 298:Generated_Source\PSoC4/Wakeup_Interrupt.c **** *   None
 299:Generated_Source\PSoC4/Wakeup_Interrupt.c **** *
 300:Generated_Source\PSoC4/Wakeup_Interrupt.c **** * Return:
 301:Generated_Source\PSoC4/Wakeup_Interrupt.c **** *   None
 302:Generated_Source\PSoC4/Wakeup_Interrupt.c **** *
 303:Generated_Source\PSoC4/Wakeup_Interrupt.c **** *******************************************************************************/
 304:Generated_Source\PSoC4/Wakeup_Interrupt.c **** void Wakeup_Interrupt_Enable(void)
 305:Generated_Source\PSoC4/Wakeup_Interrupt.c **** {
 335              		.loc 1 305 0
 336              		.cfi_startproc
 337 0000 80B5     		push	{r7, lr}
 338              		.cfi_def_cfa_offset 8
 339              		.cfi_offset 7, -8
 340              		.cfi_offset 14, -4
 341 0002 00AF     		add	r7, sp, #0
 342              		.cfi_def_cfa_register 7
 306:Generated_Source\PSoC4/Wakeup_Interrupt.c ****     /* Enable the general interrupt. */
 307:Generated_Source\PSoC4/Wakeup_Interrupt.c ****     *Wakeup_Interrupt_INTC_SET_EN = Wakeup_Interrupt__INTC_MASK;
 343              		.loc 1 307 0
 344 0004 024B     		ldr	r3, .L24
 345 0006 0122     		mov	r2, #1
 346 0008 1A60     		str	r2, [r3]
 308:Generated_Source\PSoC4/Wakeup_Interrupt.c **** }
 347              		.loc 1 308 0
 348 000a BD46     		mov	sp, r7
 349              		@ sp needed
 350 000c 80BD     		pop	{r7, pc}
 351              	.L25:
 352 000e C046     		.align	2
 353              	.L24:
 354 0010 00E100E0 		.word	-536813312
 355              		.cfi_endproc
 356              	.LFE10:
 357              		.size	Wakeup_Interrupt_Enable, .-Wakeup_Interrupt_Enable
 358              		.section	.text.Wakeup_Interrupt_GetState,"ax",%progbits
 359              		.align	2
 360              		.global	Wakeup_Interrupt_GetState
 361              		.code	16
 362              		.thumb_func
 363              		.type	Wakeup_Interrupt_GetState, %function
 364              	Wakeup_Interrupt_GetState:
 365              	.LFB11:
 309:Generated_Source\PSoC4/Wakeup_Interrupt.c **** 
 310:Generated_Source\PSoC4/Wakeup_Interrupt.c **** 
 311:Generated_Source\PSoC4/Wakeup_Interrupt.c **** /*******************************************************************************
 312:Generated_Source\PSoC4/Wakeup_Interrupt.c **** * Function Name: Wakeup_Interrupt_GetState
 313:Generated_Source\PSoC4/Wakeup_Interrupt.c **** ********************************************************************************
 314:Generated_Source\PSoC4/Wakeup_Interrupt.c **** *
 315:Generated_Source\PSoC4/Wakeup_Interrupt.c **** * Summary:
 316:Generated_Source\PSoC4/Wakeup_Interrupt.c **** *   Gets the state (enabled, disabled) of the Interrupt.
 317:Generated_Source\PSoC4/Wakeup_Interrupt.c **** *
 318:Generated_Source\PSoC4/Wakeup_Interrupt.c **** * Parameters:
ARM GAS  C:\Users\akita\AppData\Local\Temp\ccU9hFBZ.s 			page 13


 319:Generated_Source\PSoC4/Wakeup_Interrupt.c **** *   None
 320:Generated_Source\PSoC4/Wakeup_Interrupt.c **** *
 321:Generated_Source\PSoC4/Wakeup_Interrupt.c **** * Return:
 322:Generated_Source\PSoC4/Wakeup_Interrupt.c **** *   1 if enabled, 0 if disabled.
 323:Generated_Source\PSoC4/Wakeup_Interrupt.c **** *
 324:Generated_Source\PSoC4/Wakeup_Interrupt.c **** *******************************************************************************/
 325:Generated_Source\PSoC4/Wakeup_Interrupt.c **** uint8 Wakeup_Interrupt_GetState(void)
 326:Generated_Source\PSoC4/Wakeup_Interrupt.c **** {
 366              		.loc 1 326 0
 367              		.cfi_startproc
 368 0000 80B5     		push	{r7, lr}
 369              		.cfi_def_cfa_offset 8
 370              		.cfi_offset 7, -8
 371              		.cfi_offset 14, -4
 372 0002 00AF     		add	r7, sp, #0
 373              		.cfi_def_cfa_register 7
 327:Generated_Source\PSoC4/Wakeup_Interrupt.c ****     /* Get the state of the general interrupt. */
 328:Generated_Source\PSoC4/Wakeup_Interrupt.c ****     return ((*Wakeup_Interrupt_INTC_SET_EN & (uint32)Wakeup_Interrupt__INTC_MASK) != 0u) ? 1u:0u;
 374              		.loc 1 328 0
 375 0004 044B     		ldr	r3, .L28
 376 0006 1B68     		ldr	r3, [r3]
 377 0008 DBB2     		uxtb	r3, r3
 378 000a 0122     		mov	r2, #1
 379 000c 1340     		and	r3, r2
 380 000e DBB2     		uxtb	r3, r3
 329:Generated_Source\PSoC4/Wakeup_Interrupt.c **** }
 381              		.loc 1 329 0
 382 0010 181C     		mov	r0, r3
 383 0012 BD46     		mov	sp, r7
 384              		@ sp needed
 385 0014 80BD     		pop	{r7, pc}
 386              	.L29:
 387 0016 C046     		.align	2
 388              	.L28:
 389 0018 00E100E0 		.word	-536813312
 390              		.cfi_endproc
 391              	.LFE11:
 392              		.size	Wakeup_Interrupt_GetState, .-Wakeup_Interrupt_GetState
 393              		.section	.text.Wakeup_Interrupt_Disable,"ax",%progbits
 394              		.align	2
 395              		.global	Wakeup_Interrupt_Disable
 396              		.code	16
 397              		.thumb_func
 398              		.type	Wakeup_Interrupt_Disable, %function
 399              	Wakeup_Interrupt_Disable:
 400              	.LFB12:
 330:Generated_Source\PSoC4/Wakeup_Interrupt.c **** 
 331:Generated_Source\PSoC4/Wakeup_Interrupt.c **** 
 332:Generated_Source\PSoC4/Wakeup_Interrupt.c **** /*******************************************************************************
 333:Generated_Source\PSoC4/Wakeup_Interrupt.c **** * Function Name: Wakeup_Interrupt_Disable
 334:Generated_Source\PSoC4/Wakeup_Interrupt.c **** ********************************************************************************
 335:Generated_Source\PSoC4/Wakeup_Interrupt.c **** *
 336:Generated_Source\PSoC4/Wakeup_Interrupt.c **** * Summary:
 337:Generated_Source\PSoC4/Wakeup_Interrupt.c **** *   Disables the Interrupt in the interrupt controller.
 338:Generated_Source\PSoC4/Wakeup_Interrupt.c **** *
 339:Generated_Source\PSoC4/Wakeup_Interrupt.c **** * Parameters:
 340:Generated_Source\PSoC4/Wakeup_Interrupt.c **** *   None
ARM GAS  C:\Users\akita\AppData\Local\Temp\ccU9hFBZ.s 			page 14


 341:Generated_Source\PSoC4/Wakeup_Interrupt.c **** *
 342:Generated_Source\PSoC4/Wakeup_Interrupt.c **** * Return:
 343:Generated_Source\PSoC4/Wakeup_Interrupt.c **** *   None
 344:Generated_Source\PSoC4/Wakeup_Interrupt.c **** *
 345:Generated_Source\PSoC4/Wakeup_Interrupt.c **** *******************************************************************************/
 346:Generated_Source\PSoC4/Wakeup_Interrupt.c **** void Wakeup_Interrupt_Disable(void)
 347:Generated_Source\PSoC4/Wakeup_Interrupt.c **** {
 401              		.loc 1 347 0
 402              		.cfi_startproc
 403 0000 80B5     		push	{r7, lr}
 404              		.cfi_def_cfa_offset 8
 405              		.cfi_offset 7, -8
 406              		.cfi_offset 14, -4
 407 0002 00AF     		add	r7, sp, #0
 408              		.cfi_def_cfa_register 7
 348:Generated_Source\PSoC4/Wakeup_Interrupt.c ****     /* Disable the general interrupt. */
 349:Generated_Source\PSoC4/Wakeup_Interrupt.c ****     *Wakeup_Interrupt_INTC_CLR_EN = Wakeup_Interrupt__INTC_MASK;
 409              		.loc 1 349 0
 410 0004 024B     		ldr	r3, .L31
 411 0006 0122     		mov	r2, #1
 412 0008 1A60     		str	r2, [r3]
 350:Generated_Source\PSoC4/Wakeup_Interrupt.c **** }
 413              		.loc 1 350 0
 414 000a BD46     		mov	sp, r7
 415              		@ sp needed
 416 000c 80BD     		pop	{r7, pc}
 417              	.L32:
 418 000e C046     		.align	2
 419              	.L31:
 420 0010 80E100E0 		.word	-536813184
 421              		.cfi_endproc
 422              	.LFE12:
 423              		.size	Wakeup_Interrupt_Disable, .-Wakeup_Interrupt_Disable
 424              		.section	.text.Wakeup_Interrupt_SetPending,"ax",%progbits
 425              		.align	2
 426              		.global	Wakeup_Interrupt_SetPending
 427              		.code	16
 428              		.thumb_func
 429              		.type	Wakeup_Interrupt_SetPending, %function
 430              	Wakeup_Interrupt_SetPending:
 431              	.LFB13:
 351:Generated_Source\PSoC4/Wakeup_Interrupt.c **** 
 352:Generated_Source\PSoC4/Wakeup_Interrupt.c **** 
 353:Generated_Source\PSoC4/Wakeup_Interrupt.c **** /*******************************************************************************
 354:Generated_Source\PSoC4/Wakeup_Interrupt.c **** * Function Name: Wakeup_Interrupt_SetPending
 355:Generated_Source\PSoC4/Wakeup_Interrupt.c **** ********************************************************************************
 356:Generated_Source\PSoC4/Wakeup_Interrupt.c **** *
 357:Generated_Source\PSoC4/Wakeup_Interrupt.c **** * Summary:
 358:Generated_Source\PSoC4/Wakeup_Interrupt.c **** *   Causes the Interrupt to enter the pending state, a software method of
 359:Generated_Source\PSoC4/Wakeup_Interrupt.c **** *   generating the interrupt.
 360:Generated_Source\PSoC4/Wakeup_Interrupt.c **** *
 361:Generated_Source\PSoC4/Wakeup_Interrupt.c **** * Parameters:
 362:Generated_Source\PSoC4/Wakeup_Interrupt.c **** *   None
 363:Generated_Source\PSoC4/Wakeup_Interrupt.c **** *
 364:Generated_Source\PSoC4/Wakeup_Interrupt.c **** * Return:
 365:Generated_Source\PSoC4/Wakeup_Interrupt.c **** *   None
 366:Generated_Source\PSoC4/Wakeup_Interrupt.c **** *
ARM GAS  C:\Users\akita\AppData\Local\Temp\ccU9hFBZ.s 			page 15


 367:Generated_Source\PSoC4/Wakeup_Interrupt.c **** * Side Effects:
 368:Generated_Source\PSoC4/Wakeup_Interrupt.c **** *   If interrupts are enabled and the interrupt is set up properly, the ISR is
 369:Generated_Source\PSoC4/Wakeup_Interrupt.c **** *   entered (depending on the priority of this interrupt and other pending 
 370:Generated_Source\PSoC4/Wakeup_Interrupt.c **** *   interrupts).
 371:Generated_Source\PSoC4/Wakeup_Interrupt.c **** *
 372:Generated_Source\PSoC4/Wakeup_Interrupt.c **** *******************************************************************************/
 373:Generated_Source\PSoC4/Wakeup_Interrupt.c **** void Wakeup_Interrupt_SetPending(void)
 374:Generated_Source\PSoC4/Wakeup_Interrupt.c **** {
 432              		.loc 1 374 0
 433              		.cfi_startproc
 434 0000 80B5     		push	{r7, lr}
 435              		.cfi_def_cfa_offset 8
 436              		.cfi_offset 7, -8
 437              		.cfi_offset 14, -4
 438 0002 00AF     		add	r7, sp, #0
 439              		.cfi_def_cfa_register 7
 375:Generated_Source\PSoC4/Wakeup_Interrupt.c ****     *Wakeup_Interrupt_INTC_SET_PD = Wakeup_Interrupt__INTC_MASK;
 440              		.loc 1 375 0
 441 0004 024B     		ldr	r3, .L34
 442 0006 0122     		mov	r2, #1
 443 0008 1A60     		str	r2, [r3]
 376:Generated_Source\PSoC4/Wakeup_Interrupt.c **** }
 444              		.loc 1 376 0
 445 000a BD46     		mov	sp, r7
 446              		@ sp needed
 447 000c 80BD     		pop	{r7, pc}
 448              	.L35:
 449 000e C046     		.align	2
 450              	.L34:
 451 0010 00E200E0 		.word	-536813056
 452              		.cfi_endproc
 453              	.LFE13:
 454              		.size	Wakeup_Interrupt_SetPending, .-Wakeup_Interrupt_SetPending
 455              		.section	.text.Wakeup_Interrupt_ClearPending,"ax",%progbits
 456              		.align	2
 457              		.global	Wakeup_Interrupt_ClearPending
 458              		.code	16
 459              		.thumb_func
 460              		.type	Wakeup_Interrupt_ClearPending, %function
 461              	Wakeup_Interrupt_ClearPending:
 462              	.LFB14:
 377:Generated_Source\PSoC4/Wakeup_Interrupt.c **** 
 378:Generated_Source\PSoC4/Wakeup_Interrupt.c **** 
 379:Generated_Source\PSoC4/Wakeup_Interrupt.c **** /*******************************************************************************
 380:Generated_Source\PSoC4/Wakeup_Interrupt.c **** * Function Name: Wakeup_Interrupt_ClearPending
 381:Generated_Source\PSoC4/Wakeup_Interrupt.c **** ********************************************************************************
 382:Generated_Source\PSoC4/Wakeup_Interrupt.c **** *
 383:Generated_Source\PSoC4/Wakeup_Interrupt.c **** * Summary:
 384:Generated_Source\PSoC4/Wakeup_Interrupt.c **** *   Clears a pending interrupt in the interrupt controller.
 385:Generated_Source\PSoC4/Wakeup_Interrupt.c **** *
 386:Generated_Source\PSoC4/Wakeup_Interrupt.c **** *   Note Some interrupt sources are clear-on-read and require the block 
 387:Generated_Source\PSoC4/Wakeup_Interrupt.c **** *   interrupt/status register to be read/cleared with the appropriate block API 
 388:Generated_Source\PSoC4/Wakeup_Interrupt.c **** *   (GPIO, UART, and so on). Otherwise the ISR will continue to remain in 
 389:Generated_Source\PSoC4/Wakeup_Interrupt.c **** *   pending state even though the interrupt itself is cleared using this API.
 390:Generated_Source\PSoC4/Wakeup_Interrupt.c **** *
 391:Generated_Source\PSoC4/Wakeup_Interrupt.c **** * Parameters:
 392:Generated_Source\PSoC4/Wakeup_Interrupt.c **** *   None
ARM GAS  C:\Users\akita\AppData\Local\Temp\ccU9hFBZ.s 			page 16


 393:Generated_Source\PSoC4/Wakeup_Interrupt.c **** *
 394:Generated_Source\PSoC4/Wakeup_Interrupt.c **** * Return:
 395:Generated_Source\PSoC4/Wakeup_Interrupt.c **** *   None
 396:Generated_Source\PSoC4/Wakeup_Interrupt.c **** *
 397:Generated_Source\PSoC4/Wakeup_Interrupt.c **** *******************************************************************************/
 398:Generated_Source\PSoC4/Wakeup_Interrupt.c **** void Wakeup_Interrupt_ClearPending(void)
 399:Generated_Source\PSoC4/Wakeup_Interrupt.c **** {
 463              		.loc 1 399 0
 464              		.cfi_startproc
 465 0000 80B5     		push	{r7, lr}
 466              		.cfi_def_cfa_offset 8
 467              		.cfi_offset 7, -8
 468              		.cfi_offset 14, -4
 469 0002 00AF     		add	r7, sp, #0
 470              		.cfi_def_cfa_register 7
 400:Generated_Source\PSoC4/Wakeup_Interrupt.c ****     *Wakeup_Interrupt_INTC_CLR_PD = Wakeup_Interrupt__INTC_MASK;
 471              		.loc 1 400 0
 472 0004 024B     		ldr	r3, .L37
 473 0006 0122     		mov	r2, #1
 474 0008 1A60     		str	r2, [r3]
 401:Generated_Source\PSoC4/Wakeup_Interrupt.c **** }
 475              		.loc 1 401 0
 476 000a BD46     		mov	sp, r7
 477              		@ sp needed
 478 000c 80BD     		pop	{r7, pc}
 479              	.L38:
 480 000e C046     		.align	2
 481              	.L37:
 482 0010 80E200E0 		.word	-536812928
 483              		.cfi_endproc
 484              	.LFE14:
 485              		.size	Wakeup_Interrupt_ClearPending, .-Wakeup_Interrupt_ClearPending
 486              		.text
 487              	.Letext0:
 488              		.file 2 "Generated_Source\\PSoC4/cytypes.h"